
BMP180_sensor.elf:     file format elf32-littlearm

Sections:
Idx Name          Size      VMA       LMA       File off  Algn
  0 .text         0000a774  00000000  00000000  00010000  2**3
                  CONTENTS, ALLOC, LOAD, READONLY, CODE
  1 .ARM.exidx    00000008  0000a774  0000a774  0001a774  2**2
                  CONTENTS, ALLOC, LOAD, READONLY, DATA
  2 .relocate     000009b0  20000000  0000a77c  00020000  2**3
                  CONTENTS, ALLOC, LOAD, DATA
  3 .bss          000000e8  200009b0  0000b12c  000209b0  2**2
                  ALLOC
  4 .stack        00002000  20000a98  0000b214  000209b0  2**0
                  ALLOC
  5 .ARM.attributes 0000002a  00000000  00000000  000209b0  2**0
                  CONTENTS, READONLY
  6 .comment      00000059  00000000  00000000  000209da  2**0
                  CONTENTS, READONLY
  7 .debug_info   00023dfc  00000000  00000000  00020a33  2**0
                  CONTENTS, READONLY, DEBUGGING
  8 .debug_abbrev 00003298  00000000  00000000  0004482f  2**0
                  CONTENTS, READONLY, DEBUGGING
  9 .debug_loc    0000b48e  00000000  00000000  00047ac7  2**0
                  CONTENTS, READONLY, DEBUGGING
 10 .debug_aranges 00000a48  00000000  00000000  00052f55  2**0
                  CONTENTS, READONLY, DEBUGGING
 11 .debug_ranges 00000e30  00000000  00000000  0005399d  2**0
                  CONTENTS, READONLY, DEBUGGING
 12 .debug_macro  0001b75c  00000000  00000000  000547cd  2**0
                  CONTENTS, READONLY, DEBUGGING
 13 .debug_line   0001028b  00000000  00000000  0006ff29  2**0
                  CONTENTS, READONLY, DEBUGGING
 14 .debug_str    0008a669  00000000  00000000  000801b4  2**0
                  CONTENTS, READONLY, DEBUGGING
 15 .debug_frame  00002f60  00000000  00000000  0010a820  2**2
                  CONTENTS, READONLY, DEBUGGING

Disassembly of section .text:

00000000 <exception_table>:
       0:	98 2a 00 20 e9 06 00 00 e5 06 00 00 e5 06 00 00     .*. ............
	...
      2c:	e5 06 00 00 00 00 00 00 00 00 00 00 e5 06 00 00     ................
      3c:	e5 06 00 00 e5 06 00 00 e5 06 00 00 e5 06 00 00     ................
      4c:	e5 06 00 00 e5 06 00 00 e5 06 00 00 e5 06 00 00     ................
      5c:	e5 06 00 00 e5 06 00 00 e5 06 00 00 e5 06 00 00     ................
      6c:	e5 06 00 00 e5 06 00 00 e5 06 00 00 e5 06 00 00     ................
      7c:	e5 06 00 00 e5 06 00 00 e5 06 00 00 e5 06 00 00     ................
      8c:	e5 06 00 00 e5 06 00 00 e5 06 00 00 e5 06 00 00     ................
      9c:	e5 06 00 00 e5 06 00 00 e5 06 00 00 e5 06 00 00     ................
      ac:	e5 06 00 00 00 00 00 00                             ........

000000b4 <__do_global_dtors_aux>:
      b4:	b510      	push	{r4, lr}
      b6:	4c06      	ldr	r4, [pc, #24]	; (d0 <__do_global_dtors_aux+0x1c>)
      b8:	7823      	ldrb	r3, [r4, #0]
      ba:	2b00      	cmp	r3, #0
      bc:	d107      	bne.n	ce <__do_global_dtors_aux+0x1a>
      be:	4b05      	ldr	r3, [pc, #20]	; (d4 <__do_global_dtors_aux+0x20>)
      c0:	2b00      	cmp	r3, #0
      c2:	d002      	beq.n	ca <__do_global_dtors_aux+0x16>
      c4:	4804      	ldr	r0, [pc, #16]	; (d8 <__do_global_dtors_aux+0x24>)
      c6:	e000      	b.n	ca <__do_global_dtors_aux+0x16>
      c8:	bf00      	nop
      ca:	2301      	movs	r3, #1
      cc:	7023      	strb	r3, [r4, #0]
      ce:	bd10      	pop	{r4, pc}
      d0:	200009b0 	.word	0x200009b0
      d4:	00000000 	.word	0x00000000
      d8:	0000a77c 	.word	0x0000a77c

000000dc <frame_dummy>:
      dc:	4b08      	ldr	r3, [pc, #32]	; (100 <frame_dummy+0x24>)
      de:	b510      	push	{r4, lr}
      e0:	2b00      	cmp	r3, #0
      e2:	d003      	beq.n	ec <frame_dummy+0x10>
      e4:	4907      	ldr	r1, [pc, #28]	; (104 <frame_dummy+0x28>)
      e6:	4808      	ldr	r0, [pc, #32]	; (108 <frame_dummy+0x2c>)
      e8:	e000      	b.n	ec <frame_dummy+0x10>
      ea:	bf00      	nop
      ec:	4807      	ldr	r0, [pc, #28]	; (10c <frame_dummy+0x30>)
      ee:	6803      	ldr	r3, [r0, #0]
      f0:	2b00      	cmp	r3, #0
      f2:	d100      	bne.n	f6 <frame_dummy+0x1a>
      f4:	bd10      	pop	{r4, pc}
      f6:	4b06      	ldr	r3, [pc, #24]	; (110 <frame_dummy+0x34>)
      f8:	2b00      	cmp	r3, #0
      fa:	d0fb      	beq.n	f4 <frame_dummy+0x18>
      fc:	4798      	blx	r3
      fe:	e7f9      	b.n	f4 <frame_dummy+0x18>
     100:	00000000 	.word	0x00000000
     104:	200009b4 	.word	0x200009b4
     108:	0000a77c 	.word	0x0000a77c
     10c:	0000a77c 	.word	0x0000a77c
     110:	00000000 	.word	0x00000000

00000114 <atmel_start_init>:

/**
 * Initializes MCU, drivers and middleware in the project
 **/
void atmel_start_init(void)
{
     114:	b510      	push	{r4, lr}
	system_init();
     116:	4b02      	ldr	r3, [pc, #8]	; (120 <atmel_start_init+0xc>)
     118:	4798      	blx	r3
	stdio_redirect_init();
     11a:	4b02      	ldr	r3, [pc, #8]	; (124 <atmel_start_init+0x10>)
     11c:	4798      	blx	r3
}
     11e:	bd10      	pop	{r4, pc}
     120:	0000090d 	.word	0x0000090d
     124:	000017bd 	.word	0x000017bd

00000128 <bmp180_get_calib_param>:
 *  @retval -1 -> Error
 *
 *
 */
BMP180_RETURN_FUNCTION_TYPE bmp180_get_calib_param(void)
{
     128:	b530      	push	{r4, r5, lr}
     12a:	b087      	sub	sp, #28
    /* used to return the bus communication results*/
    BMP180_RETURN_FUNCTION_TYPE v_com_rslt_s8 = E_BMP_COMM_RES;

    /* Array holding the calibration informations*/
    u8 a_data_u8r[BMP180_CALIB_DATA_SIZE] = {
     12c:	2216      	movs	r2, #22
     12e:	2100      	movs	r1, #0
     130:	4668      	mov	r0, sp
     132:	4b2b      	ldr	r3, [pc, #172]	; (1e0 <bmp180_get_calib_param+0xb8>)
     134:	4798      	blx	r3
        BMP180_INIT_VALUE, BMP180_INIT_VALUE, BMP180_INIT_VALUE, BMP180_INIT_VALUE, BMP180_INIT_VALUE,
        BMP180_INIT_VALUE, BMP180_INIT_VALUE
    };

    /* read calibration data*/
    v_com_rslt_s8 = p_bmp180->BMP180_BUS_READ_FUNC(p_bmp180->dev_addr,
     136:	4c2b      	ldr	r4, [pc, #172]	; (1e4 <bmp180_get_calib_param+0xbc>)
     138:	6823      	ldr	r3, [r4, #0]
     13a:	7e98      	ldrb	r0, [r3, #26]
     13c:	6add      	ldr	r5, [r3, #44]	; 0x2c
     13e:	2316      	movs	r3, #22
     140:	466a      	mov	r2, sp
     142:	21aa      	movs	r1, #170	; 0xaa
     144:	47a8      	blx	r5
                                                   BMP180_PROM_START__ADDR,
                                                   a_data_u8r,
                                                   BMP180_PROM_DATA__LEN);

    /*parameters AC1-AC6*/
    p_bmp180->calib_param.ac1 =
     146:	6823      	ldr	r3, [r4, #0]
        (s16)((((s32)((s8)a_data_u8r[BMP180_CALIB_PARAM_AC1_MSB])) << BMP180_SHIFT_BIT_POSITION_BY_08_BITS) |
     148:	466a      	mov	r2, sp
     14a:	2100      	movs	r1, #0
     14c:	5651      	ldrsb	r1, [r2, r1]
     14e:	0209      	lsls	r1, r1, #8
              a_data_u8r[BMP180_CALIB_PARAM_AC1_LSB]);
     150:	7852      	ldrb	r2, [r2, #1]
        (s16)((((s32)((s8)a_data_u8r[BMP180_CALIB_PARAM_AC1_MSB])) << BMP180_SHIFT_BIT_POSITION_BY_08_BITS) |
     152:	430a      	orrs	r2, r1
    p_bmp180->calib_param.ac1 =
     154:	801a      	strh	r2, [r3, #0]
    p_bmp180->calib_param.ac2 =
        (s16)((((s32)((s8)a_data_u8r[BMP180_CALIB_PARAM_AC2_MSB])) << BMP180_SHIFT_BIT_POSITION_BY_08_BITS) |
     156:	466a      	mov	r2, sp
     158:	2102      	movs	r1, #2
     15a:	5651      	ldrsb	r1, [r2, r1]
     15c:	0209      	lsls	r1, r1, #8
              a_data_u8r[BMP180_CALIB_PARAM_AC2_LSB]);
     15e:	78d2      	ldrb	r2, [r2, #3]
        (s16)((((s32)((s8)a_data_u8r[BMP180_CALIB_PARAM_AC2_MSB])) << BMP180_SHIFT_BIT_POSITION_BY_08_BITS) |
     160:	430a      	orrs	r2, r1
    p_bmp180->calib_param.ac2 =
     162:	805a      	strh	r2, [r3, #2]
    p_bmp180->calib_param.ac3 =
        (s16)((((s32)((s8)a_data_u8r[BMP180_CALIB_PARAM_AC3_MSB])) << BMP180_SHIFT_BIT_POSITION_BY_08_BITS) |
     164:	466a      	mov	r2, sp
     166:	2104      	movs	r1, #4
     168:	5651      	ldrsb	r1, [r2, r1]
     16a:	0209      	lsls	r1, r1, #8
              a_data_u8r[BMP180_CALIB_PARAM_AC3_LSB]);
     16c:	7952      	ldrb	r2, [r2, #5]
        (s16)((((s32)((s8)a_data_u8r[BMP180_CALIB_PARAM_AC3_MSB])) << BMP180_SHIFT_BIT_POSITION_BY_08_BITS) |
     16e:	430a      	orrs	r2, r1
    p_bmp180->calib_param.ac3 =
     170:	809a      	strh	r2, [r3, #4]
    p_bmp180->calib_param.ac4 =
        (u16)((((u32)((u8)a_data_u8r[BMP180_CALIB_PARAM_AC4_MSB])) << BMP180_SHIFT_BIT_POSITION_BY_08_BITS) |
     172:	466a      	mov	r2, sp
     174:	7991      	ldrb	r1, [r2, #6]
     176:	0209      	lsls	r1, r1, #8
              a_data_u8r[BMP180_CALIB_PARAM_AC4_LSB]);
     178:	79d2      	ldrb	r2, [r2, #7]
        (u16)((((u32)((u8)a_data_u8r[BMP180_CALIB_PARAM_AC4_MSB])) << BMP180_SHIFT_BIT_POSITION_BY_08_BITS) |
     17a:	430a      	orrs	r2, r1
    p_bmp180->calib_param.ac4 =
     17c:	80da      	strh	r2, [r3, #6]
    p_bmp180->calib_param.ac5 =
        (u16)((((u32)((u8)a_data_u8r[BMP180_CALIB_PARAM_AC5_MSB])) << BMP180_SHIFT_BIT_POSITION_BY_08_BITS) |
     17e:	466a      	mov	r2, sp
     180:	7a11      	ldrb	r1, [r2, #8]
     182:	0209      	lsls	r1, r1, #8
              a_data_u8r[BMP180_CALIB_PARAM_AC5_LSB]);
     184:	7a52      	ldrb	r2, [r2, #9]
        (u16)((((u32)((u8)a_data_u8r[BMP180_CALIB_PARAM_AC5_MSB])) << BMP180_SHIFT_BIT_POSITION_BY_08_BITS) |
     186:	430a      	orrs	r2, r1
    p_bmp180->calib_param.ac5 =
     188:	811a      	strh	r2, [r3, #8]
    p_bmp180->calib_param.ac6 =
        (u16)((((u32)((u8)a_data_u8r[BMP180_CALIB_PARAM_AC6_MSB])) << BMP180_SHIFT_BIT_POSITION_BY_08_BITS) |
     18a:	466a      	mov	r2, sp
     18c:	7a91      	ldrb	r1, [r2, #10]
     18e:	0209      	lsls	r1, r1, #8
              a_data_u8r[BMP180_CALIB_PARAM_AC6_LSB]);
     190:	7ad2      	ldrb	r2, [r2, #11]
        (u16)((((u32)((u8)a_data_u8r[BMP180_CALIB_PARAM_AC6_MSB])) << BMP180_SHIFT_BIT_POSITION_BY_08_BITS) |
     192:	430a      	orrs	r2, r1
    p_bmp180->calib_param.ac6 =
     194:	815a      	strh	r2, [r3, #10]

    /*parameters B1,B2*/
    p_bmp180->calib_param.b1 =
        (s16)((((s32)((s8)a_data_u8r[BMP180_CALIB_PARAM_B1_MSB])) << BMP180_SHIFT_BIT_POSITION_BY_08_BITS) |
     196:	466a      	mov	r2, sp
     198:	210c      	movs	r1, #12
     19a:	5651      	ldrsb	r1, [r2, r1]
     19c:	0209      	lsls	r1, r1, #8
              a_data_u8r[BMP180_CALIB_PARAM_B1_LSB]);
     19e:	7b52      	ldrb	r2, [r2, #13]
        (s16)((((s32)((s8)a_data_u8r[BMP180_CALIB_PARAM_B1_MSB])) << BMP180_SHIFT_BIT_POSITION_BY_08_BITS) |
     1a0:	430a      	orrs	r2, r1
    p_bmp180->calib_param.b1 =
     1a2:	819a      	strh	r2, [r3, #12]
    p_bmp180->calib_param.b2 =
        (s16)((((s32)((s8)a_data_u8r[BMP180_CALIB_PARAM_B2_MSB])) << BMP180_SHIFT_BIT_POSITION_BY_08_BITS) |
     1a4:	466a      	mov	r2, sp
     1a6:	210e      	movs	r1, #14
     1a8:	5651      	ldrsb	r1, [r2, r1]
     1aa:	0209      	lsls	r1, r1, #8
              a_data_u8r[BMP180_CALIB_PARAM_B2_LSB]);
     1ac:	7bd2      	ldrb	r2, [r2, #15]
        (s16)((((s32)((s8)a_data_u8r[BMP180_CALIB_PARAM_B2_MSB])) << BMP180_SHIFT_BIT_POSITION_BY_08_BITS) |
     1ae:	430a      	orrs	r2, r1
    p_bmp180->calib_param.b2 =
     1b0:	81da      	strh	r2, [r3, #14]

    /*parameters MB,MC,MD*/
    p_bmp180->calib_param.mb =
        (s16)((((s32)((s8)a_data_u8r[BMP180_CALIB_PARAM_MB_MSB])) << BMP180_SHIFT_BIT_POSITION_BY_08_BITS) |
     1b2:	466a      	mov	r2, sp
     1b4:	2110      	movs	r1, #16
     1b6:	5651      	ldrsb	r1, [r2, r1]
     1b8:	0209      	lsls	r1, r1, #8
              a_data_u8r[BMP180_CALIB_PARAM_MB_LSB]);
     1ba:	7c52      	ldrb	r2, [r2, #17]
        (s16)((((s32)((s8)a_data_u8r[BMP180_CALIB_PARAM_MB_MSB])) << BMP180_SHIFT_BIT_POSITION_BY_08_BITS) |
     1bc:	430a      	orrs	r2, r1
    p_bmp180->calib_param.mb =
     1be:	821a      	strh	r2, [r3, #16]
    p_bmp180->calib_param.mc =
        (s16)((((s32)((s8)a_data_u8r[BMP180_CALIB_PARAM_MC_MSB])) << BMP180_SHIFT_BIT_POSITION_BY_08_BITS) |
     1c0:	466a      	mov	r2, sp
     1c2:	2112      	movs	r1, #18
     1c4:	5651      	ldrsb	r1, [r2, r1]
     1c6:	0209      	lsls	r1, r1, #8
              a_data_u8r[BMP180_CALIB_PARAM_MC_LSB]);
     1c8:	7cd2      	ldrb	r2, [r2, #19]
        (s16)((((s32)((s8)a_data_u8r[BMP180_CALIB_PARAM_MC_MSB])) << BMP180_SHIFT_BIT_POSITION_BY_08_BITS) |
     1ca:	430a      	orrs	r2, r1
    p_bmp180->calib_param.mc =
     1cc:	825a      	strh	r2, [r3, #18]
    p_bmp180->calib_param.md =
        (s16)((((s32)((s8)a_data_u8r[BMP180_CALIB_PARAM_MD_MSB])) << BMP180_SHIFT_BIT_POSITION_BY_08_BITS) |
     1ce:	466a      	mov	r2, sp
     1d0:	2114      	movs	r1, #20
     1d2:	5651      	ldrsb	r1, [r2, r1]
     1d4:	0209      	lsls	r1, r1, #8
              a_data_u8r[BMP180_CALIB_PARAM_MD_LSB]);
     1d6:	7d52      	ldrb	r2, [r2, #21]
        (s16)((((s32)((s8)a_data_u8r[BMP180_CALIB_PARAM_MD_MSB])) << BMP180_SHIFT_BIT_POSITION_BY_08_BITS) |
     1d8:	430a      	orrs	r2, r1
    p_bmp180->calib_param.md =
     1da:	829a      	strh	r2, [r3, #20]

    return v_com_rslt_s8;
}
     1dc:	b007      	add	sp, #28
     1de:	bd30      	pop	{r4, r5, pc}
     1e0:	00005221 	.word	0x00005221
     1e4:	200009cc 	.word	0x200009cc

000001e8 <bmp180_init>:
{
     1e8:	b5f0      	push	{r4, r5, r6, r7, lr}
     1ea:	b083      	sub	sp, #12
     1ec:	0003      	movs	r3, r0
    u8 v_data_u8 = BMP180_INIT_VALUE;
     1ee:	466a      	mov	r2, sp
     1f0:	1dd5      	adds	r5, r2, #7
     1f2:	2700      	movs	r7, #0
     1f4:	71d7      	strb	r7, [r2, #7]
    p_bmp180 = bmp180;
     1f6:	4e12      	ldr	r6, [pc, #72]	; (240 <bmp180_init+0x58>)
     1f8:	6030      	str	r0, [r6, #0]
    v_com_rslt_s8 = p_bmp180->BMP180_BUS_READ_FUNC(p_bmp180->dev_addr,
     1fa:	7e80      	ldrb	r0, [r0, #26]
     1fc:	6adc      	ldr	r4, [r3, #44]	; 0x2c
     1fe:	2301      	movs	r3, #1
     200:	002a      	movs	r2, r5
     202:	21d0      	movs	r1, #208	; 0xd0
     204:	47a0      	blx	r4
     206:	0004      	movs	r4, r0
    p_bmp180->chip_id = BMP180_GET_BITSLICE(v_data_u8, BMP180_CHIP_ID);
     208:	6833      	ldr	r3, [r6, #0]
     20a:	782a      	ldrb	r2, [r5, #0]
     20c:	75da      	strb	r2, [r3, #23]
    p_bmp180->number_of_samples = BMP180_INITIALIZE_NUMBER_OF_SAMPLES_U8X;
     20e:	2201      	movs	r2, #1
     210:	621a      	str	r2, [r3, #32]
    p_bmp180->oversamp_setting = BMP180_INITIALIZE_OVERSAMP_SETTING_U8X;
     212:	849f      	strh	r7, [r3, #36]	; 0x24
    p_bmp180->sw_oversamp = BMP180_INITIALIZE_SW_OVERSAMP_U8X;
     214:	84df      	strh	r7, [r3, #38]	; 0x26
    v_com_rslt_s8 += p_bmp180->BMP180_BUS_READ_FUNC(p_bmp180->dev_addr,
     216:	7e98      	ldrb	r0, [r3, #26]
     218:	6adf      	ldr	r7, [r3, #44]	; 0x2c
     21a:	2301      	movs	r3, #1
     21c:	002a      	movs	r2, r5
     21e:	21d1      	movs	r1, #209	; 0xd1
     220:	47b8      	blx	r7
     222:	1904      	adds	r4, r0, r4
     224:	b2e4      	uxtb	r4, r4
    p_bmp180->ml_version = BMP180_GET_BITSLICE(v_data_u8, BMP180_ML_VERSION); /* get ML version */
     226:	6831      	ldr	r1, [r6, #0]
     228:	782b      	ldrb	r3, [r5, #0]
     22a:	220f      	movs	r2, #15
     22c:	401a      	ands	r2, r3
     22e:	760a      	strb	r2, [r1, #24]
    p_bmp180->al_version = BMP180_GET_BITSLICE(v_data_u8, BMP180_AL_VERSION); /* get AL version */
     230:	091b      	lsrs	r3, r3, #4
     232:	764b      	strb	r3, [r1, #25]
    v_com_rslt_s8 += bmp180_get_calib_param();
     234:	4b03      	ldr	r3, [pc, #12]	; (244 <bmp180_init+0x5c>)
     236:	4798      	blx	r3
     238:	1820      	adds	r0, r4, r0
    return v_com_rslt_s8;
     23a:	b240      	sxtb	r0, r0
}
     23c:	b003      	add	sp, #12
     23e:	bdf0      	pop	{r4, r5, r6, r7, pc}
     240:	200009cc 	.word	0x200009cc
     244:	00000129 	.word	0x00000129

00000248 <bmp180_get_temperature>:
 *  @return Return the temperature in steps of 0.1 deg Celsius
 *
 *
 */
s16 bmp180_get_temperature(u32 v_uncomp_temperature_u32)
{
     248:	b570      	push	{r4, r5, r6, lr}
    s16 v_temperature_s16 = BMP180_INIT_VALUE;
    s32 v_x1_s32, v_x2_s32 = BMP180_INIT_VALUE;

    /* calculate temperature*/
    v_x1_s32 = (((s32) v_uncomp_temperature_u32 - (s32) p_bmp180->calib_param.ac6) * (s32) p_bmp180->calib_param.ac5) >>
     24a:	4b0d      	ldr	r3, [pc, #52]	; (280 <bmp180_get_temperature+0x38>)
     24c:	681d      	ldr	r5, [r3, #0]
     24e:	896c      	ldrh	r4, [r5, #10]
     250:	1b04      	subs	r4, r0, r4
     252:	8928      	ldrh	r0, [r5, #8]
     254:	4344      	muls	r4, r0
     256:	13e4      	asrs	r4, r4, #15
               BMP180_SHIFT_BIT_POSITION_BY_15_BITS;
    if (v_x1_s32 == BMP180_CHECK_DIVISOR && p_bmp180->calib_param.md == BMP180_CHECK_DIVISOR)
     258:	d103      	bne.n	262 <bmp180_get_temperature+0x1a>
     25a:	2314      	movs	r3, #20
     25c:	5ee8      	ldrsh	r0, [r5, r3]
     25e:	2800      	cmp	r0, #0
     260:	d00c      	beq.n	27c <bmp180_get_temperature+0x34>
    {
        return BMP180_INVALID_DATA;
    }

    /* executed only the divisor is not zero*/
    v_x2_s32 = ((s32) p_bmp180->calib_param.mc << BMP180_SHIFT_BIT_POSITION_BY_11_BITS) /
     262:	2312      	movs	r3, #18
     264:	5ee8      	ldrsh	r0, [r5, r3]
     266:	02c0      	lsls	r0, r0, #11
               (v_x1_s32 + p_bmp180->calib_param.md);
     268:	2314      	movs	r3, #20
     26a:	5ee9      	ldrsh	r1, [r5, r3]
     26c:	1909      	adds	r1, r1, r4
    v_x2_s32 = ((s32) p_bmp180->calib_param.mc << BMP180_SHIFT_BIT_POSITION_BY_11_BITS) /
     26e:	4b05      	ldr	r3, [pc, #20]	; (284 <bmp180_get_temperature+0x3c>)
     270:	4798      	blx	r3
    p_bmp180->param_b5 = v_x1_s32 + v_x2_s32;
     272:	1900      	adds	r0, r0, r4
     274:	61e8      	str	r0, [r5, #28]
    v_temperature_s16 =
        ((p_bmp180->param_b5 + BMP180_CALCULATE_TRUE_TEMPERATURE) >> BMP180_SHIFT_BIT_POSITION_BY_04_BITS);
     276:	3008      	adds	r0, #8
     278:	1100      	asrs	r0, r0, #4
    v_temperature_s16 =
     27a:	b200      	sxth	r0, r0

    return v_temperature_s16;
}
     27c:	bd70      	pop	{r4, r5, r6, pc}
     27e:	46c0      	nop			; (mov r8, r8)
     280:	200009cc 	.word	0x200009cc
     284:	00002ac5 	.word	0x00002ac5

00000288 <bmp180_get_pressure>:
 *
 *  @return Return the value of pressure in steps of 1.0 Pa
 *
 */
s32 bmp180_get_pressure(u32 v_uncomp_pressure_u32)
{
     288:	b5f0      	push	{r4, r5, r6, r7, lr}
     28a:	46c6      	mov	lr, r8
     28c:	b500      	push	{lr}
     28e:	4680      	mov	r8, r0
    s32 v_pressure_s32, v_x1_s32, v_x2_s32, v_x3_s32, v_b3_s32, v_b6_s32 = BMP180_INIT_VALUE;
    u32 v_b4_u32, v_b7_u32 = BMP180_INIT_VALUE;

    v_b6_s32 = p_bmp180->param_b5 - 4000;
     290:	4b29      	ldr	r3, [pc, #164]	; (338 <bmp180_get_pressure+0xb0>)
     292:	681d      	ldr	r5, [r3, #0]
     294:	69eb      	ldr	r3, [r5, #28]
     296:	4a29      	ldr	r2, [pc, #164]	; (33c <bmp180_get_pressure+0xb4>)
     298:	4694      	mov	ip, r2
     29a:	4463      	add	r3, ip

    /*****calculate B3************/
    v_x1_s32 = (v_b6_s32 * v_b6_s32) >> BMP180_SHIFT_BIT_POSITION_BY_12_BITS;
     29c:	001f      	movs	r7, r3
     29e:	435f      	muls	r7, r3
     2a0:	133f      	asrs	r7, r7, #12
    v_x1_s32 *= p_bmp180->calib_param.b2;
     2a2:	220e      	movs	r2, #14
     2a4:	5eac      	ldrsh	r4, [r5, r2]
     2a6:	437c      	muls	r4, r7
    v_x1_s32 >>= BMP180_SHIFT_BIT_POSITION_BY_11_BITS;
    v_x2_s32 = (p_bmp180->calib_param.ac2 * v_b6_s32);
     2a8:	2202      	movs	r2, #2
     2aa:	5eae      	ldrsh	r6, [r5, r2]
     2ac:	435e      	muls	r6, r3
    v_x2_s32 >>= BMP180_SHIFT_BIT_POSITION_BY_11_BITS;
    v_x3_s32 = v_x1_s32 + v_x2_s32;
    v_b3_s32 = (((((s32)p_bmp180->calib_param.ac1) * 4 + v_x3_s32) << p_bmp180->oversamp_setting) + 2) >>
     2ae:	2124      	movs	r1, #36	; 0x24
     2b0:	5e6a      	ldrsh	r2, [r5, r1]
               BMP180_SHIFT_BIT_POSITION_BY_02_BITS;

    /*****calculate B4************/
    v_x1_s32 = (p_bmp180->calib_param.ac3 * v_b6_s32) >> BMP180_SHIFT_BIT_POSITION_BY_13_BITS;
     2b2:	2004      	movs	r0, #4
     2b4:	5e29      	ldrsh	r1, [r5, r0]
     2b6:	4359      	muls	r1, r3
     2b8:	1349      	asrs	r1, r1, #13
    v_x2_s32 = (p_bmp180->calib_param.b1 * ((v_b6_s32 * v_b6_s32) >> BMP180_SHIFT_BIT_POSITION_BY_12_BITS)) >>
     2ba:	200c      	movs	r0, #12
     2bc:	5e2b      	ldrsh	r3, [r5, r0]
     2be:	435f      	muls	r7, r3
     2c0:	143f      	asrs	r7, r7, #16
               BMP180_SHIFT_BIT_POSITION_BY_16_BITS;
    v_x3_s32 = ((v_x1_s32 + v_x2_s32) + 2) >> BMP180_SHIFT_BIT_POSITION_BY_02_BITS;
     2c2:	19c9      	adds	r1, r1, r7
     2c4:	3102      	adds	r1, #2
     2c6:	1089      	asrs	r1, r1, #2
    v_b4_u32 = (p_bmp180->calib_param.ac4 * (u32)(v_x3_s32 + 32768)) >> BMP180_SHIFT_BIT_POSITION_BY_15_BITS;
     2c8:	2380      	movs	r3, #128	; 0x80
     2ca:	021b      	lsls	r3, r3, #8
     2cc:	469c      	mov	ip, r3
     2ce:	4461      	add	r1, ip
     2d0:	88eb      	ldrh	r3, [r5, #6]
     2d2:	4359      	muls	r1, r3
     2d4:	0bc9      	lsrs	r1, r1, #15
    v_x1_s32 >>= BMP180_SHIFT_BIT_POSITION_BY_11_BITS;
     2d6:	12e3      	asrs	r3, r4, #11
    v_x2_s32 >>= BMP180_SHIFT_BIT_POSITION_BY_11_BITS;
     2d8:	12f6      	asrs	r6, r6, #11
    v_x3_s32 = v_x1_s32 + v_x2_s32;
     2da:	199b      	adds	r3, r3, r6
    v_b3_s32 = (((((s32)p_bmp180->calib_param.ac1) * 4 + v_x3_s32) << p_bmp180->oversamp_setting) + 2) >>
     2dc:	2000      	movs	r0, #0
     2de:	5e2c      	ldrsh	r4, [r5, r0]
     2e0:	00a4      	lsls	r4, r4, #2
     2e2:	191b      	adds	r3, r3, r4
     2e4:	4093      	lsls	r3, r2
     2e6:	3302      	adds	r3, #2
     2e8:	109b      	asrs	r3, r3, #2
    v_b7_u32 = ((u32)(v_uncomp_pressure_u32 - v_b3_s32) * (50000 >> p_bmp180->oversamp_setting));
     2ea:	4640      	mov	r0, r8
     2ec:	1ac0      	subs	r0, r0, r3
     2ee:	4b14      	ldr	r3, [pc, #80]	; (340 <bmp180_get_pressure+0xb8>)
     2f0:	4113      	asrs	r3, r2
     2f2:	4343      	muls	r3, r0
    if (v_b7_u32 < 0x80000000)
     2f4:	2b00      	cmp	r3, #0
     2f6:	db16      	blt.n	326 <bmp180_get_pressure+0x9e>
        {
            v_pressure_s32 = (v_b7_u32 << BMP180_SHIFT_BIT_POSITION_BY_01_BIT) / v_b4_u32;
        }
        else
        {
            return BMP180_INVALID_DATA;
     2f8:	2000      	movs	r0, #0
        if (v_b4_u32 != BMP180_CHECK_DIVISOR)
     2fa:	2900      	cmp	r1, #0
     2fc:	d010      	beq.n	320 <bmp180_get_pressure+0x98>
            v_pressure_s32 = (v_b7_u32 << BMP180_SHIFT_BIT_POSITION_BY_01_BIT) / v_b4_u32;
     2fe:	0058      	lsls	r0, r3, #1
     300:	4b10      	ldr	r3, [pc, #64]	; (344 <bmp180_get_pressure+0xbc>)
     302:	4798      	blx	r3
        else
        {
            return BMP180_INVALID_DATA;
        }
    }
    v_x1_s32 = v_pressure_s32 >> BMP180_SHIFT_BIT_POSITION_BY_08_BITS;
     304:	1203      	asrs	r3, r0, #8
    v_x1_s32 *= v_x1_s32;
     306:	435b      	muls	r3, r3
    v_x1_s32 = (v_x1_s32 * BMP180_PARAM_MG) >> BMP180_SHIFT_BIT_POSITION_BY_16_BITS;
     308:	4a0f      	ldr	r2, [pc, #60]	; (348 <bmp180_get_pressure+0xc0>)
     30a:	435a      	muls	r2, r3
    v_x2_s32 = (v_pressure_s32 * BMP180_PARAM_MH) >> BMP180_SHIFT_BIT_POSITION_BY_16_BITS;
     30c:	4b0f      	ldr	r3, [pc, #60]	; (34c <bmp180_get_pressure+0xc4>)
     30e:	4343      	muls	r3, r0
     310:	141b      	asrs	r3, r3, #16
    v_x1_s32 = (v_x1_s32 * BMP180_PARAM_MG) >> BMP180_SHIFT_BIT_POSITION_BY_16_BITS;
     312:	1412      	asrs	r2, r2, #16

    /*pressure in Pa*/
    v_pressure_s32 += (v_x1_s32 + v_x2_s32 + BMP180_PARAM_MI) >> BMP180_SHIFT_BIT_POSITION_BY_04_BITS;
     314:	189b      	adds	r3, r3, r2
     316:	4a0e      	ldr	r2, [pc, #56]	; (350 <bmp180_get_pressure+0xc8>)
     318:	4694      	mov	ip, r2
     31a:	4463      	add	r3, ip
     31c:	111b      	asrs	r3, r3, #4
     31e:	18c0      	adds	r0, r0, r3

    return v_pressure_s32;
}
     320:	bc04      	pop	{r2}
     322:	4690      	mov	r8, r2
     324:	bdf0      	pop	{r4, r5, r6, r7, pc}
            return BMP180_INVALID_DATA;
     326:	2000      	movs	r0, #0
        if (v_b4_u32 != BMP180_CHECK_DIVISOR)
     328:	2900      	cmp	r1, #0
     32a:	d0f9      	beq.n	320 <bmp180_get_pressure+0x98>
            v_pressure_s32 = (v_b7_u32 / v_b4_u32) << BMP180_SHIFT_BIT_POSITION_BY_01_BIT;
     32c:	0018      	movs	r0, r3
     32e:	4b05      	ldr	r3, [pc, #20]	; (344 <bmp180_get_pressure+0xbc>)
     330:	4798      	blx	r3
     332:	0040      	lsls	r0, r0, #1
     334:	e7e6      	b.n	304 <bmp180_get_pressure+0x7c>
     336:	46c0      	nop			; (mov r8, r8)
     338:	200009cc 	.word	0x200009cc
     33c:	fffff060 	.word	0xfffff060
     340:	0000c350 	.word	0x0000c350
     344:	000029b1 	.word	0x000029b1
     348:	00000bde 	.word	0x00000bde
     34c:	ffffe343 	.word	0xffffe343
     350:	00000ecf 	.word	0x00000ecf

00000354 <bmp180_get_uncomp_temperature>:
 *  @retval -1 -> Error
 *
 *
 */
u16 bmp180_get_uncomp_temperature(void)
{
     354:	b570      	push	{r4, r5, r6, lr}
     356:	b082      	sub	sp, #8
    u16 v_ut_u16 = BMP180_INIT_VALUE;

    /* Array holding the temperature LSB and MSB data*/
    u8 v_data_u8[BMP180_TEMPERATURE_DATA_BYTES] = { BMP180_INIT_VALUE, BMP180_INIT_VALUE };
     358:	ac01      	add	r4, sp, #4
     35a:	2300      	movs	r3, #0
     35c:	7023      	strb	r3, [r4, #0]
     35e:	7063      	strb	r3, [r4, #1]

    /* used to return the bus communication results*/
    BMP180_RETURN_FUNCTION_TYPE v_com_rslt_s8 = E_BMP_COMM_RES;
    u8 v_wait_time_u8 = BMP180_INIT_VALUE;

    v_ctrl_reg_data_u8 = BMP180_T_MEASURE;
     360:	466b      	mov	r3, sp
     362:	1cda      	adds	r2, r3, #3
     364:	232e      	movs	r3, #46	; 0x2e
     366:	7013      	strb	r3, [r2, #0]
    v_wait_time_u8 = BMP180_TEMP_CONVERSION_TIME;
    v_com_rslt_s8 = p_bmp180->BMP180_BUS_WRITE_FUNC(p_bmp180->dev_addr,
     368:	4d10      	ldr	r5, [pc, #64]	; (3ac <bmp180_get_uncomp_temperature+0x58>)
     36a:	682b      	ldr	r3, [r5, #0]
     36c:	7e98      	ldrb	r0, [r3, #26]
     36e:	6a9e      	ldr	r6, [r3, #40]	; 0x28
     370:	2301      	movs	r3, #1
     372:	21f4      	movs	r1, #244	; 0xf4
     374:	47b0      	blx	r6
     376:	0006      	movs	r6, r0
                                                    BMP180_CTRL_MEAS_REG,
                                                    &v_ctrl_reg_data_u8,
                                                    BMP180_GEN_READ_WRITE_DATA_LENGTH);
    p_bmp180->delay_msec(v_wait_time_u8);
     378:	682b      	ldr	r3, [r5, #0]
     37a:	6b1b      	ldr	r3, [r3, #48]	; 0x30
     37c:	2005      	movs	r0, #5
     37e:	4798      	blx	r3
    v_com_rslt_s8 += p_bmp180->BMP180_BUS_READ_FUNC(p_bmp180->dev_addr,
     380:	682b      	ldr	r3, [r5, #0]
     382:	7e98      	ldrb	r0, [r3, #26]
     384:	6add      	ldr	r5, [r3, #44]	; 0x2c
     386:	2302      	movs	r3, #2
     388:	0022      	movs	r2, r4
     38a:	21f6      	movs	r1, #246	; 0xf6
     38c:	47a8      	blx	r5
     38e:	1980      	adds	r0, r0, r6
                                                    BMP180_ADC_OUT_MSB_REG,
                                                    v_data_u8,
                                                    BMP180_TEMPERATURE_DATA_LENGTH);
    if (v_com_rslt_s8 == 0)
     390:	b2c0      	uxtb	r0, r0
     392:	2300      	movs	r3, #0
     394:	2800      	cmp	r0, #0
     396:	d105      	bne.n	3a4 <bmp180_get_uncomp_temperature+0x50>
    {
        v_ut_u16 =
            (u16)((((s32)((s8)v_data_u8[BMP180_TEMPERATURE_MSB_DATA])) << BMP180_SHIFT_BIT_POSITION_BY_08_BITS) |
     398:	aa01      	add	r2, sp, #4
     39a:	2000      	movs	r0, #0
     39c:	5610      	ldrsb	r0, [r2, r0]
     39e:	0200      	lsls	r0, r0, #8
                  (v_data_u8[BMP180_TEMPERATURE_LSB_DATA]));
     3a0:	7853      	ldrb	r3, [r2, #1]
            (u16)((((s32)((s8)v_data_u8[BMP180_TEMPERATURE_MSB_DATA])) << BMP180_SHIFT_BIT_POSITION_BY_08_BITS) |
     3a2:	4303      	orrs	r3, r0
    }

    return v_ut_u16;
     3a4:	b298      	uxth	r0, r3
}
     3a6:	b002      	add	sp, #8
     3a8:	bd70      	pop	{r4, r5, r6, pc}
     3aa:	46c0      	nop			; (mov r8, r8)
     3ac:	200009cc 	.word	0x200009cc

000003b0 <bmp180_get_uncomp_pressure>:
 *  @retval 0 -> Success
 *  @retval -1 -> Error
 *
 */
u32 bmp180_get_uncomp_pressure(void)
{
     3b0:	b5f0      	push	{r4, r5, r6, r7, lr}
     3b2:	46d6      	mov	lr, sl
     3b4:	464f      	mov	r7, r9
     3b6:	4646      	mov	r6, r8
     3b8:	b5c0      	push	{r6, r7, lr}
     3ba:	b082      	sub	sp, #8
    u8 v_j_u8 = BMP180_INIT_VALUE;
    u32 v_up_u32 = BMP180_INIT_VALUE;

    /*get the calculated pressure data*/
    u32 v_sum_u32 = BMP180_INIT_VALUE;
    u8 v_data_u8[BMP180_PRESSURE_DATA_BYTES] = { BMP180_INIT_VALUE, BMP180_INIT_VALUE, BMP180_INIT_VALUE };
     3bc:	aa01      	add	r2, sp, #4
     3be:	2300      	movs	r3, #0
     3c0:	7013      	strb	r3, [r2, #0]
     3c2:	7053      	strb	r3, [r2, #1]
     3c4:	7093      	strb	r3, [r2, #2]
    u8 v_ctrl_reg_data_u8 = BMP180_INIT_VALUE;
     3c6:	466a      	mov	r2, sp
     3c8:	70d3      	strb	r3, [r2, #3]

    /* used to return the bus communication results*/
    BMP180_RETURN_FUNCTION_TYPE v_com_rslt_s8 = E_BMP_COMM_RES;

    if (p_bmp180->sw_oversamp == BMP180_SW_OVERSAMP_U8X && p_bmp180->oversamp_setting == BMP180_OVERSAMP_SETTING_U8X)
     3ca:	4b44      	ldr	r3, [pc, #272]	; (4dc <bmp180_get_uncomp_pressure+0x12c>)
     3cc:	681b      	ldr	r3, [r3, #0]
     3ce:	4a44      	ldr	r2, [pc, #272]	; (4e0 <bmp180_get_uncomp_pressure+0x130>)
     3d0:	6a59      	ldr	r1, [r3, #36]	; 0x24
     3d2:	4291      	cmp	r1, r2
     3d4:	d00a      	beq.n	3ec <bmp180_get_uncomp_pressure+0x3c>

            /*add up with dummy var*/
        }
        v_up_u32 = v_up_u32 / BMP180_AVERAGE_U8X; /*averaging*/
    }
    else if (p_bmp180->sw_oversamp == BMP180_INITIALIZE_SW_OVERSAMP_U8X)
     3d6:	2126      	movs	r1, #38	; 0x26
     3d8:	5e5a      	ldrsh	r2, [r3, r1]
    u32 v_up_u32 = BMP180_INIT_VALUE;
     3da:	2000      	movs	r0, #0
    else if (p_bmp180->sw_oversamp == BMP180_INITIALIZE_SW_OVERSAMP_U8X)
     3dc:	2a00      	cmp	r2, #0
     3de:	d049      	beq.n	474 <bmp180_get_uncomp_pressure+0xc4>
            p_bmp180->number_of_samples = BMP180_INITIALIZE_NUMBER_OF_SAMPLES_U8X;
        }
    }

    return v_up_u32;
}
     3e0:	b002      	add	sp, #8
     3e2:	bc1c      	pop	{r2, r3, r4}
     3e4:	4690      	mov	r8, r2
     3e6:	4699      	mov	r9, r3
     3e8:	46a2      	mov	sl, r4
     3ea:	bdf0      	pop	{r4, r5, r6, r7, pc}
     3ec:	2403      	movs	r4, #3
     3ee:	2700      	movs	r7, #0
                                 (p_bmp180->oversamp_setting << BMP180_SHIFT_BIT_POSITION_BY_06_BITS);
     3f0:	4d3a      	ldr	r5, [pc, #232]	; (4dc <bmp180_get_uncomp_pressure+0x12c>)
            p_bmp180->delay_msec(BMP180_2MS_DELAY_U8X + (BMP180_3MS_DELAY_U8X << (p_bmp180->oversamp_setting)));
     3f2:	2603      	movs	r6, #3
                          (BMP180_CALCULATE_TRUE_PRESSURE - p_bmp180->oversamp_setting));
     3f4:	46a8      	mov	r8, r5
     3f6:	e003      	b.n	400 <bmp180_get_uncomp_pressure+0x50>
     3f8:	3c01      	subs	r4, #1
     3fa:	b2e4      	uxtb	r4, r4
        for (v_j_u8 = BMP180_INIT_VALUE; v_j_u8 < BMP180_DATA_MEASURE; v_j_u8++)
     3fc:	2c00      	cmp	r4, #0
     3fe:	d034      	beq.n	46a <bmp180_get_uncomp_pressure+0xba>
                                 (p_bmp180->oversamp_setting << BMP180_SHIFT_BIT_POSITION_BY_06_BITS);
     400:	6829      	ldr	r1, [r5, #0]
            v_ctrl_reg_data_u8 = BMP180_P_MEASURE +
     402:	466b      	mov	r3, sp
     404:	1cda      	adds	r2, r3, #3
                                 (p_bmp180->oversamp_setting << BMP180_SHIFT_BIT_POSITION_BY_06_BITS);
     406:	8c8b      	ldrh	r3, [r1, #36]	; 0x24
     408:	019b      	lsls	r3, r3, #6
            v_ctrl_reg_data_u8 = BMP180_P_MEASURE +
     40a:	3334      	adds	r3, #52	; 0x34
     40c:	7013      	strb	r3, [r2, #0]
            v_com_rslt_s8 = p_bmp180->BMP180_BUS_WRITE_FUNC(p_bmp180->dev_addr,
     40e:	7e88      	ldrb	r0, [r1, #26]
     410:	6a8b      	ldr	r3, [r1, #40]	; 0x28
     412:	4699      	mov	r9, r3
     414:	2301      	movs	r3, #1
     416:	21f4      	movs	r1, #244	; 0xf4
     418:	47c8      	blx	r9
     41a:	4681      	mov	r9, r0
            p_bmp180->delay_msec(BMP180_2MS_DELAY_U8X + (BMP180_3MS_DELAY_U8X << (p_bmp180->oversamp_setting)));
     41c:	682b      	ldr	r3, [r5, #0]
     41e:	2124      	movs	r1, #36	; 0x24
     420:	5e5a      	ldrsh	r2, [r3, r1]
     422:	0030      	movs	r0, r6
     424:	4090      	lsls	r0, r2
     426:	3002      	adds	r0, #2
     428:	6b1b      	ldr	r3, [r3, #48]	; 0x30
     42a:	4798      	blx	r3
            v_com_rslt_s8 += p_bmp180->BMP180_BUS_READ_FUNC(p_bmp180->dev_addr,
     42c:	682b      	ldr	r3, [r5, #0]
     42e:	7e98      	ldrb	r0, [r3, #26]
     430:	6adb      	ldr	r3, [r3, #44]	; 0x2c
     432:	469a      	mov	sl, r3
     434:	0033      	movs	r3, r6
     436:	aa01      	add	r2, sp, #4
     438:	21f6      	movs	r1, #246	; 0xf6
     43a:	47d0      	blx	sl
     43c:	4448      	add	r0, r9
            if (v_com_rslt_s8 == 0)
     43e:	b2c0      	uxtb	r0, r0
     440:	2800      	cmp	r0, #0
     442:	d1d9      	bne.n	3f8 <bmp180_get_uncomp_pressure+0x48>
                          (BMP180_CALCULATE_TRUE_PRESSURE - p_bmp180->oversamp_setting));
     444:	4643      	mov	r3, r8
     446:	681a      	ldr	r2, [r3, #0]
                    (u32)((((u32)v_data_u8[BMP180_PRESSURE_MSB_DATA] << BMP180_SHIFT_BIT_POSITION_BY_16_BITS) |
     448:	a901      	add	r1, sp, #4
     44a:	780b      	ldrb	r3, [r1, #0]
     44c:	041b      	lsls	r3, r3, #16
                           ((u32) v_data_u8[BMP180_PRESSURE_LSB_DATA] << BMP180_SHIFT_BIT_POSITION_BY_08_BITS) |
     44e:	7848      	ldrb	r0, [r1, #1]
     450:	0200      	lsls	r0, r0, #8
                    (u32)((((u32)v_data_u8[BMP180_PRESSURE_MSB_DATA] << BMP180_SHIFT_BIT_POSITION_BY_16_BITS) |
     452:	4303      	orrs	r3, r0
                           (u32) v_data_u8[BMP180_PRESSURE_XLSB_DATA]) >>
     454:	7889      	ldrb	r1, [r1, #2]
                           ((u32) v_data_u8[BMP180_PRESSURE_LSB_DATA] << BMP180_SHIFT_BIT_POSITION_BY_08_BITS) |
     456:	430b      	orrs	r3, r1
                          (BMP180_CALCULATE_TRUE_PRESSURE - p_bmp180->oversamp_setting));
     458:	2124      	movs	r1, #36	; 0x24
     45a:	5e50      	ldrsh	r0, [r2, r1]
     45c:	2108      	movs	r1, #8
     45e:	1a09      	subs	r1, r1, r0
                v_sum_u32 =
     460:	40cb      	lsrs	r3, r1
                p_bmp180->number_of_samples = BMP180_INITIALIZE_NUMBER_OF_SAMPLES_U8X;
     462:	2101      	movs	r1, #1
     464:	6211      	str	r1, [r2, #32]
                v_up_u32 = v_up_u32 + v_sum_u32;
     466:	18ff      	adds	r7, r7, r3
     468:	e7c6      	b.n	3f8 <bmp180_get_uncomp_pressure+0x48>
        v_up_u32 = v_up_u32 / BMP180_AVERAGE_U8X; /*averaging*/
     46a:	2103      	movs	r1, #3
     46c:	0038      	movs	r0, r7
     46e:	4b1d      	ldr	r3, [pc, #116]	; (4e4 <bmp180_get_uncomp_pressure+0x134>)
     470:	4798      	blx	r3
     472:	e7b5      	b.n	3e0 <bmp180_get_uncomp_pressure+0x30>
        v_ctrl_reg_data_u8 = BMP180_P_MEASURE + (p_bmp180->oversamp_setting << BMP180_SHIFT_BIT_POSITION_BY_06_BITS);
     474:	466a      	mov	r2, sp
     476:	3203      	adds	r2, #3
     478:	8c99      	ldrh	r1, [r3, #36]	; 0x24
     47a:	0189      	lsls	r1, r1, #6
     47c:	3134      	adds	r1, #52	; 0x34
     47e:	7011      	strb	r1, [r2, #0]
        v_com_rslt_s8 = p_bmp180->BMP180_BUS_WRITE_FUNC(p_bmp180->dev_addr,
     480:	7e98      	ldrb	r0, [r3, #26]
     482:	6a9c      	ldr	r4, [r3, #40]	; 0x28
     484:	2301      	movs	r3, #1
     486:	21f4      	movs	r1, #244	; 0xf4
     488:	47a0      	blx	r4
     48a:	0005      	movs	r5, r0
        p_bmp180->delay_msec(BMP180_2MS_DELAY_U8X + (BMP180_3MS_DELAY_U8X << (p_bmp180->oversamp_setting)));
     48c:	4c13      	ldr	r4, [pc, #76]	; (4dc <bmp180_get_uncomp_pressure+0x12c>)
     48e:	6823      	ldr	r3, [r4, #0]
     490:	2124      	movs	r1, #36	; 0x24
     492:	5e5a      	ldrsh	r2, [r3, r1]
     494:	2003      	movs	r0, #3
     496:	4090      	lsls	r0, r2
     498:	3002      	adds	r0, #2
     49a:	6b1b      	ldr	r3, [r3, #48]	; 0x30
     49c:	4798      	blx	r3
        v_com_rslt_s8 += p_bmp180->BMP180_BUS_READ_FUNC(p_bmp180->dev_addr,
     49e:	6823      	ldr	r3, [r4, #0]
     4a0:	7e98      	ldrb	r0, [r3, #26]
     4a2:	6adc      	ldr	r4, [r3, #44]	; 0x2c
     4a4:	2303      	movs	r3, #3
     4a6:	aa01      	add	r2, sp, #4
     4a8:	21f6      	movs	r1, #246	; 0xf6
     4aa:	47a0      	blx	r4
     4ac:	1940      	adds	r0, r0, r5
        if (v_com_rslt_s8 == 0)
     4ae:	b2c3      	uxtb	r3, r0
    u32 v_up_u32 = BMP180_INIT_VALUE;
     4b0:	2000      	movs	r0, #0
        if (v_com_rslt_s8 == 0)
     4b2:	2b00      	cmp	r3, #0
     4b4:	d194      	bne.n	3e0 <bmp180_get_uncomp_pressure+0x30>
                      (BMP180_CALCULATE_TRUE_PRESSURE - p_bmp180->oversamp_setting));
     4b6:	4b09      	ldr	r3, [pc, #36]	; (4dc <bmp180_get_uncomp_pressure+0x12c>)
     4b8:	6819      	ldr	r1, [r3, #0]
                (u32)((((u32)v_data_u8[BMP180_PRESSURE_MSB_DATA] << BMP180_SHIFT_BIT_POSITION_BY_16_BITS) |
     4ba:	ab01      	add	r3, sp, #4
     4bc:	7818      	ldrb	r0, [r3, #0]
     4be:	0400      	lsls	r0, r0, #16
                       ((u32) v_data_u8[BMP180_PRESSURE_LSB_DATA] << BMP180_SHIFT_BIT_POSITION_BY_08_BITS) |
     4c0:	785a      	ldrb	r2, [r3, #1]
     4c2:	0212      	lsls	r2, r2, #8
                (u32)((((u32)v_data_u8[BMP180_PRESSURE_MSB_DATA] << BMP180_SHIFT_BIT_POSITION_BY_16_BITS) |
     4c4:	4310      	orrs	r0, r2
                       (u32) v_data_u8[BMP180_PRESSURE_XLSB_DATA]) >>
     4c6:	789b      	ldrb	r3, [r3, #2]
                       ((u32) v_data_u8[BMP180_PRESSURE_LSB_DATA] << BMP180_SHIFT_BIT_POSITION_BY_08_BITS) |
     4c8:	4318      	orrs	r0, r3
                      (BMP180_CALCULATE_TRUE_PRESSURE - p_bmp180->oversamp_setting));
     4ca:	2324      	movs	r3, #36	; 0x24
     4cc:	5eca      	ldrsh	r2, [r1, r3]
     4ce:	2308      	movs	r3, #8
     4d0:	1a9b      	subs	r3, r3, r2
            v_up_u32 =
     4d2:	40d8      	lsrs	r0, r3
            p_bmp180->number_of_samples = BMP180_INITIALIZE_NUMBER_OF_SAMPLES_U8X;
     4d4:	2301      	movs	r3, #1
     4d6:	620b      	str	r3, [r1, #32]
     4d8:	e782      	b.n	3e0 <bmp180_get_uncomp_pressure+0x30>
     4da:	46c0      	nop			; (mov r8, r8)
     4dc:	200009cc 	.word	0x200009cc
     4e0:	00010003 	.word	0x00010003
     4e4:	000029b1 	.word	0x000029b1

000004e8 <bmp180_read_temperature>:
/*  USER Function for Microchip SAM devices based on ASF4 */
/************************************************************************/

/* read the temperature and return it as a float in Celsius */
float bmp180_read_temperature(void)
{
     4e8:	b510      	push	{r4, lr}
	u16 v_uncomp_temp_u16 = BMP180_INIT_VALUE;
	u16 v_comp_temp_u16	  = BMP180_INIT_VALUE;
	v_uncomp_temp_u16=bmp180_get_uncomp_temperature();
     4ea:	4b07      	ldr	r3, [pc, #28]	; (508 <bmp180_read_temperature+0x20>)
     4ec:	4798      	blx	r3
	v_comp_temp_u16	 =bmp180_get_temperature(v_uncomp_temp_u16);
     4ee:	4b07      	ldr	r3, [pc, #28]	; (50c <bmp180_read_temperature+0x24>)
     4f0:	4798      	blx	r3
	return v_comp_temp_u16 / 10.0;
     4f2:	b280      	uxth	r0, r0
     4f4:	4b06      	ldr	r3, [pc, #24]	; (510 <bmp180_read_temperature+0x28>)
     4f6:	4798      	blx	r3
     4f8:	4a06      	ldr	r2, [pc, #24]	; (514 <bmp180_read_temperature+0x2c>)
     4fa:	4b07      	ldr	r3, [pc, #28]	; (518 <bmp180_read_temperature+0x30>)
     4fc:	4c07      	ldr	r4, [pc, #28]	; (51c <bmp180_read_temperature+0x34>)
     4fe:	47a0      	blx	r4
     500:	4b07      	ldr	r3, [pc, #28]	; (520 <bmp180_read_temperature+0x38>)
     502:	4798      	blx	r3
}
     504:	bd10      	pop	{r4, pc}
     506:	46c0      	nop			; (mov r8, r8)
     508:	00000355 	.word	0x00000355
     50c:	00000249 	.word	0x00000249
     510:	00004ecd 	.word	0x00004ecd
     514:	9999999a 	.word	0x9999999a
     518:	3fb99999 	.word	0x3fb99999
     51c:	000042f9 	.word	0x000042f9
     520:	00005065 	.word	0x00005065

00000524 <bmp180_read_pressure>:

/*read the atmosphere pressure and return it in pa */
u32   bmp180_read_pressure(void)
{
     524:	b510      	push	{r4, lr}
	    u32 v_uncomp_press_u32 = BMP180_INIT_VALUE;
	    u32 v_comp_press_u32 = BMP180_INIT_VALUE;
		v_uncomp_press_u32 = bmp180_get_uncomp_pressure();
     526:	4b02      	ldr	r3, [pc, #8]	; (530 <bmp180_read_pressure+0xc>)
     528:	4798      	blx	r3
		v_comp_press_u32=bmp180_get_pressure(v_uncomp_press_u32);
     52a:	4b02      	ldr	r3, [pc, #8]	; (534 <bmp180_read_pressure+0x10>)
     52c:	4798      	blx	r3
		return v_comp_press_u32;
}
     52e:	bd10      	pop	{r4, pc}
     530:	000003b1 	.word	0x000003b1
     534:	00000289 	.word	0x00000289

00000538 <bmp180_read_SeaLevelPressure>:
/*Converts current pressure to sea level pressure at specific true altitude, in Pa
	ref:https://github.com/enjoyneering/BMP180
 */
u32   bmp180_read_SeaLevelPressure(u32 realAltitude)
{
     538:	b570      	push	{r4, r5, r6, lr}
     53a:	0004      	movs	r4, r0
	u32 pressure = bmp180_read_pressure();
     53c:	4b10      	ldr	r3, [pc, #64]	; (580 <bmp180_read_SeaLevelPressure+0x48>)
     53e:	4798      	blx	r3
     540:	0006      	movs	r6, r0
	return (pressure / pow(1.0 - (float)realAltitude / 44330, 5.255));
     542:	0020      	movs	r0, r4
     544:	4b0f      	ldr	r3, [pc, #60]	; (584 <bmp180_read_SeaLevelPressure+0x4c>)
     546:	4798      	blx	r3
     548:	490f      	ldr	r1, [pc, #60]	; (588 <bmp180_read_SeaLevelPressure+0x50>)
     54a:	4b10      	ldr	r3, [pc, #64]	; (58c <bmp180_read_SeaLevelPressure+0x54>)
     54c:	4798      	blx	r3
     54e:	4b10      	ldr	r3, [pc, #64]	; (590 <bmp180_read_SeaLevelPressure+0x58>)
     550:	4798      	blx	r3
     552:	0002      	movs	r2, r0
     554:	000b      	movs	r3, r1
     556:	2000      	movs	r0, #0
     558:	490e      	ldr	r1, [pc, #56]	; (594 <bmp180_read_SeaLevelPressure+0x5c>)
     55a:	4c0f      	ldr	r4, [pc, #60]	; (598 <bmp180_read_SeaLevelPressure+0x60>)
     55c:	47a0      	blx	r4
     55e:	4a0f      	ldr	r2, [pc, #60]	; (59c <bmp180_read_SeaLevelPressure+0x64>)
     560:	4b0f      	ldr	r3, [pc, #60]	; (5a0 <bmp180_read_SeaLevelPressure+0x68>)
     562:	4c10      	ldr	r4, [pc, #64]	; (5a4 <bmp180_read_SeaLevelPressure+0x6c>)
     564:	47a0      	blx	r4
     566:	0004      	movs	r4, r0
     568:	000d      	movs	r5, r1
     56a:	0030      	movs	r0, r6
     56c:	4b0e      	ldr	r3, [pc, #56]	; (5a8 <bmp180_read_SeaLevelPressure+0x70>)
     56e:	4798      	blx	r3
     570:	0022      	movs	r2, r4
     572:	002b      	movs	r3, r5
     574:	4c0d      	ldr	r4, [pc, #52]	; (5ac <bmp180_read_SeaLevelPressure+0x74>)
     576:	47a0      	blx	r4
     578:	4b0d      	ldr	r3, [pc, #52]	; (5b0 <bmp180_read_SeaLevelPressure+0x78>)
     57a:	4798      	blx	r3
}
     57c:	bd70      	pop	{r4, r5, r6, pc}
     57e:	46c0      	nop			; (mov r8, r8)
     580:	00000525 	.word	0x00000525
     584:	000033e5 	.word	0x000033e5
     588:	37bd3b20 	.word	0x37bd3b20
     58c:	000031a5 	.word	0x000031a5
     590:	00004fc1 	.word	0x00004fc1
     594:	3ff00000 	.word	0x3ff00000
     598:	000047f9 	.word	0x000047f9
     59c:	b851eb85 	.word	0xb851eb85
     5a0:	c015051e 	.word	0xc015051e
     5a4:	000017dd 	.word	0x000017dd
     5a8:	00004f51 	.word	0x00004f51
     5ac:	000042f9 	.word	0x000042f9
     5b0:	00002d59 	.word	0x00002d59

000005b4 <bmp180_get_AltitudeFromPressure>:

/*get the Altitude from the pressure based on the sea level & sensor pressure  */
u32   bmp180_get_AltitudeFromPressure(float seaLevel, float atmospheric)
{
     5b4:	b510      	push	{r4, lr}
     5b6:	1c0b      	adds	r3, r1, #0
	/*
		this function has been taken from adafruit BMP180 library 
		https://github.com/adafruit/Adafruit_BMP085_Unified/blob/master/Adafruit_BMP085_U.cpp
	*/
	return 44330.0 * (1.0 - pow(atmospheric / seaLevel, 0.1903));
     5b8:	1c01      	adds	r1, r0, #0
     5ba:	1c18      	adds	r0, r3, #0
     5bc:	4b0a      	ldr	r3, [pc, #40]	; (5e8 <bmp180_get_AltitudeFromPressure+0x34>)
     5be:	4798      	blx	r3
     5c0:	4b0a      	ldr	r3, [pc, #40]	; (5ec <bmp180_get_AltitudeFromPressure+0x38>)
     5c2:	4798      	blx	r3
     5c4:	4a0a      	ldr	r2, [pc, #40]	; (5f0 <bmp180_get_AltitudeFromPressure+0x3c>)
     5c6:	4b0b      	ldr	r3, [pc, #44]	; (5f4 <bmp180_get_AltitudeFromPressure+0x40>)
     5c8:	4c0b      	ldr	r4, [pc, #44]	; (5f8 <bmp180_get_AltitudeFromPressure+0x44>)
     5ca:	47a0      	blx	r4
     5cc:	0002      	movs	r2, r0
     5ce:	000b      	movs	r3, r1
     5d0:	2000      	movs	r0, #0
     5d2:	490a      	ldr	r1, [pc, #40]	; (5fc <bmp180_get_AltitudeFromPressure+0x48>)
     5d4:	4c0a      	ldr	r4, [pc, #40]	; (600 <bmp180_get_AltitudeFromPressure+0x4c>)
     5d6:	47a0      	blx	r4
     5d8:	2200      	movs	r2, #0
     5da:	4b0a      	ldr	r3, [pc, #40]	; (604 <bmp180_get_AltitudeFromPressure+0x50>)
     5dc:	4c0a      	ldr	r4, [pc, #40]	; (608 <bmp180_get_AltitudeFromPressure+0x54>)
     5de:	47a0      	blx	r4
     5e0:	4b0a      	ldr	r3, [pc, #40]	; (60c <bmp180_get_AltitudeFromPressure+0x58>)
     5e2:	4798      	blx	r3
     5e4:	bd10      	pop	{r4, pc}
     5e6:	46c0      	nop			; (mov r8, r8)
     5e8:	00002f15 	.word	0x00002f15
     5ec:	00004fc1 	.word	0x00004fc1
     5f0:	1a36e2eb 	.word	0x1a36e2eb
     5f4:	3fc85bc0 	.word	0x3fc85bc0
     5f8:	000017dd 	.word	0x000017dd
     5fc:	3ff00000 	.word	0x3ff00000
     600:	000047f9 	.word	0x000047f9
     604:	40e5a540 	.word	0x40e5a540
     608:	000042f9 	.word	0x000042f9
     60c:	00002d59 	.word	0x00002d59

00000610 <BMP180_I2C_bus_write>:
 *  \param reg_data : It is a value hold in the array,
 *      will be used for write the value into the register
 *  \param cnt : The no of byte of data to be write
 */
s8 BMP180_I2C_bus_write(u8 dev_addr, u8 reg_addr, u8 *reg_data, u8 cnt)
{
     610:	b5b0      	push	{r4, r5, r7, lr}
     612:	b084      	sub	sp, #16
     614:	af00      	add	r7, sp, #0
    s32 iError = BMP180_INIT_VALUE;
	struct _i2c_m_msg msg;
	const uint8_t buf_size=cnt+1;
     616:	1c5c      	adds	r4, r3, #1
     618:	b2e4      	uxtb	r4, r4
	uint8_t transfer_buf[buf_size];
     61a:	1de0      	adds	r0, r4, #7
     61c:	08c0      	lsrs	r0, r0, #3
     61e:	00c0      	lsls	r0, r0, #3
     620:	466d      	mov	r5, sp
     622:	1a28      	subs	r0, r5, r0
     624:	4685      	mov	sp, r0
     626:	466d      	mov	r5, sp
	transfer_buf[0]=reg_addr;
     628:	7029      	strb	r1, [r5, #0]
	for (uint8_t count=1;count<buf_size;count++)
     62a:	2c01      	cmp	r4, #1
     62c:	d90b      	bls.n	646 <BMP180_I2C_bus_write+0x36>
     62e:	0011      	movs	r1, r2
     630:	1c68      	adds	r0, r5, #1
     632:	3b01      	subs	r3, #1
     634:	b2db      	uxtb	r3, r3
     636:	3301      	adds	r3, #1
     638:	18d2      	adds	r2, r2, r3
	{
		transfer_buf[count]=reg_data[count-1];
     63a:	780b      	ldrb	r3, [r1, #0]
     63c:	7003      	strb	r3, [r0, #0]
     63e:	3101      	adds	r1, #1
     640:	3001      	adds	r0, #1
	for (uint8_t count=1;count<buf_size;count++)
     642:	4291      	cmp	r1, r2
     644:	d1f9      	bne.n	63a <BMP180_I2C_bus_write+0x2a>
	}
	msg.addr   = I2C_0.slave_addr;//i2c->slave_addr;
     646:	4807      	ldr	r0, [pc, #28]	; (664 <BMP180_I2C_bus_write+0x54>)
     648:	8b83      	ldrh	r3, [r0, #28]
     64a:	80bb      	strh	r3, [r7, #4]
	msg.len    = buf_size;
     64c:	60bc      	str	r4, [r7, #8]
	msg.flags  = I2C_M_STOP;
     64e:	4b06      	ldr	r3, [pc, #24]	; (668 <BMP180_I2C_bus_write+0x58>)
     650:	80fb      	strh	r3, [r7, #6]
	msg.buffer = transfer_buf;
     652:	60fd      	str	r5, [r7, #12]
	#if I2C_bus_driver == I2C_sync_driver
		iError = _i2c_m_sync_transfer(&I2C_0.device, &msg);
     654:	1d39      	adds	r1, r7, #4
     656:	4b05      	ldr	r3, [pc, #20]	; (66c <BMP180_I2C_bus_write+0x5c>)
     658:	4798      	blx	r3
     * This is a full duplex operation,
     * The first read data is discarded, for that extra write operation
     * have to be initiated. For that cnt+C_BMP180_ONE_U8X operation done in the I2C write string function
     * For more information please refer data sheet SPI communication:
     */
    return (s8)iError;
     65a:	b240      	sxtb	r0, r0
}
     65c:	46bd      	mov	sp, r7
     65e:	b004      	add	sp, #16
     660:	bdb0      	pop	{r4, r5, r7, pc}
     662:	46c0      	nop			; (mov r8, r8)
     664:	20000a50 	.word	0x20000a50
     668:	ffff8000 	.word	0xffff8000
     66c:	00001011 	.word	0x00001011

00000670 <BMP180_I2C_bus_read>:
 *  \param reg_addr : Address of the first register, will data is going to be read
 *  \param reg_data : This data read from the sensor, which is hold in an array
 *  \param cnt : The no of byte of data to be read
 */
s8 BMP180_I2C_bus_read(u8 dev_addr, u8 reg_addr, u8 *reg_data, u8 cnt)
{
     670:	b510      	push	{r4, lr}
     * Please select your valid return value
     * In the driver SUCCESS defined as BMP180_INIT_VALUE
     * and FAILURE defined as -C_BMP180_ONE_U8X
     */
	#if I2C_bus_driver == I2C_sync_driver
	iError=i2c_m_sync_cmd_read(&I2C_0,reg_addr,reg_data,cnt);
     672:	4802      	ldr	r0, [pc, #8]	; (67c <BMP180_I2C_bus_read+0xc>)
     674:	4c02      	ldr	r4, [pc, #8]	; (680 <BMP180_I2C_bus_read+0x10>)
     676:	47a0      	blx	r4
    for (stringpos = BMP180_INIT_VALUE; stringpos < cnt; stringpos++)
    {
        *(reg_data + stringpos) = array[stringpos];
    }
	*/
    return (s8)iError;
     678:	b240      	sxtb	r0, r0
}
     67a:	bd10      	pop	{r4, pc}
     67c:	20000a50 	.word	0x20000a50
     680:	00000a7d 	.word	0x00000a7d

00000684 <BMP180_delay_msek>:

/*  Brief : The delay routine
 *  \param : delay in ms
 */
void BMP180_delay_msek(u32 msek)
{
     684:	b510      	push	{r4, lr}
    /*Here you can write your own delay routine*/
	delay_ms(msek);
     686:	b280      	uxth	r0, r0
     688:	4b01      	ldr	r3, [pc, #4]	; (690 <BMP180_delay_msek+0xc>)
     68a:	4798      	blx	r3
}
     68c:	bd10      	pop	{r4, pc}
     68e:	46c0      	nop			; (mov r8, r8)
     690:	0000099d 	.word	0x0000099d

00000694 <I2C_routine>:
    bmp180.bus_write = BMP180_I2C_bus_write;
     694:	4b05      	ldr	r3, [pc, #20]	; (6ac <I2C_routine+0x18>)
     696:	4a06      	ldr	r2, [pc, #24]	; (6b0 <I2C_routine+0x1c>)
     698:	629a      	str	r2, [r3, #40]	; 0x28
    bmp180.bus_read = BMP180_I2C_bus_read;
     69a:	4a06      	ldr	r2, [pc, #24]	; (6b4 <I2C_routine+0x20>)
     69c:	62da      	str	r2, [r3, #44]	; 0x2c
    bmp180.dev_addr = BMP180_I2C_ADDR;
     69e:	2277      	movs	r2, #119	; 0x77
     6a0:	769a      	strb	r2, [r3, #26]
    bmp180.delay_msec = BMP180_delay_msek;
     6a2:	4a05      	ldr	r2, [pc, #20]	; (6b8 <I2C_routine+0x24>)
     6a4:	631a      	str	r2, [r3, #48]	; 0x30
}
     6a6:	2000      	movs	r0, #0
     6a8:	4770      	bx	lr
     6aa:	46c0      	nop			; (mov r8, r8)
     6ac:	20000a10 	.word	0x20000a10
     6b0:	00000611 	.word	0x00000611
     6b4:	00000671 	.word	0x00000671
     6b8:	00000685 	.word	0x00000685

000006bc <bmp180_sensor_Initi>:

/*from User function for Microchip SAM devices */

u8    bmp180_sensor_Initi()
{
     6bc:	b510      	push	{r4, lr}
	    /* result of communication results*/
    s32 com_rslt = E_BMP_COMM_RES;
    /*********************** START INITIALIZATION ************************/
    /**************Call the I2C init routine ***************/
     I2C_routine();
     6be:	4b05      	ldr	r3, [pc, #20]	; (6d4 <bmp180_sensor_Initi+0x18>)
     6c0:	4798      	blx	r3
     *  Bus Write
     *  Bus read
     *  Chip id
     *  Calibration values
     * -------------------------------------------------------------------------*/
    com_rslt = bmp180_init(&bmp180);
     6c2:	4805      	ldr	r0, [pc, #20]	; (6d8 <bmp180_sensor_Initi+0x1c>)
     6c4:	4b05      	ldr	r3, [pc, #20]	; (6dc <bmp180_sensor_Initi+0x20>)
     6c6:	4798      	blx	r3
     6c8:	0004      	movs	r4, r0
     *      B1          0xB6    0xB7    0 to 7
     *      B2          0xB8    0xB9    0 to 7
     *      MB          0xBA    0xBB    0 to 7
     *      MC          0xBC    0xBD    0 to 7
     *      MD          0xBE    0xBF    0 to 7*/
    com_rslt += bmp180_get_calib_param();
     6ca:	4b05      	ldr	r3, [pc, #20]	; (6e0 <bmp180_sensor_Initi+0x24>)
     6cc:	4798      	blx	r3
     6ce:	1900      	adds	r0, r0, r4

    /*------------------------------------------------------------------*
     ************************* END CALIPRATION ********
     *---------------------------------------------------------------------*/
    return com_rslt;
     6d0:	b2c0      	uxtb	r0, r0
}
     6d2:	bd10      	pop	{r4, pc}
     6d4:	00000695 	.word	0x00000695
     6d8:	20000a10 	.word	0x20000a10
     6dc:	000001e9 	.word	0x000001e9
     6e0:	00000129 	.word	0x00000129

000006e4 <Dummy_Handler>:

/**
 * \brief Default interrupt handler for unused IRQs.
 */
void Dummy_Handler(void)
{
     6e4:	e7fe      	b.n	6e4 <Dummy_Handler>
	...

000006e8 <Reset_Handler>:
{
     6e8:	b5f8      	push	{r3, r4, r5, r6, r7, lr}
        if (pSrc != pDest) {
     6ea:	4a2a      	ldr	r2, [pc, #168]	; (794 <Reset_Handler+0xac>)
     6ec:	4b2a      	ldr	r3, [pc, #168]	; (798 <Reset_Handler+0xb0>)
     6ee:	429a      	cmp	r2, r3
     6f0:	d011      	beq.n	716 <Reset_Handler+0x2e>
                for (; pDest < &_erelocate;) {
     6f2:	001a      	movs	r2, r3
     6f4:	4b29      	ldr	r3, [pc, #164]	; (79c <Reset_Handler+0xb4>)
     6f6:	429a      	cmp	r2, r3
     6f8:	d20d      	bcs.n	716 <Reset_Handler+0x2e>
     6fa:	4a29      	ldr	r2, [pc, #164]	; (7a0 <Reset_Handler+0xb8>)
     6fc:	3303      	adds	r3, #3
     6fe:	1a9b      	subs	r3, r3, r2
     700:	089b      	lsrs	r3, r3, #2
     702:	3301      	adds	r3, #1
     704:	009b      	lsls	r3, r3, #2
     706:	2200      	movs	r2, #0
                        *pDest++ = *pSrc++;
     708:	4823      	ldr	r0, [pc, #140]	; (798 <Reset_Handler+0xb0>)
     70a:	4922      	ldr	r1, [pc, #136]	; (794 <Reset_Handler+0xac>)
     70c:	588c      	ldr	r4, [r1, r2]
     70e:	5084      	str	r4, [r0, r2]
     710:	3204      	adds	r2, #4
                for (; pDest < &_erelocate;) {
     712:	429a      	cmp	r2, r3
     714:	d1fa      	bne.n	70c <Reset_Handler+0x24>
        for (pDest = &_szero; pDest < &_ezero;) {
     716:	4a23      	ldr	r2, [pc, #140]	; (7a4 <Reset_Handler+0xbc>)
     718:	4b23      	ldr	r3, [pc, #140]	; (7a8 <Reset_Handler+0xc0>)
     71a:	429a      	cmp	r2, r3
     71c:	d20a      	bcs.n	734 <Reset_Handler+0x4c>
     71e:	43d3      	mvns	r3, r2
     720:	4921      	ldr	r1, [pc, #132]	; (7a8 <Reset_Handler+0xc0>)
     722:	185b      	adds	r3, r3, r1
     724:	2103      	movs	r1, #3
     726:	438b      	bics	r3, r1
     728:	3304      	adds	r3, #4
     72a:	189b      	adds	r3, r3, r2
                *pDest++ = 0;
     72c:	2100      	movs	r1, #0
     72e:	c202      	stmia	r2!, {r1}
        for (pDest = &_szero; pDest < &_ezero;) {
     730:	4293      	cmp	r3, r2
     732:	d1fc      	bne.n	72e <Reset_Handler+0x46>
        SCB->VTOR = ((uint32_t) pSrc & SCB_VTOR_TBLOFF_Msk);
     734:	4a1d      	ldr	r2, [pc, #116]	; (7ac <Reset_Handler+0xc4>)
     736:	21ff      	movs	r1, #255	; 0xff
     738:	4b1d      	ldr	r3, [pc, #116]	; (7b0 <Reset_Handler+0xc8>)
     73a:	438b      	bics	r3, r1
     73c:	6093      	str	r3, [r2, #8]
        SBMATRIX->SFR[SBMATRIX_SLAVE_HMCRAMC0].reg = 2;
     73e:	39fd      	subs	r1, #253	; 0xfd
     740:	2390      	movs	r3, #144	; 0x90
     742:	005b      	lsls	r3, r3, #1
     744:	4a1b      	ldr	r2, [pc, #108]	; (7b4 <Reset_Handler+0xcc>)
     746:	50d1      	str	r1, [r2, r3]
        USB->DEVICE.QOSCTRL.bit.CQOS = 2;
     748:	4a1b      	ldr	r2, [pc, #108]	; (7b8 <Reset_Handler+0xd0>)
     74a:	78d3      	ldrb	r3, [r2, #3]
     74c:	2503      	movs	r5, #3
     74e:	43ab      	bics	r3, r5
     750:	2402      	movs	r4, #2
     752:	4323      	orrs	r3, r4
     754:	70d3      	strb	r3, [r2, #3]
        USB->DEVICE.QOSCTRL.bit.DQOS = 2;
     756:	78d3      	ldrb	r3, [r2, #3]
     758:	270c      	movs	r7, #12
     75a:	43bb      	bics	r3, r7
     75c:	2608      	movs	r6, #8
     75e:	4333      	orrs	r3, r6
     760:	70d3      	strb	r3, [r2, #3]
        DMAC->QOSCTRL.bit.DQOS = 2;
     762:	4b16      	ldr	r3, [pc, #88]	; (7bc <Reset_Handler+0xd4>)
     764:	7b98      	ldrb	r0, [r3, #14]
     766:	2230      	movs	r2, #48	; 0x30
     768:	4390      	bics	r0, r2
     76a:	2220      	movs	r2, #32
     76c:	4310      	orrs	r0, r2
     76e:	7398      	strb	r0, [r3, #14]
        DMAC->QOSCTRL.bit.FQOS = 2;
     770:	7b99      	ldrb	r1, [r3, #14]
     772:	43b9      	bics	r1, r7
     774:	4331      	orrs	r1, r6
     776:	7399      	strb	r1, [r3, #14]
        DMAC->QOSCTRL.bit.WRBQOS = 2;
     778:	7b9a      	ldrb	r2, [r3, #14]
     77a:	43aa      	bics	r2, r5
     77c:	4322      	orrs	r2, r4
     77e:	739a      	strb	r2, [r3, #14]
        NVMCTRL->CTRLB.bit.MANW = 1;
     780:	4a0f      	ldr	r2, [pc, #60]	; (7c0 <Reset_Handler+0xd8>)
     782:	6853      	ldr	r3, [r2, #4]
     784:	2180      	movs	r1, #128	; 0x80
     786:	430b      	orrs	r3, r1
     788:	6053      	str	r3, [r2, #4]
        __libc_init_array();
     78a:	4b0e      	ldr	r3, [pc, #56]	; (7c4 <Reset_Handler+0xdc>)
     78c:	4798      	blx	r3
        main();
     78e:	4b0e      	ldr	r3, [pc, #56]	; (7c8 <Reset_Handler+0xe0>)
     790:	4798      	blx	r3
     792:	e7fe      	b.n	792 <Reset_Handler+0xaa>
     794:	0000a77c 	.word	0x0000a77c
     798:	20000000 	.word	0x20000000
     79c:	200009b0 	.word	0x200009b0
     7a0:	20000004 	.word	0x20000004
     7a4:	200009b0 	.word	0x200009b0
     7a8:	20000a98 	.word	0x20000a98
     7ac:	e000ed00 	.word	0xe000ed00
     7b0:	00000000 	.word	0x00000000
     7b4:	41007000 	.word	0x41007000
     7b8:	41005000 	.word	0x41005000
     7bc:	41004800 	.word	0x41004800
     7c0:	41004000 	.word	0x41004000
     7c4:	000051d9 	.word	0x000051d9
     7c8:	00001605 	.word	0x00001605

000007cc <I2C_0_PORT_init>:
struct i2c_m_sync_desc I2C_0;

struct usart_sync_descriptor TARGET_IO;

void I2C_0_PORT_init(void)
{
     7cc:	b570      	push	{r4, r5, r6, lr}
}

static inline void hri_port_clear_PINCFG_PULLEN_bit(const void *const hw, uint8_t submodule_index, uint8_t index)
{
	PORT_CRITICAL_SECTION_ENTER();
	((Port *)hw)->Group[submodule_index].PINCFG[index].reg &= ~PORT_PINCFG_PULLEN;
     7ce:	4b12      	ldr	r3, [pc, #72]	; (818 <I2C_0_PORT_init+0x4c>)
     7d0:	2048      	movs	r0, #72	; 0x48
     7d2:	5c19      	ldrb	r1, [r3, r0]
     7d4:	2204      	movs	r2, #4
     7d6:	4391      	bics	r1, r2
     7d8:	5419      	strb	r1, [r3, r0]
	tmp = ((Port *)hw)->Group[submodule_index].PINCFG[index].reg;
     7da:	5c19      	ldrb	r1, [r3, r0]
	tmp &= ~PORT_PINCFG_PMUXEN;
     7dc:	2501      	movs	r5, #1
     7de:	43a9      	bics	r1, r5
	tmp |= value << PORT_PINCFG_PMUXEN_Pos;
     7e0:	2401      	movs	r4, #1
     7e2:	4321      	orrs	r1, r4
     7e4:	b2c9      	uxtb	r1, r1
	((Port *)hw)->Group[submodule_index].PINCFG[index].reg = tmp;
     7e6:	5419      	strb	r1, [r3, r0]
	tmp = ((Port *)hw)->Group[submodule_index].PMUX[index].reg;
     7e8:	3814      	subs	r0, #20
     7ea:	5c19      	ldrb	r1, [r3, r0]
	tmp &= ~PORT_PMUX_PMUXE_Msk;
     7ec:	260f      	movs	r6, #15
     7ee:	43b1      	bics	r1, r6
	tmp |= PORT_PMUX_PMUXE(data);
     7f0:	3e0d      	subs	r6, #13
     7f2:	4331      	orrs	r1, r6
	((Port *)hw)->Group[submodule_index].PMUX[index].reg = tmp;
     7f4:	5419      	strb	r1, [r3, r0]
	((Port *)hw)->Group[submodule_index].PINCFG[index].reg &= ~PORT_PINCFG_PULLEN;
     7f6:	2149      	movs	r1, #73	; 0x49
     7f8:	5c5e      	ldrb	r6, [r3, r1]
     7fa:	4396      	bics	r6, r2
     7fc:	545e      	strb	r6, [r3, r1]
	tmp = ((Port *)hw)->Group[submodule_index].PINCFG[index].reg;
     7fe:	5c5a      	ldrb	r2, [r3, r1]
	tmp &= ~PORT_PINCFG_PMUXEN;
     800:	43aa      	bics	r2, r5
	tmp |= value << PORT_PINCFG_PMUXEN_Pos;
     802:	4322      	orrs	r2, r4
     804:	b2d2      	uxtb	r2, r2
	((Port *)hw)->Group[submodule_index].PINCFG[index].reg = tmp;
     806:	545a      	strb	r2, [r3, r1]
	tmp = ((Port *)hw)->Group[submodule_index].PMUX[index].reg;
     808:	5c1a      	ldrb	r2, [r3, r0]
	tmp &= ~PORT_PMUX_PMUXO_Msk;
     80a:	393a      	subs	r1, #58	; 0x3a
     80c:	400a      	ands	r2, r1
	tmp |= PORT_PMUX_PMUXO(data);
     80e:	3111      	adds	r1, #17
     810:	430a      	orrs	r2, r1
	((Port *)hw)->Group[submodule_index].PMUX[index].reg = tmp;
     812:	541a      	strb	r2, [r3, r0]
	                       // <GPIO_PULL_UP"> Pull-up
	                       // <GPIO_PULL_DOWN"> Pull-down
	                       GPIO_PULL_OFF);

	gpio_set_pin_function(PA09, PINMUX_PA09C_SERCOM0_PAD1);
}
     814:	bd70      	pop	{r4, r5, r6, pc}
     816:	46c0      	nop			; (mov r8, r8)
     818:	41004400 	.word	0x41004400

0000081c <I2C_0_CLOCK_init>:
			peripheral = (uint32_t)_pm_get_apbb_index(module);
			PM->APBBMASK.reg |= 1 << peripheral;
		}
		break;
	case PM_BUS_APBC:
		PM->APBCMASK.reg |= 1 << peripheral;
     81c:	4a05      	ldr	r2, [pc, #20]	; (834 <I2C_0_CLOCK_init+0x18>)
     81e:	6a13      	ldr	r3, [r2, #32]
     820:	2104      	movs	r1, #4
     822:	430b      	orrs	r3, r1
     824:	6213      	str	r3, [r2, #32]
}

static inline void hri_gclk_write_CLKCTRL_reg(const void *const hw, hri_gclk_clkctrl_reg_t data)
{
	GCLK_CRITICAL_SECTION_ENTER();
	((Gclk *)hw)->CLKCTRL.reg = data;
     826:	4b04      	ldr	r3, [pc, #16]	; (838 <I2C_0_CLOCK_init+0x1c>)
     828:	4a04      	ldr	r2, [pc, #16]	; (83c <I2C_0_CLOCK_init+0x20>)
     82a:	805a      	strh	r2, [r3, #2]
     82c:	4a04      	ldr	r2, [pc, #16]	; (840 <I2C_0_CLOCK_init+0x24>)
     82e:	805a      	strh	r2, [r3, #2]
void I2C_0_CLOCK_init(void)
{
	_pm_enable_bus_clock(PM_BUS_APBC, SERCOM0);
	_gclk_enable_channel(SERCOM0_GCLK_ID_CORE, CONF_GCLK_SERCOM0_CORE_SRC);
	_gclk_enable_channel(SERCOM0_GCLK_ID_SLOW, CONF_GCLK_SERCOM0_SLOW_SRC);
}
     830:	4770      	bx	lr
     832:	46c0      	nop			; (mov r8, r8)
     834:	40000400 	.word	0x40000400
     838:	40000c00 	.word	0x40000c00
     83c:	00004014 	.word	0x00004014
     840:	00004313 	.word	0x00004313

00000844 <I2C_0_init>:

void I2C_0_init(void)
{
     844:	b510      	push	{r4, lr}
	I2C_0_CLOCK_init();
     846:	4b04      	ldr	r3, [pc, #16]	; (858 <I2C_0_init+0x14>)
     848:	4798      	blx	r3
	i2c_m_sync_init(&I2C_0, SERCOM0);
     84a:	4904      	ldr	r1, [pc, #16]	; (85c <I2C_0_init+0x18>)
     84c:	4804      	ldr	r0, [pc, #16]	; (860 <I2C_0_init+0x1c>)
     84e:	4b05      	ldr	r3, [pc, #20]	; (864 <I2C_0_init+0x20>)
     850:	4798      	blx	r3
	I2C_0_PORT_init();
     852:	4b05      	ldr	r3, [pc, #20]	; (868 <I2C_0_init+0x24>)
     854:	4798      	blx	r3
}
     856:	bd10      	pop	{r4, pc}
     858:	0000081d 	.word	0x0000081d
     85c:	42000800 	.word	0x42000800
     860:	20000a50 	.word	0x20000a50
     864:	00000a1d 	.word	0x00000a1d
     868:	000007cd 	.word	0x000007cd

0000086c <TARGET_IO_PORT_init>:

void TARGET_IO_PORT_init(void)
{
     86c:	b530      	push	{r4, r5, lr}
	tmp = ((Port *)hw)->Group[submodule_index].PINCFG[index].reg;
     86e:	4b0e      	ldr	r3, [pc, #56]	; (8a8 <TARGET_IO_PORT_init+0x3c>)
     870:	2256      	movs	r2, #86	; 0x56
     872:	5c99      	ldrb	r1, [r3, r2]
	tmp &= ~PORT_PINCFG_PMUXEN;
     874:	2501      	movs	r5, #1
     876:	43a9      	bics	r1, r5
	tmp |= value << PORT_PINCFG_PMUXEN_Pos;
     878:	2401      	movs	r4, #1
     87a:	4321      	orrs	r1, r4
     87c:	b2c9      	uxtb	r1, r1
	((Port *)hw)->Group[submodule_index].PINCFG[index].reg = tmp;
     87e:	5499      	strb	r1, [r3, r2]
	tmp = ((Port *)hw)->Group[submodule_index].PMUX[index].reg;
     880:	203b      	movs	r0, #59	; 0x3b
     882:	5c19      	ldrb	r1, [r3, r0]
	tmp &= ~PORT_PMUX_PMUXE_Msk;
     884:	3a47      	subs	r2, #71	; 0x47
     886:	4391      	bics	r1, r2
	tmp |= PORT_PMUX_PMUXE(data);
     888:	3a0d      	subs	r2, #13
     88a:	4311      	orrs	r1, r2
	((Port *)hw)->Group[submodule_index].PMUX[index].reg = tmp;
     88c:	5419      	strb	r1, [r3, r0]
	tmp = ((Port *)hw)->Group[submodule_index].PINCFG[index].reg;
     88e:	2157      	movs	r1, #87	; 0x57
     890:	5c5a      	ldrb	r2, [r3, r1]
	tmp &= ~PORT_PINCFG_PMUXEN;
     892:	43aa      	bics	r2, r5
	tmp |= value << PORT_PINCFG_PMUXEN_Pos;
     894:	4322      	orrs	r2, r4
     896:	b2d2      	uxtb	r2, r2
	((Port *)hw)->Group[submodule_index].PINCFG[index].reg = tmp;
     898:	545a      	strb	r2, [r3, r1]
	tmp = ((Port *)hw)->Group[submodule_index].PMUX[index].reg;
     89a:	5c1a      	ldrb	r2, [r3, r0]
	tmp &= ~PORT_PMUX_PMUXO_Msk;
     89c:	3948      	subs	r1, #72	; 0x48
     89e:	400a      	ands	r2, r1
	tmp |= PORT_PMUX_PMUXO(data);
     8a0:	3111      	adds	r1, #17
     8a2:	430a      	orrs	r2, r1
	((Port *)hw)->Group[submodule_index].PMUX[index].reg = tmp;
     8a4:	541a      	strb	r2, [r3, r0]

	gpio_set_pin_function(PA22, PINMUX_PA22C_SERCOM3_PAD0);

	gpio_set_pin_function(PA23, PINMUX_PA23C_SERCOM3_PAD1);
}
     8a6:	bd30      	pop	{r4, r5, pc}
     8a8:	41004400 	.word	0x41004400

000008ac <TARGET_IO_CLOCK_init>:
     8ac:	4a04      	ldr	r2, [pc, #16]	; (8c0 <TARGET_IO_CLOCK_init+0x14>)
     8ae:	6a13      	ldr	r3, [r2, #32]
     8b0:	2120      	movs	r1, #32
     8b2:	430b      	orrs	r3, r1
     8b4:	6213      	str	r3, [r2, #32]
     8b6:	4a03      	ldr	r2, [pc, #12]	; (8c4 <TARGET_IO_CLOCK_init+0x18>)
     8b8:	4b03      	ldr	r3, [pc, #12]	; (8c8 <TARGET_IO_CLOCK_init+0x1c>)
     8ba:	805a      	strh	r2, [r3, #2]

void TARGET_IO_CLOCK_init(void)
{
	_pm_enable_bus_clock(PM_BUS_APBC, SERCOM3);
	_gclk_enable_channel(SERCOM3_GCLK_ID_CORE, CONF_GCLK_SERCOM3_CORE_SRC);
}
     8bc:	4770      	bx	lr
     8be:	46c0      	nop			; (mov r8, r8)
     8c0:	40000400 	.word	0x40000400
     8c4:	00004017 	.word	0x00004017
     8c8:	40000c00 	.word	0x40000c00

000008cc <TARGET_IO_init>:

void TARGET_IO_init(void)
{
     8cc:	b510      	push	{r4, lr}
	TARGET_IO_CLOCK_init();
     8ce:	4b05      	ldr	r3, [pc, #20]	; (8e4 <TARGET_IO_init+0x18>)
     8d0:	4798      	blx	r3
	usart_sync_init(&TARGET_IO, SERCOM3, (void *)NULL);
     8d2:	2200      	movs	r2, #0
     8d4:	4904      	ldr	r1, [pc, #16]	; (8e8 <TARGET_IO_init+0x1c>)
     8d6:	4805      	ldr	r0, [pc, #20]	; (8ec <TARGET_IO_init+0x20>)
     8d8:	4b05      	ldr	r3, [pc, #20]	; (8f0 <TARGET_IO_init+0x24>)
     8da:	4798      	blx	r3
	TARGET_IO_PORT_init();
     8dc:	4b05      	ldr	r3, [pc, #20]	; (8f4 <TARGET_IO_init+0x28>)
     8de:	4798      	blx	r3
}
     8e0:	bd10      	pop	{r4, pc}
     8e2:	46c0      	nop			; (mov r8, r8)
     8e4:	000008ad 	.word	0x000008ad
     8e8:	42001400 	.word	0x42001400
     8ec:	20000a44 	.word	0x20000a44
     8f0:	00000c11 	.word	0x00000c11
     8f4:	0000086d 	.word	0x0000086d

000008f8 <delay_driver_init>:

void delay_driver_init(void)
{
     8f8:	b510      	push	{r4, lr}
	delay_init(SysTick);
     8fa:	4802      	ldr	r0, [pc, #8]	; (904 <delay_driver_init+0xc>)
     8fc:	4b02      	ldr	r3, [pc, #8]	; (908 <delay_driver_init+0x10>)
     8fe:	4798      	blx	r3
}
     900:	bd10      	pop	{r4, pc}
     902:	46c0      	nop			; (mov r8, r8)
     904:	e000e010 	.word	0xe000e010
     908:	00000989 	.word	0x00000989

0000090c <system_init>:

void system_init(void)
{
     90c:	b570      	push	{r4, r5, r6, lr}
 * Currently the following initialization functions are supported:
 *  - System clock initialization
 */
static inline void init_mcu(void)
{
	_init_chip();
     90e:	4b16      	ldr	r3, [pc, #88]	; (968 <system_init+0x5c>)
     910:	4798      	blx	r3
	((Port *)hw)->Group[submodule_index].DIRCLR.reg = mask;
     912:	22c0      	movs	r2, #192	; 0xc0
     914:	05d2      	lsls	r2, r2, #23
     916:	2080      	movs	r0, #128	; 0x80
     918:	0200      	lsls	r0, r0, #8
     91a:	6050      	str	r0, [r2, #4]

static inline void hri_port_write_WRCONFIG_reg(const void *const hw, uint8_t submodule_index,
                                               hri_port_wrconfig_reg_t data)
{
	PORT_CRITICAL_SECTION_ENTER();
	((Port *)hw)->Group[submodule_index].WRCONFIG.reg = data;
     91c:	4b13      	ldr	r3, [pc, #76]	; (96c <system_init+0x60>)
     91e:	4914      	ldr	r1, [pc, #80]	; (970 <system_init+0x64>)
     920:	6299      	str	r1, [r3, #40]	; 0x28
     922:	4914      	ldr	r1, [pc, #80]	; (974 <system_init+0x68>)
     924:	6299      	str	r1, [r3, #40]	; 0x28
	((Port *)hw)->Group[submodule_index].DIRCLR.reg = mask;
     926:	6050      	str	r0, [r2, #4]
	((Port *)hw)->Group[submodule_index].PINCFG[index].reg |= PORT_PINCFG_PULLEN;
     928:	214f      	movs	r1, #79	; 0x4f
     92a:	5c5c      	ldrb	r4, [r3, r1]
     92c:	2504      	movs	r5, #4
     92e:	432c      	orrs	r4, r5
     930:	545c      	strb	r4, [r3, r1]
	((Port *)hw)->Group[submodule_index].OUTSET.reg = mask;
     932:	6190      	str	r0, [r2, #24]
	tmp = ((Port *)hw)->Group[submodule_index].PINCFG[index].reg;
     934:	5c58      	ldrb	r0, [r3, r1]
	tmp &= ~PORT_PINCFG_PMUXEN;
     936:	2401      	movs	r4, #1
     938:	43a0      	bics	r0, r4
	((Port *)hw)->Group[submodule_index].PINCFG[index].reg = tmp;
     93a:	5458      	strb	r0, [r3, r1]
	((Port *)hw)->Group[submodule_index].OUTCLR.reg = mask;
     93c:	2180      	movs	r1, #128	; 0x80
     93e:	05c9      	lsls	r1, r1, #23
     940:	2094      	movs	r0, #148	; 0x94
     942:	5011      	str	r1, [r2, r0]
	((Port *)hw)->Group[submodule_index].DIRSET.reg = mask;
     944:	380c      	subs	r0, #12
     946:	5011      	str	r1, [r2, r0]
	((Port *)hw)->Group[submodule_index].WRCONFIG.reg = data;
     948:	22a8      	movs	r2, #168	; 0xa8
     94a:	5099      	str	r1, [r3, r2]
     94c:	490a      	ldr	r1, [pc, #40]	; (978 <system_init+0x6c>)
     94e:	5099      	str	r1, [r3, r2]
	tmp = ((Port *)hw)->Group[submodule_index].PINCFG[index].reg;
     950:	21de      	movs	r1, #222	; 0xde
     952:	5c5a      	ldrb	r2, [r3, r1]
	tmp &= ~PORT_PINCFG_PMUXEN;
     954:	43a2      	bics	r2, r4
	((Port *)hw)->Group[submodule_index].PINCFG[index].reg = tmp;
     956:	545a      	strb	r2, [r3, r1]
	// Set pin direction to output
	gpio_set_pin_direction(LED0, GPIO_DIRECTION_OUT);

	gpio_set_pin_function(LED0, GPIO_PIN_FUNCTION_OFF);

	I2C_0_init();
     958:	4b08      	ldr	r3, [pc, #32]	; (97c <system_init+0x70>)
     95a:	4798      	blx	r3

	TARGET_IO_init();
     95c:	4b08      	ldr	r3, [pc, #32]	; (980 <system_init+0x74>)
     95e:	4798      	blx	r3

	delay_driver_init();
     960:	4b08      	ldr	r3, [pc, #32]	; (984 <system_init+0x78>)
     962:	4798      	blx	r3
}
     964:	bd70      	pop	{r4, r5, r6, pc}
     966:	46c0      	nop			; (mov r8, r8)
     968:	00000cd5 	.word	0x00000cd5
     96c:	41004400 	.word	0x41004400
     970:	40028000 	.word	0x40028000
     974:	c0020000 	.word	0xc0020000
     978:	c0004000 	.word	0xc0004000
     97c:	00000845 	.word	0x00000845
     980:	000008cd 	.word	0x000008cd
     984:	000008f9 	.word	0x000008f9

00000988 <delay_init>:

/**
 * \brief Initialize Delay driver
 */
void delay_init(void *const hw)
{
     988:	b510      	push	{r4, lr}
	_delay_init(hardware = hw);
     98a:	4b02      	ldr	r3, [pc, #8]	; (994 <delay_init+0xc>)
     98c:	6018      	str	r0, [r3, #0]
     98e:	4b02      	ldr	r3, [pc, #8]	; (998 <delay_init+0x10>)
     990:	4798      	blx	r3
}
     992:	bd10      	pop	{r4, pc}
     994:	200009d0 	.word	0x200009d0
     998:	0000159d 	.word	0x0000159d

0000099c <delay_ms>:

/**
 * \brief Perform delay in ms
 */
void delay_ms(const uint16_t ms)
{
     99c:	b510      	push	{r4, lr}
	_delay_cycles(hardware, _get_cycles_for_ms(ms));
     99e:	4b04      	ldr	r3, [pc, #16]	; (9b0 <delay_ms+0x14>)
     9a0:	681c      	ldr	r4, [r3, #0]
     9a2:	4b04      	ldr	r3, [pc, #16]	; (9b4 <delay_ms+0x18>)
     9a4:	4798      	blx	r3
     9a6:	0001      	movs	r1, r0
     9a8:	0020      	movs	r0, r4
     9aa:	4b03      	ldr	r3, [pc, #12]	; (9b8 <delay_ms+0x1c>)
     9ac:	4798      	blx	r3
}
     9ae:	bd10      	pop	{r4, pc}
     9b0:	200009d0 	.word	0x200009d0
     9b4:	00000ccd 	.word	0x00000ccd
     9b8:	000015b1 	.word	0x000015b1

000009bc <i2c_m_sync_write>:

/**
 * \brief Sync version of I2C I/O write
 */
static int32_t i2c_m_sync_write(struct io_descriptor *io, const uint8_t *buf, const uint16_t n)
{
     9bc:	b510      	push	{r4, lr}
     9be:	b084      	sub	sp, #16
     9c0:	0014      	movs	r4, r2
	struct i2c_m_sync_desc *i2c = CONTAINER_OF(io, struct i2c_m_sync_desc, io);
	struct _i2c_m_msg       msg;
	int32_t                 ret;

	msg.addr   = i2c->slave_addr;
     9c2:	ab01      	add	r3, sp, #4
     9c4:	3814      	subs	r0, #20
     9c6:	8b82      	ldrh	r2, [r0, #28]
     9c8:	801a      	strh	r2, [r3, #0]
	msg.len    = n;
     9ca:	9402      	str	r4, [sp, #8]
	msg.flags  = I2C_M_STOP;
     9cc:	4a05      	ldr	r2, [pc, #20]	; (9e4 <i2c_m_sync_write+0x28>)
     9ce:	805a      	strh	r2, [r3, #2]
	msg.buffer = (uint8_t *)buf;
     9d0:	9103      	str	r1, [sp, #12]

	ret = _i2c_m_sync_transfer(&i2c->device, &msg);
     9d2:	0019      	movs	r1, r3
     9d4:	4b04      	ldr	r3, [pc, #16]	; (9e8 <i2c_m_sync_write+0x2c>)
     9d6:	4798      	blx	r3

	if (ret) {
     9d8:	2800      	cmp	r0, #0
     9da:	d100      	bne.n	9de <i2c_m_sync_write+0x22>
		return ret;
	}

	return n;
     9dc:	0020      	movs	r0, r4
}
     9de:	b004      	add	sp, #16
     9e0:	bd10      	pop	{r4, pc}
     9e2:	46c0      	nop			; (mov r8, r8)
     9e4:	ffff8000 	.word	0xffff8000
     9e8:	00001011 	.word	0x00001011

000009ec <i2c_m_sync_read>:
{
     9ec:	b510      	push	{r4, lr}
     9ee:	b084      	sub	sp, #16
     9f0:	0014      	movs	r4, r2
	msg.addr   = i2c->slave_addr;
     9f2:	ab01      	add	r3, sp, #4
     9f4:	3814      	subs	r0, #20
     9f6:	8b82      	ldrh	r2, [r0, #28]
     9f8:	801a      	strh	r2, [r3, #0]
	msg.len    = n;
     9fa:	9402      	str	r4, [sp, #8]
	msg.flags  = I2C_M_STOP | I2C_M_RD;
     9fc:	4a05      	ldr	r2, [pc, #20]	; (a14 <i2c_m_sync_read+0x28>)
     9fe:	805a      	strh	r2, [r3, #2]
	msg.buffer = buf;
     a00:	9103      	str	r1, [sp, #12]
	ret = _i2c_m_sync_transfer(&i2c->device, &msg);
     a02:	0019      	movs	r1, r3
     a04:	4b04      	ldr	r3, [pc, #16]	; (a18 <i2c_m_sync_read+0x2c>)
     a06:	4798      	blx	r3
	if (ret) {
     a08:	2800      	cmp	r0, #0
     a0a:	d100      	bne.n	a0e <i2c_m_sync_read+0x22>
	return n;
     a0c:	0020      	movs	r0, r4
}
     a0e:	b004      	add	sp, #16
     a10:	bd10      	pop	{r4, pc}
     a12:	46c0      	nop			; (mov r8, r8)
     a14:	ffff8001 	.word	0xffff8001
     a18:	00001011 	.word	0x00001011

00000a1c <i2c_m_sync_init>:

/**
 * \brief Sync version of i2c initialize
 */
int32_t i2c_m_sync_init(struct i2c_m_sync_desc *i2c, void *hw)
{
     a1c:	b570      	push	{r4, r5, r6, lr}
     a1e:	0004      	movs	r4, r0
     a20:	000d      	movs	r5, r1
	int32_t init_status;
	ASSERT(i2c);
     a22:	1e43      	subs	r3, r0, #1
     a24:	4198      	sbcs	r0, r3
     a26:	b2c0      	uxtb	r0, r0
     a28:	225e      	movs	r2, #94	; 0x5e
     a2a:	4907      	ldr	r1, [pc, #28]	; (a48 <i2c_m_sync_init+0x2c>)
     a2c:	4b07      	ldr	r3, [pc, #28]	; (a4c <i2c_m_sync_init+0x30>)
     a2e:	4798      	blx	r3

	init_status = _i2c_m_sync_init(&i2c->device, hw);
     a30:	0029      	movs	r1, r5
     a32:	0020      	movs	r0, r4
     a34:	4b06      	ldr	r3, [pc, #24]	; (a50 <i2c_m_sync_init+0x34>)
     a36:	4798      	blx	r3
	if (init_status) {
     a38:	2800      	cmp	r0, #0
     a3a:	d103      	bne.n	a44 <i2c_m_sync_init+0x28>
		return init_status;
	}

	/* Init I/O */
	i2c->io.read  = i2c_m_sync_read;
     a3c:	4b05      	ldr	r3, [pc, #20]	; (a54 <i2c_m_sync_init+0x38>)
     a3e:	61a3      	str	r3, [r4, #24]
	i2c->io.write = i2c_m_sync_write;
     a40:	4b05      	ldr	r3, [pc, #20]	; (a58 <i2c_m_sync_init+0x3c>)
     a42:	6163      	str	r3, [r4, #20]

	return ERR_NONE;
}
     a44:	bd70      	pop	{r4, r5, r6, pc}
     a46:	46c0      	nop			; (mov r8, r8)
     a48:	0000a06c 	.word	0x0000a06c
     a4c:	00000c89 	.word	0x00000c89
     a50:	00000f5d 	.word	0x00000f5d
     a54:	000009ed 	.word	0x000009ed
     a58:	000009bd 	.word	0x000009bd

00000a5c <i2c_m_sync_enable>:

/**
 * \brief Sync version of i2c enable
 */
int32_t i2c_m_sync_enable(struct i2c_m_sync_desc *i2c)
{
     a5c:	b510      	push	{r4, lr}
	return _i2c_m_sync_enable(&i2c->device);
     a5e:	4b01      	ldr	r3, [pc, #4]	; (a64 <i2c_m_sync_enable+0x8>)
     a60:	4798      	blx	r3
}
     a62:	bd10      	pop	{r4, pc}
     a64:	00000f8d 	.word	0x00000f8d

00000a68 <i2c_m_sync_set_slaveaddr>:
/**
 * \brief Sync version of i2c set slave address
 */
int32_t i2c_m_sync_set_slaveaddr(struct i2c_m_sync_desc *i2c, int16_t addr, int32_t addr_len)
{
	return i2c->slave_addr = (addr & 0x3ff) | (addr_len & I2C_M_TEN);
     a68:	0589      	lsls	r1, r1, #22
     a6a:	0d89      	lsrs	r1, r1, #22
     a6c:	2380      	movs	r3, #128	; 0x80
     a6e:	00db      	lsls	r3, r3, #3
     a70:	401a      	ands	r2, r3
     a72:	430a      	orrs	r2, r1
     a74:	8382      	strh	r2, [r0, #28]
}
     a76:	0010      	movs	r0, r2
     a78:	4770      	bx	lr
	...

00000a7c <i2c_m_sync_cmd_read>:

/**
 * \brief Sync version of i2c read command
 */
int32_t i2c_m_sync_cmd_read(struct i2c_m_sync_desc *i2c, uint8_t reg, uint8_t *buffer, uint8_t length)
{
     a7c:	b570      	push	{r4, r5, r6, lr}
     a7e:	b086      	sub	sp, #24
     a80:	0004      	movs	r4, r0
     a82:	0016      	movs	r6, r2
     a84:	001d      	movs	r5, r3
     a86:	466b      	mov	r3, sp
     a88:	71d9      	strb	r1, [r3, #7]
     a8a:	3307      	adds	r3, #7
	struct _i2c_m_msg msg;
	int32_t           ret;

	msg.addr   = i2c->slave_addr;
     a8c:	a903      	add	r1, sp, #12
     a8e:	8b82      	ldrh	r2, [r0, #28]
     a90:	800a      	strh	r2, [r1, #0]
	msg.len    = 1;
     a92:	2201      	movs	r2, #1
     a94:	604a      	str	r2, [r1, #4]
	msg.flags  = 0;
     a96:	2200      	movs	r2, #0
     a98:	804a      	strh	r2, [r1, #2]
	msg.buffer = &reg;
     a9a:	608b      	str	r3, [r1, #8]

	ret = _i2c_m_sync_transfer(&i2c->device, &msg);
     a9c:	4b07      	ldr	r3, [pc, #28]	; (abc <i2c_m_sync_cmd_read+0x40>)
     a9e:	4798      	blx	r3

	if (ret != 0) {
     aa0:	2800      	cmp	r0, #0
     aa2:	d001      	beq.n	aa8 <i2c_m_sync_cmd_read+0x2c>
		/* error occurred */
		return ret;
	}

	return ERR_NONE;
}
     aa4:	b006      	add	sp, #24
     aa6:	bd70      	pop	{r4, r5, r6, pc}
	msg.flags  = I2C_M_STOP | I2C_M_RD;
     aa8:	a903      	add	r1, sp, #12
     aaa:	4b05      	ldr	r3, [pc, #20]	; (ac0 <i2c_m_sync_cmd_read+0x44>)
     aac:	804b      	strh	r3, [r1, #2]
	msg.buffer = buffer;
     aae:	608e      	str	r6, [r1, #8]
	msg.len    = length;
     ab0:	604d      	str	r5, [r1, #4]
	ret = _i2c_m_sync_transfer(&i2c->device, &msg);
     ab2:	0020      	movs	r0, r4
     ab4:	4b01      	ldr	r3, [pc, #4]	; (abc <i2c_m_sync_cmd_read+0x40>)
     ab6:	4798      	blx	r3
     ab8:	e7f4      	b.n	aa4 <i2c_m_sync_cmd_read+0x28>
     aba:	46c0      	nop			; (mov r8, r8)
     abc:	00001011 	.word	0x00001011
     ac0:	ffff8001 	.word	0xffff8001

00000ac4 <io_write>:

/**
 * \brief I/O write interface
 */
int32_t io_write(struct io_descriptor *const io_descr, const uint8_t *const buf, const uint16_t length)
{
     ac4:	b570      	push	{r4, r5, r6, lr}
     ac6:	0006      	movs	r6, r0
     ac8:	000c      	movs	r4, r1
     aca:	0015      	movs	r5, r2
	ASSERT(io_descr && buf);
     acc:	2800      	cmp	r0, #0
     ace:	d00d      	beq.n	aec <io_write+0x28>
     ad0:	0008      	movs	r0, r1
     ad2:	1e43      	subs	r3, r0, #1
     ad4:	4198      	sbcs	r0, r3
     ad6:	b2c0      	uxtb	r0, r0
     ad8:	2234      	movs	r2, #52	; 0x34
     ada:	4905      	ldr	r1, [pc, #20]	; (af0 <io_write+0x2c>)
     adc:	4b05      	ldr	r3, [pc, #20]	; (af4 <io_write+0x30>)
     ade:	4798      	blx	r3
	return io_descr->write(io_descr, buf, length);
     ae0:	6833      	ldr	r3, [r6, #0]
     ae2:	002a      	movs	r2, r5
     ae4:	0021      	movs	r1, r4
     ae6:	0030      	movs	r0, r6
     ae8:	4798      	blx	r3
}
     aea:	bd70      	pop	{r4, r5, r6, pc}
     aec:	2000      	movs	r0, #0
     aee:	e7f3      	b.n	ad8 <io_write+0x14>
     af0:	0000a088 	.word	0x0000a088
     af4:	00000c89 	.word	0x00000c89

00000af8 <io_read>:

/**
 * \brief I/O read interface
 */
int32_t io_read(struct io_descriptor *const io_descr, uint8_t *const buf, const uint16_t length)
{
     af8:	b570      	push	{r4, r5, r6, lr}
     afa:	0006      	movs	r6, r0
     afc:	000c      	movs	r4, r1
     afe:	0015      	movs	r5, r2
	ASSERT(io_descr && buf);
     b00:	2800      	cmp	r0, #0
     b02:	d00d      	beq.n	b20 <io_read+0x28>
     b04:	0008      	movs	r0, r1
     b06:	1e43      	subs	r3, r0, #1
     b08:	4198      	sbcs	r0, r3
     b0a:	b2c0      	uxtb	r0, r0
     b0c:	223d      	movs	r2, #61	; 0x3d
     b0e:	4905      	ldr	r1, [pc, #20]	; (b24 <io_read+0x2c>)
     b10:	4b05      	ldr	r3, [pc, #20]	; (b28 <io_read+0x30>)
     b12:	4798      	blx	r3
	return io_descr->read(io_descr, buf, length);
     b14:	6873      	ldr	r3, [r6, #4]
     b16:	002a      	movs	r2, r5
     b18:	0021      	movs	r1, r4
     b1a:	0030      	movs	r0, r6
     b1c:	4798      	blx	r3
}
     b1e:	bd70      	pop	{r4, r5, r6, pc}
     b20:	2000      	movs	r0, #0
     b22:	e7f3      	b.n	b0c <io_read+0x14>
     b24:	0000a088 	.word	0x0000a088
     b28:	00000c89 	.word	0x00000c89

00000b2c <usart_sync_write>:
 * \param[in] length The number of bytes to write
 *
 * \return The number of bytes written.
 */
static int32_t usart_sync_write(struct io_descriptor *const io_descr, const uint8_t *const buf, const uint16_t length)
{
     b2c:	b5f8      	push	{r3, r4, r5, r6, r7, lr}
     b2e:	46ce      	mov	lr, r9
     b30:	4647      	mov	r7, r8
     b32:	b580      	push	{r7, lr}
     b34:	0004      	movs	r4, r0
     b36:	000f      	movs	r7, r1
     b38:	4690      	mov	r8, r2
	uint32_t                      offset = 0;
	struct usart_sync_descriptor *descr  = CONTAINER_OF(io_descr, struct usart_sync_descriptor, io);

	ASSERT(io_descr && buf && length);
     b3a:	2800      	cmp	r0, #0
     b3c:	d026      	beq.n	b8c <usart_sync_write+0x60>
     b3e:	2900      	cmp	r1, #0
     b40:	d026      	beq.n	b90 <usart_sync_write+0x64>
     b42:	0010      	movs	r0, r2
     b44:	1e43      	subs	r3, r0, #1
     b46:	4198      	sbcs	r0, r3
     b48:	22f1      	movs	r2, #241	; 0xf1
     b4a:	4912      	ldr	r1, [pc, #72]	; (b94 <usart_sync_write+0x68>)
     b4c:	4b12      	ldr	r3, [pc, #72]	; (b98 <usart_sync_write+0x6c>)
     b4e:	4798      	blx	r3
	while (!_usart_sync_is_ready_to_send(&descr->device))
     b50:	3408      	adds	r4, #8
     b52:	4d12      	ldr	r5, [pc, #72]	; (b9c <usart_sync_write+0x70>)
     b54:	0020      	movs	r0, r4
     b56:	47a8      	blx	r5
     b58:	2800      	cmp	r0, #0
     b5a:	d0fb      	beq.n	b54 <usart_sync_write+0x28>
     b5c:	2600      	movs	r6, #0
		;
	do {
		_usart_sync_write_byte(&descr->device, buf[offset]);
     b5e:	4b10      	ldr	r3, [pc, #64]	; (ba0 <usart_sync_write+0x74>)
     b60:	4699      	mov	r9, r3
		while (!_usart_sync_is_ready_to_send(&descr->device))
     b62:	4d0e      	ldr	r5, [pc, #56]	; (b9c <usart_sync_write+0x70>)
		_usart_sync_write_byte(&descr->device, buf[offset]);
     b64:	5db9      	ldrb	r1, [r7, r6]
     b66:	0020      	movs	r0, r4
     b68:	47c8      	blx	r9
		while (!_usart_sync_is_ready_to_send(&descr->device))
     b6a:	0020      	movs	r0, r4
     b6c:	47a8      	blx	r5
     b6e:	2800      	cmp	r0, #0
     b70:	d0fb      	beq.n	b6a <usart_sync_write+0x3e>
			;
	} while (++offset < length);
     b72:	3601      	adds	r6, #1
     b74:	4546      	cmp	r6, r8
     b76:	d3f5      	bcc.n	b64 <usart_sync_write+0x38>
	while (!_usart_sync_is_transmit_done(&descr->device))
     b78:	4d0a      	ldr	r5, [pc, #40]	; (ba4 <usart_sync_write+0x78>)
     b7a:	0020      	movs	r0, r4
     b7c:	47a8      	blx	r5
     b7e:	2800      	cmp	r0, #0
     b80:	d0fb      	beq.n	b7a <usart_sync_write+0x4e>
		;
	return (int32_t)offset;
}
     b82:	0030      	movs	r0, r6
     b84:	bc0c      	pop	{r2, r3}
     b86:	4690      	mov	r8, r2
     b88:	4699      	mov	r9, r3
     b8a:	bdf8      	pop	{r3, r4, r5, r6, r7, pc}
	ASSERT(io_descr && buf && length);
     b8c:	2000      	movs	r0, #0
     b8e:	e7db      	b.n	b48 <usart_sync_write+0x1c>
     b90:	2000      	movs	r0, #0
     b92:	e7d9      	b.n	b48 <usart_sync_write+0x1c>
     b94:	0000a09c 	.word	0x0000a09c
     b98:	00000c89 	.word	0x00000c89
     b9c:	00000f3d 	.word	0x00000f3d
     ba0:	00000f2d 	.word	0x00000f2d
     ba4:	00000f47 	.word	0x00000f47

00000ba8 <usart_sync_read>:
 * \param[in] length The size of a buffer
 *
 * \return The number of bytes read.
 */
static int32_t usart_sync_read(struct io_descriptor *const io_descr, uint8_t *const buf, const uint16_t length)
{
     ba8:	b5f8      	push	{r3, r4, r5, r6, r7, lr}
     baa:	46ce      	mov	lr, r9
     bac:	4647      	mov	r7, r8
     bae:	b580      	push	{r7, lr}
     bb0:	0004      	movs	r4, r0
     bb2:	000f      	movs	r7, r1
     bb4:	4690      	mov	r8, r2
	uint32_t                      offset = 0;
	struct usart_sync_descriptor *descr  = CONTAINER_OF(io_descr, struct usart_sync_descriptor, io);

	ASSERT(io_descr && buf && length);
     bb6:	2800      	cmp	r0, #0
     bb8:	d01d      	beq.n	bf6 <usart_sync_read+0x4e>
     bba:	2900      	cmp	r1, #0
     bbc:	d01d      	beq.n	bfa <usart_sync_read+0x52>
     bbe:	0010      	movs	r0, r2
     bc0:	1e43      	subs	r3, r0, #1
     bc2:	4198      	sbcs	r0, r3
     bc4:	2286      	movs	r2, #134	; 0x86
     bc6:	0052      	lsls	r2, r2, #1
     bc8:	490d      	ldr	r1, [pc, #52]	; (c00 <usart_sync_read+0x58>)
     bca:	4b0e      	ldr	r3, [pc, #56]	; (c04 <usart_sync_read+0x5c>)
     bcc:	4798      	blx	r3
	uint32_t                      offset = 0;
     bce:	2600      	movs	r6, #0
	do {
		while (!_usart_sync_is_byte_received(&descr->device))
     bd0:	3408      	adds	r4, #8
     bd2:	4d0d      	ldr	r5, [pc, #52]	; (c08 <usart_sync_read+0x60>)
			;
		buf[offset] = _usart_sync_read_byte(&descr->device);
     bd4:	4b0d      	ldr	r3, [pc, #52]	; (c0c <usart_sync_read+0x64>)
     bd6:	4699      	mov	r9, r3
		while (!_usart_sync_is_byte_received(&descr->device))
     bd8:	0020      	movs	r0, r4
     bda:	47a8      	blx	r5
     bdc:	2800      	cmp	r0, #0
     bde:	d0fb      	beq.n	bd8 <usart_sync_read+0x30>
		buf[offset] = _usart_sync_read_byte(&descr->device);
     be0:	0020      	movs	r0, r4
     be2:	47c8      	blx	r9
     be4:	55b8      	strb	r0, [r7, r6]
	} while (++offset < length);
     be6:	3601      	adds	r6, #1
     be8:	4546      	cmp	r6, r8
     bea:	d3f5      	bcc.n	bd8 <usart_sync_read+0x30>

	return (int32_t)offset;
}
     bec:	0030      	movs	r0, r6
     bee:	bc0c      	pop	{r2, r3}
     bf0:	4690      	mov	r8, r2
     bf2:	4699      	mov	r9, r3
     bf4:	bdf8      	pop	{r3, r4, r5, r6, r7, pc}
	ASSERT(io_descr && buf && length);
     bf6:	2000      	movs	r0, #0
     bf8:	e7e4      	b.n	bc4 <usart_sync_read+0x1c>
     bfa:	2000      	movs	r0, #0
     bfc:	e7e2      	b.n	bc4 <usart_sync_read+0x1c>
     bfe:	46c0      	nop			; (mov r8, r8)
     c00:	0000a09c 	.word	0x0000a09c
     c04:	00000c89 	.word	0x00000c89
     c08:	00000f51 	.word	0x00000f51
     c0c:	00000f35 	.word	0x00000f35

00000c10 <usart_sync_init>:
{
     c10:	b570      	push	{r4, r5, r6, lr}
     c12:	0005      	movs	r5, r0
     c14:	000c      	movs	r4, r1
	ASSERT(descr && hw);
     c16:	2800      	cmp	r0, #0
     c18:	d013      	beq.n	c42 <usart_sync_init+0x32>
     c1a:	0008      	movs	r0, r1
     c1c:	1e43      	subs	r3, r0, #1
     c1e:	4198      	sbcs	r0, r3
     c20:	b2c0      	uxtb	r0, r0
     c22:	2234      	movs	r2, #52	; 0x34
     c24:	4908      	ldr	r1, [pc, #32]	; (c48 <usart_sync_init+0x38>)
     c26:	4b09      	ldr	r3, [pc, #36]	; (c4c <usart_sync_init+0x3c>)
     c28:	4798      	blx	r3
	init_status = _usart_sync_init(&descr->device, hw);
     c2a:	0028      	movs	r0, r5
     c2c:	3008      	adds	r0, #8
     c2e:	0021      	movs	r1, r4
     c30:	4b07      	ldr	r3, [pc, #28]	; (c50 <usart_sync_init+0x40>)
     c32:	4798      	blx	r3
	if (init_status) {
     c34:	2800      	cmp	r0, #0
     c36:	d103      	bne.n	c40 <usart_sync_init+0x30>
	descr->io.read  = usart_sync_read;
     c38:	4b06      	ldr	r3, [pc, #24]	; (c54 <usart_sync_init+0x44>)
     c3a:	606b      	str	r3, [r5, #4]
	descr->io.write = usart_sync_write;
     c3c:	4b06      	ldr	r3, [pc, #24]	; (c58 <usart_sync_init+0x48>)
     c3e:	602b      	str	r3, [r5, #0]
}
     c40:	bd70      	pop	{r4, r5, r6, pc}
     c42:	2000      	movs	r0, #0
     c44:	e7ed      	b.n	c22 <usart_sync_init+0x12>
     c46:	46c0      	nop			; (mov r8, r8)
     c48:	0000a09c 	.word	0x0000a09c
     c4c:	00000c89 	.word	0x00000c89
     c50:	00000eed 	.word	0x00000eed
     c54:	00000ba9 	.word	0x00000ba9
     c58:	00000b2d 	.word	0x00000b2d

00000c5c <usart_sync_enable>:
{
     c5c:	b510      	push	{r4, lr}
     c5e:	0004      	movs	r4, r0
	ASSERT(descr);
     c60:	1e43      	subs	r3, r0, #1
     c62:	4198      	sbcs	r0, r3
     c64:	b2c0      	uxtb	r0, r0
     c66:	2253      	movs	r2, #83	; 0x53
     c68:	4904      	ldr	r1, [pc, #16]	; (c7c <usart_sync_enable+0x20>)
     c6a:	4b05      	ldr	r3, [pc, #20]	; (c80 <usart_sync_enable+0x24>)
     c6c:	4798      	blx	r3
	_usart_sync_enable(&descr->device);
     c6e:	0020      	movs	r0, r4
     c70:	3008      	adds	r0, #8
     c72:	4b04      	ldr	r3, [pc, #16]	; (c84 <usart_sync_enable+0x28>)
     c74:	4798      	blx	r3
}
     c76:	2000      	movs	r0, #0
     c78:	bd10      	pop	{r4, pc}
     c7a:	46c0      	nop			; (mov r8, r8)
     c7c:	0000a09c 	.word	0x0000a09c
     c80:	00000c89 	.word	0x00000c89
     c84:	00000f19 	.word	0x00000f19

00000c88 <assert>:
/**
 * \brief Assert function
 */
void assert(const bool condition, const char *const file, const int line)
{
	if (!(condition)) {
     c88:	2800      	cmp	r0, #0
     c8a:	d100      	bne.n	c8e <assert+0x6>
		__asm("BKPT #0");
     c8c:	be00      	bkpt	0x0000
	}
	(void)file;
	(void)line;
}
     c8e:	4770      	bx	lr

00000c90 <_sbrk>:

/**
 * \brief Replacement of C library of _sbrk
 */
extern caddr_t _sbrk(int incr)
{
     c90:	0003      	movs	r3, r0
	static unsigned char *heap = NULL;
	unsigned char *       prev_heap;

	if (heap == NULL) {
     c92:	4a06      	ldr	r2, [pc, #24]	; (cac <_sbrk+0x1c>)
     c94:	6812      	ldr	r2, [r2, #0]
     c96:	2a00      	cmp	r2, #0
     c98:	d004      	beq.n	ca4 <_sbrk+0x14>
		heap = (unsigned char *)&_end;
	}
	prev_heap = heap;
     c9a:	4a04      	ldr	r2, [pc, #16]	; (cac <_sbrk+0x1c>)
     c9c:	6810      	ldr	r0, [r2, #0]

	heap += incr;
     c9e:	18c3      	adds	r3, r0, r3
     ca0:	6013      	str	r3, [r2, #0]

	return (caddr_t)prev_heap;
}
     ca2:	4770      	bx	lr
		heap = (unsigned char *)&_end;
     ca4:	4902      	ldr	r1, [pc, #8]	; (cb0 <_sbrk+0x20>)
     ca6:	4a01      	ldr	r2, [pc, #4]	; (cac <_sbrk+0x1c>)
     ca8:	6011      	str	r1, [r2, #0]
     caa:	e7f6      	b.n	c9a <_sbrk+0xa>
     cac:	200009d4 	.word	0x200009d4
     cb0:	20002a98 	.word	0x20002a98

00000cb4 <_close>:
 */
extern int _close(int file)
{
	(void)file;
	return -1;
}
     cb4:	2001      	movs	r0, #1
     cb6:	4240      	negs	r0, r0
     cb8:	4770      	bx	lr

00000cba <_fstat>:
 * \brief Replacement of C library of _fstat
 */
extern int _fstat(int file, struct stat *st)
{
	(void)file;
	st->st_mode = S_IFCHR;
     cba:	2380      	movs	r3, #128	; 0x80
     cbc:	019b      	lsls	r3, r3, #6
     cbe:	604b      	str	r3, [r1, #4]

	return 0;
}
     cc0:	2000      	movs	r0, #0
     cc2:	4770      	bx	lr

00000cc4 <_isatty>:
 */
extern int _isatty(int file)
{
	(void)file;
	return 1;
}
     cc4:	2001      	movs	r0, #1
     cc6:	4770      	bx	lr

00000cc8 <_lseek>:
 */
extern int _lseek(int file, int ptr, int dir)
{
	(void)file, (void)ptr, (void)dir;
	return 0;
}
     cc8:	2000      	movs	r0, #0
     cca:	4770      	bx	lr

00000ccc <_get_cycles_for_ms>:
{
	switch (power) {
	case 8:
		return (ms * (freq / 100000)) * 100;
	case 7:
		return (ms * (freq / 10000)) * 10;
     ccc:	23fa      	movs	r3, #250	; 0xfa
     cce:	015b      	lsls	r3, r3, #5
     cd0:	4358      	muls	r0, r3
 * \brief Retrieve the amount of cycles to delay for the given amount of ms
 */
uint32_t _get_cycles_for_ms(const uint16_t ms)
{
	return _get_cycles_for_ms_internal(ms, CONF_CPU_FREQUENCY, CPU_FREQ_POWER);
}
     cd2:	4770      	bx	lr

00000cd4 <_init_chip>:

/**
 * \brief Initialize the hardware abstraction layer
 */
void _init_chip(void)
{
     cd4:	b510      	push	{r4, lr}
}

static inline void hri_nvmctrl_set_CTRLB_RWS_bf(const void *const hw, hri_nvmctrl_ctrlb_reg_t mask)
{
	NVMCTRL_CRITICAL_SECTION_ENTER();
	((Nvmctrl *)hw)->CTRLB.reg |= NVMCTRL_CTRLB_RWS(mask);
     cd6:	4b06      	ldr	r3, [pc, #24]	; (cf0 <_init_chip+0x1c>)
     cd8:	685a      	ldr	r2, [r3, #4]
     cda:	605a      	str	r2, [r3, #4]
	hri_nvmctrl_set_CTRLB_RWS_bf(NVMCTRL, CONF_NVM_WAIT_STATE);

	_pm_init();
     cdc:	4b05      	ldr	r3, [pc, #20]	; (cf4 <_init_chip+0x20>)
     cde:	4798      	blx	r3
	_sysctrl_init_sources();
     ce0:	4b05      	ldr	r3, [pc, #20]	; (cf8 <_init_chip+0x24>)
     ce2:	4798      	blx	r3
#if _GCLK_INIT_1ST
	_gclk_init_generators_by_fref(_GCLK_INIT_1ST);
#endif
	_sysctrl_init_referenced_generators();
     ce4:	4b05      	ldr	r3, [pc, #20]	; (cfc <_init_chip+0x28>)
     ce6:	4798      	blx	r3
	_gclk_init_generators_by_fref(_GCLK_INIT_LAST);
     ce8:	20ff      	movs	r0, #255	; 0xff
     cea:	4b05      	ldr	r3, [pc, #20]	; (d00 <_init_chip+0x2c>)
     cec:	4798      	blx	r3
#if CONF_DMAC_ENABLE
	_pm_enable_bus_clock(PM_BUS_AHB, DMAC);
	_pm_enable_bus_clock(PM_BUS_APBB, DMAC);
	_dma_init();
#endif
}
     cee:	bd10      	pop	{r4, pc}
     cf0:	41004000 	.word	0x41004000
     cf4:	00000d25 	.word	0x00000d25
     cf8:	00001549 	.word	0x00001549
     cfc:	0000158d 	.word	0x0000158d
     d00:	00000d05 	.word	0x00000d05

00000d04 <_gclk_init_generators_by_fref>:

void _gclk_init_generators_by_fref(uint32_t bm)
{

#if CONF_GCLK_GENERATOR_0_CONFIG == 1
	if (bm & (1ul << 0)) {
     d04:	07c3      	lsls	r3, r0, #31
     d06:	d50a      	bpl.n	d1e <_gclk_init_generators_by_fref+0x1a>
}

static inline void hri_gclk_write_GENDIV_reg(const void *const hw, hri_gclk_gendiv_reg_t data)
{
	GCLK_CRITICAL_SECTION_ENTER();
	((Gclk *)hw)->GENDIV.reg = data;
     d08:	4b05      	ldr	r3, [pc, #20]	; (d20 <_gclk_init_generators_by_fref+0x1c>)
     d0a:	2280      	movs	r2, #128	; 0x80
     d0c:	0052      	lsls	r2, r2, #1
     d0e:	609a      	str	r2, [r3, #8]
	((Gclk *)hw)->GENCTRL.reg = data;
     d10:	2283      	movs	r2, #131	; 0x83
     d12:	0252      	lsls	r2, r2, #9
     d14:	605a      	str	r2, [r3, #4]
	while (((const Gclk *)hw)->STATUS.bit.SYNCBUSY)
     d16:	001a      	movs	r2, r3
     d18:	7853      	ldrb	r3, [r2, #1]
     d1a:	09db      	lsrs	r3, r3, #7
     d1c:	d1fc      	bne.n	d18 <_gclk_init_generators_by_fref+0x14>
		        | (CONF_GCLK_GEN_8_DIVSEL << GCLK_GENCTRL_DIVSEL_Pos) | (CONF_GCLK_GEN_8_OE << GCLK_GENCTRL_OE_Pos)
		        | (CONF_GCLK_GEN_8_OOV << GCLK_GENCTRL_OOV_Pos) | (CONF_GCLK_GEN_8_IDC << GCLK_GENCTRL_IDC_Pos)
		        | (CONF_GCLK_GENERATOR_8_CONFIG << GCLK_GENCTRL_GENEN_Pos) | CONF_GCLK_GEN_8_SRC | GCLK_GENCTRL_ID(8));
	}
#endif
}
     d1e:	4770      	bx	lr
     d20:	40000c00 	.word	0x40000c00

00000d24 <_pm_init>:
}

static inline void hri_pm_set_CPUSEL_CPUDIV_bf(const void *const hw, hri_pm_cpusel_reg_t mask)
{
	PM_CRITICAL_SECTION_ENTER();
	((Pm *)hw)->CPUSEL.reg |= PM_CPUSEL_CPUDIV(mask);
     d24:	4b06      	ldr	r3, [pc, #24]	; (d40 <_pm_init+0x1c>)
     d26:	7a1a      	ldrb	r2, [r3, #8]
     d28:	b2d2      	uxtb	r2, r2
     d2a:	721a      	strb	r2, [r3, #8]
}

static inline void hri_pm_set_APBASEL_APBADIV_bf(const void *const hw, hri_pm_apbasel_reg_t mask)
{
	PM_CRITICAL_SECTION_ENTER();
	((Pm *)hw)->APBASEL.reg |= PM_APBASEL_APBADIV(mask);
     d2c:	7a5a      	ldrb	r2, [r3, #9]
     d2e:	b2d2      	uxtb	r2, r2
     d30:	725a      	strb	r2, [r3, #9]
}

static inline void hri_pm_set_APBBSEL_APBBDIV_bf(const void *const hw, hri_pm_apbbsel_reg_t mask)
{
	PM_CRITICAL_SECTION_ENTER();
	((Pm *)hw)->APBBSEL.reg |= PM_APBBSEL_APBBDIV(mask);
     d32:	7a9a      	ldrb	r2, [r3, #10]
     d34:	b2d2      	uxtb	r2, r2
     d36:	729a      	strb	r2, [r3, #10]
}

static inline void hri_pm_set_APBCSEL_APBCDIV_bf(const void *const hw, hri_pm_apbcsel_reg_t mask)
{
	PM_CRITICAL_SECTION_ENTER();
	((Pm *)hw)->APBCSEL.reg |= PM_APBCSEL_APBCDIV(mask);
     d38:	7ada      	ldrb	r2, [r3, #11]
     d3a:	b2d2      	uxtb	r2, r2
     d3c:	72da      	strb	r2, [r3, #11]
{
	hri_pm_set_CPUSEL_CPUDIV_bf(PM, CONF_CPU_DIV);
	hri_pm_set_APBASEL_APBADIV_bf(PM, CONF_APBA_DIV);
	hri_pm_set_APBBSEL_APBBDIV_bf(PM, CONF_APBB_DIV);
	hri_pm_set_APBCSEL_APBCDIV_bf(PM, CONF_APBC_DIV);
}
     d3e:	4770      	bx	lr
     d40:	40000400 	.word	0x40000400

00000d44 <_get_i2cm_index>:
 * \param[in] hw The pointer to hardware instance

 * \return The ordinal number of the given sercom hardware instance
 */
static int8_t _get_i2cm_index(const void *const hw)
{
     d44:	b510      	push	{r4, lr}
	return ((uint32_t)hw - (uint32_t)SERCOM0) >> 10;
     d46:	4b08      	ldr	r3, [pc, #32]	; (d68 <_get_i2cm_index+0x24>)
     d48:	469c      	mov	ip, r3
     d4a:	4460      	add	r0, ip
     d4c:	0a80      	lsrs	r0, r0, #10
	uint8_t sercom_offset = _sercom_get_hardware_index(hw);
	uint8_t i;

	for (i = 0; i < ARRAY_SIZE(_i2cms); i++) {
		if (_i2cms[i].number == sercom_offset) {
     d4e:	b2c0      	uxtb	r0, r0
     d50:	2800      	cmp	r0, #0
     d52:	d007      	beq.n	d64 <_get_i2cm_index+0x20>
			return i;
		}
	}

	ASSERT(false);
     d54:	22e6      	movs	r2, #230	; 0xe6
     d56:	0092      	lsls	r2, r2, #2
     d58:	4904      	ldr	r1, [pc, #16]	; (d6c <_get_i2cm_index+0x28>)
     d5a:	2000      	movs	r0, #0
     d5c:	4b04      	ldr	r3, [pc, #16]	; (d70 <_get_i2cm_index+0x2c>)
     d5e:	4798      	blx	r3
	return -1;
     d60:	2001      	movs	r0, #1
     d62:	4240      	negs	r0, r0
}
     d64:	bd10      	pop	{r4, pc}
     d66:	46c0      	nop			; (mov r8, r8)
     d68:	bdfff800 	.word	0xbdfff800
     d6c:	0000a0d0 	.word	0x0000a0d0
     d70:	00000c89 	.word	0x00000c89

00000d74 <_i2c_m_sync_init_impl>:
	}
	return ERR_NONE;
}

static int32_t _i2c_m_sync_init_impl(struct _i2c_m_service *const service, void *const hw)
{
     d74:	b570      	push	{r4, r5, r6, lr}
     d76:	0005      	movs	r5, r0
     d78:	000c      	movs	r4, r1
	uint8_t i = _get_i2cm_index(hw);
     d7a:	0008      	movs	r0, r1
     d7c:	4b31      	ldr	r3, [pc, #196]	; (e44 <_i2c_m_sync_init_impl+0xd0>)
     d7e:	4798      	blx	r3
     d80:	b2c0      	uxtb	r0, r0
	};
}

static inline bool hri_sercomi2cm_is_syncing(const void *const hw, hri_sercomi2cm_syncbusy_reg_t reg)
{
	return ((Sercom *)hw)->I2CM.SYNCBUSY.reg & reg;
     d82:	69e3      	ldr	r3, [r4, #28]

	if (!hri_sercomi2cm_is_syncing(hw, SERCOM_I2CM_SYNCBUSY_SWRST)) {
     d84:	07db      	lsls	r3, r3, #31
     d86:	d421      	bmi.n	dcc <_i2c_m_sync_init_impl+0x58>
		uint32_t mode = _i2cms[i].ctrl_a & SERCOM_I2CM_CTRLA_MODE_Msk;
     d88:	0043      	lsls	r3, r0, #1
     d8a:	181b      	adds	r3, r3, r0
     d8c:	00db      	lsls	r3, r3, #3
     d8e:	4a2e      	ldr	r2, [pc, #184]	; (e48 <_i2c_m_sync_init_impl+0xd4>)
     d90:	18d3      	adds	r3, r2, r3
     d92:	6859      	ldr	r1, [r3, #4]
     d94:	231c      	movs	r3, #28
     d96:	4019      	ands	r1, r3
	while (((Sercom *)hw)->I2CM.SYNCBUSY.reg & reg) {
     d98:	2203      	movs	r2, #3
     d9a:	69e3      	ldr	r3, [r4, #28]
     d9c:	421a      	tst	r2, r3
     d9e:	d1fc      	bne.n	d9a <_i2c_m_sync_init_impl+0x26>
static inline hri_sercomi2cm_ctrla_reg_t hri_sercomi2cm_get_CTRLA_reg(const void *const          hw,
                                                                      hri_sercomi2cm_ctrla_reg_t mask)
{
	uint32_t tmp;
	hri_sercomi2cm_wait_for_sync(hw, SERCOM_I2CM_SYNCBUSY_SWRST | SERCOM_I2CM_SYNCBUSY_ENABLE);
	tmp = ((Sercom *)hw)->I2CM.CTRLA.reg;
     da0:	6823      	ldr	r3, [r4, #0]
		if (hri_sercomi2cm_get_CTRLA_reg(hw, SERCOM_I2CM_CTRLA_ENABLE)) {
     da2:	079b      	lsls	r3, r3, #30
     da4:	d50b      	bpl.n	dbe <_i2c_m_sync_init_impl+0x4a>
	((Sercom *)hw)->I2CM.CTRLA.reg &= ~SERCOM_I2CM_CTRLA_ENABLE;
     da6:	6823      	ldr	r3, [r4, #0]
     da8:	2202      	movs	r2, #2
     daa:	4393      	bics	r3, r2
     dac:	6023      	str	r3, [r4, #0]
	while (((Sercom *)hw)->I2CM.SYNCBUSY.reg & reg) {
     dae:	3201      	adds	r2, #1
     db0:	69e3      	ldr	r3, [r4, #28]
     db2:	421a      	tst	r2, r3
     db4:	d1fc      	bne.n	db0 <_i2c_m_sync_init_impl+0x3c>
     db6:	2202      	movs	r2, #2
     db8:	69e3      	ldr	r3, [r4, #28]
     dba:	421a      	tst	r2, r3
     dbc:	d1fc      	bne.n	db8 <_i2c_m_sync_init_impl+0x44>
			hri_sercomi2cm_clear_CTRLA_ENABLE_bit(hw);
			hri_sercomi2cm_wait_for_sync(hw, SERCOM_I2CM_SYNCBUSY_ENABLE);
		}
		hri_sercomi2cm_write_CTRLA_reg(hw, SERCOM_I2CM_CTRLA_SWRST | mode);
     dbe:	2301      	movs	r3, #1
     dc0:	430b      	orrs	r3, r1
}

static inline void hri_sercomi2cm_write_CTRLA_reg(const void *const hw, hri_sercomi2cm_ctrla_reg_t data)
{
	SERCOM_CRITICAL_SECTION_ENTER();
	((Sercom *)hw)->I2CM.CTRLA.reg = data;
     dc2:	6023      	str	r3, [r4, #0]
	while (((Sercom *)hw)->I2CM.SYNCBUSY.reg & reg) {
     dc4:	2203      	movs	r2, #3
     dc6:	69e3      	ldr	r3, [r4, #28]
     dc8:	421a      	tst	r2, r3
     dca:	d1fc      	bne.n	dc6 <_i2c_m_sync_init_impl+0x52>
     dcc:	2201      	movs	r2, #1
     dce:	69e3      	ldr	r3, [r4, #28]
     dd0:	421a      	tst	r2, r3
     dd2:	d1fc      	bne.n	dce <_i2c_m_sync_init_impl+0x5a>
	}
	hri_sercomi2cm_wait_for_sync(hw, SERCOM_I2CM_SYNCBUSY_SWRST);

	hri_sercomi2cm_write_CTRLA_reg(hw, _i2cms[i].ctrl_a);
     dd4:	0043      	lsls	r3, r0, #1
     dd6:	181b      	adds	r3, r3, r0
     dd8:	00db      	lsls	r3, r3, #3
     dda:	4a1b      	ldr	r2, [pc, #108]	; (e48 <_i2c_m_sync_init_impl+0xd4>)
     ddc:	18d3      	adds	r3, r2, r3
     dde:	6859      	ldr	r1, [r3, #4]
	((Sercom *)hw)->I2CM.CTRLA.reg = data;
     de0:	6021      	str	r1, [r4, #0]
	while (((Sercom *)hw)->I2CM.SYNCBUSY.reg & reg) {
     de2:	2203      	movs	r2, #3
     de4:	69e3      	ldr	r3, [r4, #28]
     de6:	421a      	tst	r2, r3
     de8:	d1fc      	bne.n	de4 <_i2c_m_sync_init_impl+0x70>
	hri_sercomi2cm_write_CTRLB_reg(hw, _i2cms[i].ctrl_b);
     dea:	0043      	lsls	r3, r0, #1
     dec:	181b      	adds	r3, r3, r0
     dee:	00db      	lsls	r3, r3, #3
     df0:	4a15      	ldr	r2, [pc, #84]	; (e48 <_i2c_m_sync_init_impl+0xd4>)
     df2:	18d3      	adds	r3, r2, r3
     df4:	689b      	ldr	r3, [r3, #8]
}

static inline void hri_sercomi2cm_write_CTRLB_reg(const void *const hw, hri_sercomi2cm_ctrlb_reg_t data)
{
	SERCOM_CRITICAL_SECTION_ENTER();
	((Sercom *)hw)->I2CM.CTRLB.reg = data;
     df6:	6063      	str	r3, [r4, #4]
	while (((Sercom *)hw)->I2CM.SYNCBUSY.reg & reg) {
     df8:	2204      	movs	r2, #4
     dfa:	69e3      	ldr	r3, [r4, #28]
     dfc:	421a      	tst	r2, r3
     dfe:	d1fc      	bne.n	dfa <_i2c_m_sync_init_impl+0x86>
	hri_sercomi2cm_write_BAUD_reg(hw, _i2cms[i].baud);
     e00:	0043      	lsls	r3, r0, #1
     e02:	181b      	adds	r3, r3, r0
     e04:	00db      	lsls	r3, r3, #3
     e06:	4a10      	ldr	r2, [pc, #64]	; (e48 <_i2c_m_sync_init_impl+0xd4>)
     e08:	18d3      	adds	r3, r2, r3
     e0a:	68db      	ldr	r3, [r3, #12]
}

static inline void hri_sercomi2cm_write_BAUD_reg(const void *const hw, hri_sercomi2cm_baud_reg_t data)
{
	SERCOM_CRITICAL_SECTION_ENTER();
	((Sercom *)hw)->I2CM.BAUD.reg = data;
     e0c:	60e3      	str	r3, [r4, #12]

	service->mode = (_i2cms[i].ctrl_a & SERCOM_I2CM_CTRLA_SPEED_Msk) >> SERCOM_I2CM_CTRLA_SPEED_Pos;
     e0e:	0189      	lsls	r1, r1, #6
     e10:	0f89      	lsrs	r1, r1, #30
     e12:	81a9      	strh	r1, [r5, #12]

static inline void hri_sercomi2cm_write_ADDR_HS_bit(const void *const hw, bool value)
{
	uint32_t tmp;
	SERCOM_CRITICAL_SECTION_ENTER();
	tmp = ((Sercom *)hw)->I2CM.ADDR.reg;
     e14:	6a63      	ldr	r3, [r4, #36]	; 0x24
	tmp &= ~SERCOM_I2CM_ADDR_HS;
     e16:	4e0d      	ldr	r6, [pc, #52]	; (e4c <_i2c_m_sync_init_impl+0xd8>)
     e18:	401e      	ands	r6, r3
	hri_sercomi2cm_write_ADDR_HS_bit(hw, service->mode < I2C_HS ? 0 : 1);
     e1a:	2301      	movs	r3, #1
     e1c:	428b      	cmp	r3, r1
     e1e:	419b      	sbcs	r3, r3
     e20:	425b      	negs	r3, r3
	tmp |= value << SERCOM_I2CM_ADDR_HS_Pos;
     e22:	039b      	lsls	r3, r3, #14
     e24:	4333      	orrs	r3, r6
	((Sercom *)hw)->I2CM.ADDR.reg = tmp;
     e26:	6263      	str	r3, [r4, #36]	; 0x24
	while (((Sercom *)hw)->I2CM.SYNCBUSY.reg & reg) {
     e28:	2204      	movs	r2, #4
     e2a:	69e3      	ldr	r3, [r4, #28]
     e2c:	421a      	tst	r2, r3
     e2e:	d1fc      	bne.n	e2a <_i2c_m_sync_init_impl+0xb6>

	service->trise = _i2cms[i].trise;
     e30:	0043      	lsls	r3, r0, #1
     e32:	1818      	adds	r0, r3, r0
     e34:	00c0      	lsls	r0, r0, #3
     e36:	4b04      	ldr	r3, [pc, #16]	; (e48 <_i2c_m_sync_init_impl+0xd4>)
     e38:	1818      	adds	r0, r3, r0
     e3a:	8a43      	ldrh	r3, [r0, #18]
     e3c:	81eb      	strh	r3, [r5, #14]

	return ERR_NONE;
}
     e3e:	2000      	movs	r0, #0
     e40:	bd70      	pop	{r4, r5, r6, pc}
     e42:	46c0      	nop			; (mov r8, r8)
     e44:	00000d45 	.word	0x00000d45
     e48:	0000a0b8 	.word	0x0000a0b8
     e4c:	ffffbfff 	.word	0xffffbfff

00000e50 <_usart_init>:
{
     e50:	b510      	push	{r4, lr}
     e52:	0004      	movs	r4, r0
	return ((uint32_t)hw - (uint32_t)SERCOM0) >> 10;
     e54:	4b1f      	ldr	r3, [pc, #124]	; (ed4 <_usart_init+0x84>)
     e56:	18c3      	adds	r3, r0, r3
     e58:	0a9b      	lsrs	r3, r3, #10
		if (_usarts[i].number == sercom_offset) {
     e5a:	b2db      	uxtb	r3, r3
     e5c:	2b03      	cmp	r3, #3
     e5e:	d004      	beq.n	e6a <_usart_init+0x1a>
	ASSERT(false);
     e60:	4a1d      	ldr	r2, [pc, #116]	; (ed8 <_usart_init+0x88>)
     e62:	491e      	ldr	r1, [pc, #120]	; (edc <_usart_init+0x8c>)
     e64:	2000      	movs	r0, #0
     e66:	4b1e      	ldr	r3, [pc, #120]	; (ee0 <_usart_init+0x90>)
     e68:	4798      	blx	r3
	return ((Sercom *)hw)->USART.SYNCBUSY.reg & reg;
     e6a:	69e3      	ldr	r3, [r4, #28]
	if (!hri_sercomusart_is_syncing(hw, SERCOM_USART_SYNCBUSY_SWRST)) {
     e6c:	07db      	lsls	r3, r3, #31
     e6e:	d418      	bmi.n	ea2 <_usart_init+0x52>
	while (((Sercom *)hw)->USART.SYNCBUSY.reg & reg) {
     e70:	2203      	movs	r2, #3
     e72:	69e3      	ldr	r3, [r4, #28]
     e74:	421a      	tst	r2, r3
     e76:	d1fc      	bne.n	e72 <_usart_init+0x22>
	tmp = ((Sercom *)hw)->USART.CTRLA.reg;
     e78:	6823      	ldr	r3, [r4, #0]
		if (hri_sercomusart_get_CTRLA_reg(hw, SERCOM_USART_CTRLA_ENABLE)) {
     e7a:	079b      	lsls	r3, r3, #30
     e7c:	d50b      	bpl.n	e96 <_usart_init+0x46>
	((Sercom *)hw)->USART.CTRLA.reg &= ~SERCOM_USART_CTRLA_ENABLE;
     e7e:	6823      	ldr	r3, [r4, #0]
     e80:	2202      	movs	r2, #2
     e82:	4393      	bics	r3, r2
     e84:	6023      	str	r3, [r4, #0]
	while (((Sercom *)hw)->USART.SYNCBUSY.reg & reg) {
     e86:	3201      	adds	r2, #1
     e88:	69e3      	ldr	r3, [r4, #28]
     e8a:	421a      	tst	r2, r3
     e8c:	d1fc      	bne.n	e88 <_usart_init+0x38>
     e8e:	2202      	movs	r2, #2
     e90:	69e3      	ldr	r3, [r4, #28]
     e92:	421a      	tst	r2, r3
     e94:	d1fc      	bne.n	e90 <_usart_init+0x40>
	((Sercom *)hw)->USART.CTRLA.reg = data;
     e96:	2305      	movs	r3, #5
     e98:	6023      	str	r3, [r4, #0]
	while (((Sercom *)hw)->USART.SYNCBUSY.reg & reg) {
     e9a:	2203      	movs	r2, #3
     e9c:	69e3      	ldr	r3, [r4, #28]
     e9e:	421a      	tst	r2, r3
     ea0:	d1fc      	bne.n	e9c <_usart_init+0x4c>
     ea2:	2201      	movs	r2, #1
     ea4:	69e3      	ldr	r3, [r4, #28]
     ea6:	421a      	tst	r2, r3
     ea8:	d1fc      	bne.n	ea4 <_usart_init+0x54>
	((Sercom *)hw)->USART.CTRLA.reg = data;
     eaa:	4b0e      	ldr	r3, [pc, #56]	; (ee4 <_usart_init+0x94>)
     eac:	6023      	str	r3, [r4, #0]
	while (((Sercom *)hw)->USART.SYNCBUSY.reg & reg) {
     eae:	2203      	movs	r2, #3
     eb0:	69e3      	ldr	r3, [r4, #28]
     eb2:	421a      	tst	r2, r3
     eb4:	d1fc      	bne.n	eb0 <_usart_init+0x60>
	((Sercom *)hw)->USART.CTRLB.reg = data;
     eb6:	23c0      	movs	r3, #192	; 0xc0
     eb8:	029b      	lsls	r3, r3, #10
     eba:	6063      	str	r3, [r4, #4]
	while (((Sercom *)hw)->USART.SYNCBUSY.reg & reg) {
     ebc:	2207      	movs	r2, #7
     ebe:	69e3      	ldr	r3, [r4, #28]
     ec0:	421a      	tst	r2, r3
     ec2:	d1fc      	bne.n	ebe <_usart_init+0x6e>
	((Sercom *)hw)->USART.BAUD.reg = data;
     ec4:	4b08      	ldr	r3, [pc, #32]	; (ee8 <_usart_init+0x98>)
     ec6:	81a3      	strh	r3, [r4, #12]
	((Sercom *)hw)->USART.RXPL.reg = data;
     ec8:	2300      	movs	r3, #0
     eca:	73a3      	strb	r3, [r4, #14]
}

static inline void hri_sercomusart_write_DBGCTRL_reg(const void *const hw, hri_sercomusart_dbgctrl_reg_t data)
{
	SERCOM_CRITICAL_SECTION_ENTER();
	((Sercom *)hw)->USART.DBGCTRL.reg = data;
     ecc:	2230      	movs	r2, #48	; 0x30
     ece:	54a3      	strb	r3, [r4, r2]
}
     ed0:	2000      	movs	r0, #0
     ed2:	bd10      	pop	{r4, pc}
     ed4:	bdfff800 	.word	0xbdfff800
     ed8:	0000023a 	.word	0x0000023a
     edc:	0000a0d0 	.word	0x0000a0d0
     ee0:	00000c89 	.word	0x00000c89
     ee4:	40100004 	.word	0x40100004
     ee8:	ffffc504 	.word	0xffffc504

00000eec <_usart_sync_init>:
{
     eec:	b570      	push	{r4, r5, r6, lr}
     eee:	0005      	movs	r5, r0
     ef0:	000c      	movs	r4, r1
	ASSERT(device);
     ef2:	1e43      	subs	r3, r0, #1
     ef4:	4198      	sbcs	r0, r3
     ef6:	b2c0      	uxtb	r0, r0
     ef8:	22b4      	movs	r2, #180	; 0xb4
     efa:	4904      	ldr	r1, [pc, #16]	; (f0c <_usart_sync_init+0x20>)
     efc:	4b04      	ldr	r3, [pc, #16]	; (f10 <_usart_sync_init+0x24>)
     efe:	4798      	blx	r3
	device->hw = hw;
     f00:	602c      	str	r4, [r5, #0]
	return _usart_init(hw);
     f02:	0020      	movs	r0, r4
     f04:	4b03      	ldr	r3, [pc, #12]	; (f14 <_usart_sync_init+0x28>)
     f06:	4798      	blx	r3
}
     f08:	bd70      	pop	{r4, r5, r6, pc}
     f0a:	46c0      	nop			; (mov r8, r8)
     f0c:	0000a0d0 	.word	0x0000a0d0
     f10:	00000c89 	.word	0x00000c89
     f14:	00000e51 	.word	0x00000e51

00000f18 <_usart_sync_enable>:
	hri_sercomusart_set_CTRLA_ENABLE_bit(device->hw);
     f18:	6802      	ldr	r2, [r0, #0]
	((Sercom *)hw)->USART.CTRLA.reg |= SERCOM_USART_CTRLA_ENABLE;
     f1a:	6813      	ldr	r3, [r2, #0]
     f1c:	2102      	movs	r1, #2
     f1e:	430b      	orrs	r3, r1
     f20:	6013      	str	r3, [r2, #0]
	while (((Sercom *)hw)->USART.SYNCBUSY.reg & reg) {
     f22:	3101      	adds	r1, #1
     f24:	69d3      	ldr	r3, [r2, #28]
     f26:	4219      	tst	r1, r3
     f28:	d1fc      	bne.n	f24 <_usart_sync_enable+0xc>
}
     f2a:	4770      	bx	lr

00000f2c <_usart_sync_write_byte>:
	hri_sercomusart_write_DATA_reg(device->hw, data);
     f2c:	6803      	ldr	r3, [r0, #0]
     f2e:	b289      	uxth	r1, r1
	((Sercom *)hw)->USART.DATA.reg = data;
     f30:	8519      	strh	r1, [r3, #40]	; 0x28
}
     f32:	4770      	bx	lr

00000f34 <_usart_sync_read_byte>:
	return hri_sercomusart_read_DATA_reg(device->hw);
     f34:	6803      	ldr	r3, [r0, #0]
	return ((Sercom *)hw)->USART.DATA.reg;
     f36:	8d18      	ldrh	r0, [r3, #40]	; 0x28
     f38:	b2c0      	uxtb	r0, r0
}
     f3a:	4770      	bx	lr

00000f3c <_usart_sync_is_ready_to_send>:
	return hri_sercomusart_get_interrupt_DRE_bit(device->hw);
     f3c:	6803      	ldr	r3, [r0, #0]
	return (((Sercom *)hw)->USART.INTFLAG.reg & SERCOM_USART_INTFLAG_DRE) >> SERCOM_USART_INTFLAG_DRE_Pos;
     f3e:	7e18      	ldrb	r0, [r3, #24]
     f40:	2301      	movs	r3, #1
     f42:	4018      	ands	r0, r3
}
     f44:	4770      	bx	lr

00000f46 <_usart_sync_is_transmit_done>:
	return hri_sercomusart_get_interrupt_TXC_bit(device->hw);
     f46:	6803      	ldr	r3, [r0, #0]
	return (((Sercom *)hw)->USART.INTFLAG.reg & SERCOM_USART_INTFLAG_TXC) >> SERCOM_USART_INTFLAG_TXC_Pos;
     f48:	7e18      	ldrb	r0, [r3, #24]
     f4a:	0780      	lsls	r0, r0, #30
     f4c:	0fc0      	lsrs	r0, r0, #31
}
     f4e:	4770      	bx	lr

00000f50 <_usart_sync_is_byte_received>:
	return hri_sercomusart_get_interrupt_RXC_bit(device->hw);
     f50:	6803      	ldr	r3, [r0, #0]
	return (((Sercom *)hw)->USART.INTFLAG.reg & SERCOM_USART_INTFLAG_RXC) >> SERCOM_USART_INTFLAG_RXC_Pos;
     f52:	7e18      	ldrb	r0, [r3, #24]
     f54:	0740      	lsls	r0, r0, #29
     f56:	0fc0      	lsrs	r0, r0, #31
}
     f58:	4770      	bx	lr
	...

00000f5c <_i2c_m_sync_init>:
{
     f5c:	b570      	push	{r4, r5, r6, lr}
     f5e:	0004      	movs	r4, r0
     f60:	000d      	movs	r5, r1
	ASSERT(i2c_dev);
     f62:	1e43      	subs	r3, r0, #1
     f64:	4198      	sbcs	r0, r3
     f66:	b2c0      	uxtb	r0, r0
     f68:	4a04      	ldr	r2, [pc, #16]	; (f7c <_i2c_m_sync_init+0x20>)
     f6a:	4905      	ldr	r1, [pc, #20]	; (f80 <_i2c_m_sync_init+0x24>)
     f6c:	4b05      	ldr	r3, [pc, #20]	; (f84 <_i2c_m_sync_init+0x28>)
     f6e:	4798      	blx	r3
	i2c_dev->hw = hw;
     f70:	6125      	str	r5, [r4, #16]
	return _i2c_m_sync_init_impl(&i2c_dev->service, hw);
     f72:	0029      	movs	r1, r5
     f74:	0020      	movs	r0, r4
     f76:	4b04      	ldr	r3, [pc, #16]	; (f88 <_i2c_m_sync_init+0x2c>)
     f78:	4798      	blx	r3
}
     f7a:	bd70      	pop	{r4, r5, r6, pc}
     f7c:	00000507 	.word	0x00000507
     f80:	0000a0d0 	.word	0x0000a0d0
     f84:	00000c89 	.word	0x00000c89
     f88:	00000d75 	.word	0x00000d75

00000f8c <_i2c_m_sync_enable>:
{
     f8c:	b570      	push	{r4, r5, r6, lr}
     f8e:	0004      	movs	r4, r0
	ASSERT(i2c_dev);
     f90:	4d1a      	ldr	r5, [pc, #104]	; (ffc <_i2c_m_sync_enable+0x70>)
     f92:	1e43      	subs	r3, r0, #1
     f94:	4198      	sbcs	r0, r3
     f96:	b2c0      	uxtb	r0, r0
     f98:	4a19      	ldr	r2, [pc, #100]	; (1000 <_i2c_m_sync_enable+0x74>)
     f9a:	0029      	movs	r1, r5
     f9c:	4e19      	ldr	r6, [pc, #100]	; (1004 <_i2c_m_sync_enable+0x78>)
     f9e:	47b0      	blx	r6
	return _i2c_m_enable_implementation(i2c_dev->hw);
     fa0:	6924      	ldr	r4, [r4, #16]
	ASSERT(hw);
     fa2:	0020      	movs	r0, r4
     fa4:	1e43      	subs	r3, r0, #1
     fa6:	4198      	sbcs	r0, r3
     fa8:	b2c0      	uxtb	r0, r0
     faa:	4a17      	ldr	r2, [pc, #92]	; (1008 <_i2c_m_sync_enable+0x7c>)
     fac:	0029      	movs	r1, r5
     fae:	47b0      	blx	r6
	((Sercom *)hw)->I2CM.CTRLA.reg |= SERCOM_I2CM_CTRLA_ENABLE;
     fb0:	6823      	ldr	r3, [r4, #0]
     fb2:	2202      	movs	r2, #2
     fb4:	4313      	orrs	r3, r2
     fb6:	6023      	str	r3, [r4, #0]
	while (((Sercom *)hw)->I2CM.SYNCBUSY.reg & reg) {
     fb8:	3201      	adds	r2, #1
     fba:	69e3      	ldr	r3, [r4, #28]
     fbc:	421a      	tst	r2, r3
     fbe:	d1fc      	bne.n	fba <_i2c_m_sync_enable+0x2e>
     fc0:	2504      	movs	r5, #4
     fc2:	2204      	movs	r2, #4
}

static inline hri_sercomi2cm_status_reg_t hri_sercomi2cm_read_STATUS_BUSSTATE_bf(const void *const hw)
{
	hri_sercomi2cm_wait_for_sync(hw, SERCOM_I2CM_SYNCBUSY_SYSOP);
	return (((Sercom *)hw)->I2CM.STATUS.reg & SERCOM_I2CM_STATUS_BUSSTATE_Msk) >> SERCOM_I2CM_STATUS_BUSSTATE_Pos;
     fc4:	2003      	movs	r0, #3
}

static inline void hri_sercomi2cm_clear_STATUS_reg(const void *const hw, hri_sercomi2cm_status_reg_t mask)
{
	SERCOM_CRITICAL_SECTION_ENTER();
	((Sercom *)hw)->I2CM.STATUS.reg = mask;
     fc6:	2610      	movs	r6, #16
	while (((Sercom *)hw)->I2CM.SYNCBUSY.reg & reg) {
     fc8:	4910      	ldr	r1, [pc, #64]	; (100c <_i2c_m_sync_enable+0x80>)
     fca:	69e3      	ldr	r3, [r4, #28]
     fcc:	421a      	tst	r2, r3
     fce:	d1fc      	bne.n	fca <_i2c_m_sync_enable+0x3e>
	return (((Sercom *)hw)->I2CM.STATUS.reg & SERCOM_I2CM_STATUS_BUSSTATE_Msk) >> SERCOM_I2CM_STATUS_BUSSTATE_Pos;
     fd0:	8b63      	ldrh	r3, [r4, #26]
     fd2:	091b      	lsrs	r3, r3, #4
	while (hri_sercomi2cm_read_STATUS_BUSSTATE_bf(hw) != I2C_IDLE) {
     fd4:	4003      	ands	r3, r0
     fd6:	2b01      	cmp	r3, #1
     fd8:	d00a      	beq.n	ff0 <_i2c_m_sync_enable+0x64>
     fda:	3901      	subs	r1, #1
		if (timeout <= 0) {
     fdc:	2900      	cmp	r1, #0
     fde:	d1f4      	bne.n	fca <_i2c_m_sync_enable+0x3e>
     fe0:	3d01      	subs	r5, #1
			if (--timeout_attempt)
     fe2:	2d00      	cmp	r5, #0
     fe4:	d006      	beq.n	ff4 <_i2c_m_sync_enable+0x68>
	((Sercom *)hw)->I2CM.STATUS.reg = mask;
     fe6:	8366      	strh	r6, [r4, #26]
	while (((Sercom *)hw)->I2CM.SYNCBUSY.reg & reg) {
     fe8:	69e3      	ldr	r3, [r4, #28]
     fea:	421a      	tst	r2, r3
     fec:	d1fc      	bne.n	fe8 <_i2c_m_sync_enable+0x5c>
     fee:	e7eb      	b.n	fc8 <_i2c_m_sync_enable+0x3c>
	return ERR_NONE;
     ff0:	2000      	movs	r0, #0
}
     ff2:	bd70      	pop	{r4, r5, r6, pc}
				return I2C_ERR_BUSY;
     ff4:	2006      	movs	r0, #6
     ff6:	4240      	negs	r0, r0
	return _i2c_m_enable_implementation(i2c_dev->hw);
     ff8:	e7fb      	b.n	ff2 <_i2c_m_sync_enable+0x66>
     ffa:	46c0      	nop			; (mov r8, r8)
     ffc:	0000a0d0 	.word	0x0000a0d0
    1000:	00000524 	.word	0x00000524
    1004:	00000c89 	.word	0x00000c89
    1008:	000005f4 	.word	0x000005f4
    100c:	0000ffff 	.word	0x0000ffff

00001010 <_i2c_m_sync_transfer>:
{
    1010:	b5f0      	push	{r4, r5, r6, r7, lr}
    1012:	46de      	mov	lr, fp
    1014:	4657      	mov	r7, sl
    1016:	464e      	mov	r6, r9
    1018:	4645      	mov	r5, r8
    101a:	b5e0      	push	{r5, r6, r7, lr}
    101c:	b083      	sub	sp, #12
    101e:	0005      	movs	r5, r0
    1020:	4688      	mov	r8, r1
	void *   hw = i2c_dev->hw;
    1022:	6904      	ldr	r4, [r0, #16]
	ASSERT(i2c_dev);
    1024:	0006      	movs	r6, r0
    1026:	1e73      	subs	r3, r6, #1
    1028:	419e      	sbcs	r6, r3
    102a:	b2f3      	uxtb	r3, r6
    102c:	9301      	str	r3, [sp, #4]
    102e:	4fb4      	ldr	r7, [pc, #720]	; (1300 <_i2c_m_sync_transfer+0x2f0>)
    1030:	4ab4      	ldr	r2, [pc, #720]	; (1304 <_i2c_m_sync_transfer+0x2f4>)
    1032:	0039      	movs	r1, r7
    1034:	0018      	movs	r0, r3
    1036:	4eb4      	ldr	r6, [pc, #720]	; (1308 <_i2c_m_sync_transfer+0x2f8>)
    1038:	47b0      	blx	r6
	ASSERT(i2c_dev->hw);
    103a:	6928      	ldr	r0, [r5, #16]
    103c:	1e43      	subs	r3, r0, #1
    103e:	4198      	sbcs	r0, r3
    1040:	b2c0      	uxtb	r0, r0
    1042:	22b8      	movs	r2, #184	; 0xb8
    1044:	00d2      	lsls	r2, r2, #3
    1046:	0039      	movs	r1, r7
    1048:	47b0      	blx	r6
	ASSERT(msg);
    104a:	4640      	mov	r0, r8
    104c:	1e43      	subs	r3, r0, #1
    104e:	4198      	sbcs	r0, r3
    1050:	b2c0      	uxtb	r0, r0
    1052:	4aae      	ldr	r2, [pc, #696]	; (130c <_i2c_m_sync_transfer+0x2fc>)
    1054:	0039      	movs	r1, r7
    1056:	47b0      	blx	r6
	if (i2c_dev->service.msg.flags & I2C_M_BUSY) {
    1058:	886b      	ldrh	r3, [r5, #2]
    105a:	05db      	lsls	r3, r3, #23
    105c:	d500      	bpl.n	1060 <_i2c_m_sync_transfer+0x50>
    105e:	e224      	b.n	14aa <_i2c_m_sync_transfer+0x49a>
	msg->flags |= I2C_M_BUSY;
    1060:	4643      	mov	r3, r8
    1062:	885a      	ldrh	r2, [r3, #2]
    1064:	2380      	movs	r3, #128	; 0x80
    1066:	005b      	lsls	r3, r3, #1
    1068:	431a      	orrs	r2, r3
    106a:	4641      	mov	r1, r8
    106c:	804a      	strh	r2, [r1, #2]
	i2c_dev->service.msg = *msg;
    106e:	002a      	movs	r2, r5
    1070:	c9c1      	ldmia	r1!, {r0, r6, r7}
    1072:	c2c1      	stmia	r2!, {r0, r6, r7}
	((Sercom *)hw)->I2CM.CTRLB.reg |= SERCOM_I2CM_CTRLB_SMEN;
    1074:	6862      	ldr	r2, [r4, #4]
    1076:	4313      	orrs	r3, r2
    1078:	6063      	str	r3, [r4, #4]
	while (((Sercom *)hw)->I2CM.SYNCBUSY.reg & reg) {
    107a:	2204      	movs	r2, #4
    107c:	69e3      	ldr	r3, [r4, #28]
    107e:	421a      	tst	r2, r3
    1080:	d1fc      	bne.n	107c <_i2c_m_sync_transfer+0x6c>
	void *             hw    = i2c_dev->hw;
    1082:	692f      	ldr	r7, [r5, #16]
	tmp = ((Sercom *)hw)->I2CM.CTRLA.reg;
    1084:	683b      	ldr	r3, [r7, #0]
    1086:	4699      	mov	r9, r3
	ASSERT(i2c_dev);
    1088:	4aa1      	ldr	r2, [pc, #644]	; (1310 <_i2c_m_sync_transfer+0x300>)
    108a:	499d      	ldr	r1, [pc, #628]	; (1300 <_i2c_m_sync_transfer+0x2f0>)
    108c:	9801      	ldr	r0, [sp, #4]
    108e:	4b9e      	ldr	r3, [pc, #632]	; (1308 <_i2c_m_sync_transfer+0x2f8>)
    1090:	4798      	blx	r3
	if (msg->len == 1 && sclsm) {
    1092:	686b      	ldr	r3, [r5, #4]
    1094:	2b01      	cmp	r3, #1
    1096:	d05a      	beq.n	114e <_i2c_m_sync_transfer+0x13e>
	((Sercom *)hw)->I2CM.CTRLB.reg &= ~SERCOM_I2CM_CTRLB_ACKACT;
    1098:	687b      	ldr	r3, [r7, #4]
    109a:	4a9e      	ldr	r2, [pc, #632]	; (1314 <_i2c_m_sync_transfer+0x304>)
    109c:	4013      	ands	r3, r2
    109e:	607b      	str	r3, [r7, #4]
	while (((Sercom *)hw)->I2CM.SYNCBUSY.reg & reg) {
    10a0:	2204      	movs	r2, #4
    10a2:	69fb      	ldr	r3, [r7, #28]
    10a4:	421a      	tst	r2, r3
    10a6:	d1fc      	bne.n	10a2 <_i2c_m_sync_transfer+0x92>
	if (msg->addr & I2C_M_TEN) {
    10a8:	882b      	ldrh	r3, [r5, #0]
    10aa:	055a      	lsls	r2, r3, #21
    10ac:	d55c      	bpl.n	1168 <_i2c_m_sync_transfer+0x158>
		if (msg->flags & I2C_M_RD) {
    10ae:	886a      	ldrh	r2, [r5, #2]
    10b0:	07d2      	lsls	r2, r2, #31
    10b2:	d504      	bpl.n	10be <_i2c_m_sync_transfer+0xae>
			msg->flags |= I2C_M_TEN;
    10b4:	886a      	ldrh	r2, [r5, #2]
    10b6:	2180      	movs	r1, #128	; 0x80
    10b8:	00c9      	lsls	r1, r1, #3
    10ba:	430a      	orrs	r2, r1
    10bc:	806a      	strh	r2, [r5, #2]
		                              ((msg->addr & TEN_ADDR_MASK) << 1) | SERCOM_I2CM_ADDR_TENBITEN
    10be:	005b      	lsls	r3, r3, #1
		                                  | (hri_sercomi2cm_read_ADDR_reg(hw) & SERCOM_I2CM_ADDR_HS));
    10c0:	4995      	ldr	r1, [pc, #596]	; (1318 <_i2c_m_sync_transfer+0x308>)
    10c2:	4019      	ands	r1, r3
    10c4:	2204      	movs	r2, #4
    10c6:	69fb      	ldr	r3, [r7, #28]
    10c8:	421a      	tst	r2, r3
    10ca:	d1fc      	bne.n	10c6 <_i2c_m_sync_transfer+0xb6>
	return ((Sercom *)hw)->I2CM.ADDR.reg;
    10cc:	6a7b      	ldr	r3, [r7, #36]	; 0x24
    10ce:	2280      	movs	r2, #128	; 0x80
    10d0:	01d2      	lsls	r2, r2, #7
    10d2:	401a      	ands	r2, r3
		hri_sercomi2cm_write_ADDR_reg(hw,
    10d4:	2380      	movs	r3, #128	; 0x80
    10d6:	021b      	lsls	r3, r3, #8
    10d8:	4313      	orrs	r3, r2
    10da:	4319      	orrs	r1, r3
	((Sercom *)hw)->I2CM.ADDR.reg = data;
    10dc:	6279      	str	r1, [r7, #36]	; 0x24
	while (((Sercom *)hw)->I2CM.SYNCBUSY.reg & reg) {
    10de:	2204      	movs	r2, #4
    10e0:	69fb      	ldr	r3, [r7, #28]
    10e2:	421a      	tst	r2, r3
    10e4:	d1fc      	bne.n	10e0 <_i2c_m_sync_transfer+0xd0>
	void *   hw      = i2c_dev->hw;
    10e6:	6929      	ldr	r1, [r5, #16]
	return ((Sercom *)hw)->I2CM.INTFLAG.reg;
    10e8:	7e0b      	ldrb	r3, [r1, #24]
    10ea:	b2db      	uxtb	r3, r3
    10ec:	4a8b      	ldr	r2, [pc, #556]	; (131c <_i2c_m_sync_transfer+0x30c>)
	} while (!(*flags & MB_FLAG) && !(*flags & SB_FLAG));
    10ee:	2003      	movs	r0, #3
    10f0:	4218      	tst	r0, r3
    10f2:	d104      	bne.n	10fe <_i2c_m_sync_transfer+0xee>
    10f4:	7e0b      	ldrb	r3, [r1, #24]
    10f6:	b2db      	uxtb	r3, r3
    10f8:	3a01      	subs	r2, #1
		if (timeout-- == 0) {
    10fa:	2a00      	cmp	r2, #0
    10fc:	d1f8      	bne.n	10f0 <_i2c_m_sync_transfer+0xe0>
	tmp = ((Sercom *)hw)->I2CM.CTRLA.reg;
    10fe:	683e      	ldr	r6, [r7, #0]
	while (((Sercom *)hw)->I2CM.SYNCBUSY.reg & reg) {
    1100:	2104      	movs	r1, #4
    1102:	69fa      	ldr	r2, [r7, #28]
    1104:	4211      	tst	r1, r2
    1106:	d1fc      	bne.n	1102 <_i2c_m_sync_transfer+0xf2>
	return ((Sercom *)hw)->I2CM.STATUS.reg;
    1108:	8b7a      	ldrh	r2, [r7, #26]
    110a:	b292      	uxth	r2, r2
	if (flags & MB_FLAG) {
    110c:	07d9      	lsls	r1, r3, #31
    110e:	d400      	bmi.n	1112 <_i2c_m_sync_transfer+0x102>
    1110:	e0a0      	b.n	1254 <_i2c_m_sync_transfer+0x244>
		if (status & SERCOM_I2CM_STATUS_ARBLOST) {
    1112:	0793      	lsls	r3, r2, #30
    1114:	d53e      	bpl.n	1194 <_i2c_m_sync_transfer+0x184>
	((Sercom *)hw)->I2CM.INTFLAG.reg = SERCOM_I2CM_INTFLAG_MB;
    1116:	2301      	movs	r3, #1
    1118:	763b      	strb	r3, [r7, #24]
			msg->flags |= I2C_M_FAIL;
    111a:	886b      	ldrh	r3, [r5, #2]
    111c:	2180      	movs	r1, #128	; 0x80
    111e:	0149      	lsls	r1, r1, #5
    1120:	430b      	orrs	r3, r1
    1122:	806b      	strh	r3, [r5, #2]
			msg->flags &= ~I2C_M_BUSY;
    1124:	886b      	ldrh	r3, [r5, #2]
    1126:	497e      	ldr	r1, [pc, #504]	; (1320 <_i2c_m_sync_transfer+0x310>)
    1128:	400b      	ands	r3, r1
    112a:	806b      	strh	r3, [r5, #2]
			if (status & SERCOM_I2CM_STATUS_BUSERR) {
    112c:	2001      	movs	r0, #1
    112e:	0003      	movs	r3, r0
    1130:	4013      	ands	r3, r2
			return I2C_ERR_BAD_ADDRESS;
    1132:	4258      	negs	r0, r3
    1134:	4158      	adcs	r0, r3
    1136:	3805      	subs	r0, #5
		i2c_dev->service.msg.flags &= ~I2C_M_BUSY;
    1138:	886b      	ldrh	r3, [r5, #2]
    113a:	4a79      	ldr	r2, [pc, #484]	; (1320 <_i2c_m_sync_transfer+0x310>)
    113c:	4013      	ands	r3, r2
    113e:	806b      	strh	r3, [r5, #2]
}
    1140:	b003      	add	sp, #12
    1142:	bc3c      	pop	{r2, r3, r4, r5}
    1144:	4690      	mov	r8, r2
    1146:	4699      	mov	r9, r3
    1148:	46a2      	mov	sl, r4
    114a:	46ab      	mov	fp, r5
    114c:	bdf0      	pop	{r4, r5, r6, r7, pc}
	if (msg->len == 1 && sclsm) {
    114e:	464b      	mov	r3, r9
    1150:	011b      	lsls	r3, r3, #4
    1152:	d5a1      	bpl.n	1098 <_i2c_m_sync_transfer+0x88>
	((Sercom *)hw)->I2CM.CTRLB.reg |= SERCOM_I2CM_CTRLB_ACKACT;
    1154:	687a      	ldr	r2, [r7, #4]
    1156:	2380      	movs	r3, #128	; 0x80
    1158:	02db      	lsls	r3, r3, #11
    115a:	4313      	orrs	r3, r2
    115c:	607b      	str	r3, [r7, #4]
	while (((Sercom *)hw)->I2CM.SYNCBUSY.reg & reg) {
    115e:	2204      	movs	r2, #4
    1160:	69fb      	ldr	r3, [r7, #28]
    1162:	421a      	tst	r2, r3
    1164:	d1fc      	bne.n	1160 <_i2c_m_sync_transfer+0x150>
    1166:	e79f      	b.n	10a8 <_i2c_m_sync_transfer+0x98>
		                              ((msg->addr & SEVEN_ADDR_MASK) << 1) | (msg->flags & I2C_M_RD ? I2C_M_RD : 0x0)
    1168:	886a      	ldrh	r2, [r5, #2]
    116a:	005b      	lsls	r3, r3, #1
    116c:	21ff      	movs	r1, #255	; 0xff
    116e:	400b      	ands	r3, r1
    1170:	39fe      	subs	r1, #254	; 0xfe
    1172:	4011      	ands	r1, r2
    1174:	4319      	orrs	r1, r3
    1176:	2204      	movs	r2, #4
    1178:	69fb      	ldr	r3, [r7, #28]
    117a:	421a      	tst	r2, r3
    117c:	d1fc      	bne.n	1178 <_i2c_m_sync_transfer+0x168>
	return ((Sercom *)hw)->I2CM.ADDR.reg;
    117e:	6a7b      	ldr	r3, [r7, #36]	; 0x24
		                                  | (hri_sercomi2cm_read_ADDR_reg(hw) & SERCOM_I2CM_ADDR_HS));
    1180:	2280      	movs	r2, #128	; 0x80
    1182:	01d2      	lsls	r2, r2, #7
    1184:	4013      	ands	r3, r2
		hri_sercomi2cm_write_ADDR_reg(hw,
    1186:	430b      	orrs	r3, r1
	((Sercom *)hw)->I2CM.ADDR.reg = data;
    1188:	627b      	str	r3, [r7, #36]	; 0x24
	while (((Sercom *)hw)->I2CM.SYNCBUSY.reg & reg) {
    118a:	2204      	movs	r2, #4
    118c:	69fb      	ldr	r3, [r7, #28]
    118e:	421a      	tst	r2, r3
    1190:	d1fc      	bne.n	118c <_i2c_m_sync_transfer+0x17c>
    1192:	e7a8      	b.n	10e6 <_i2c_m_sync_transfer+0xd6>
			if (status & SERCOM_I2CM_STATUS_RXNACK) {
    1194:	0753      	lsls	r3, r2, #29
    1196:	d41b      	bmi.n	11d0 <_i2c_m_sync_transfer+0x1c0>
			if (msg->flags & I2C_M_TEN) {
    1198:	886b      	ldrh	r3, [r5, #2]
    119a:	055b      	lsls	r3, r3, #21
    119c:	d535      	bpl.n	120a <_i2c_m_sync_transfer+0x1fa>
				                              ((((msg->addr & TEN_ADDR_MASK) >> 8) | TEN_ADDR_FRAME) << 1) | I2C_M_RD
    119e:	882b      	ldrh	r3, [r5, #0]
    11a0:	09db      	lsrs	r3, r3, #7
				                                  | (hri_sercomi2cm_read_ADDR_reg(hw) & SERCOM_I2CM_ADDR_HS));
    11a2:	2106      	movs	r1, #6
    11a4:	4019      	ands	r1, r3
    11a6:	2204      	movs	r2, #4
    11a8:	69fb      	ldr	r3, [r7, #28]
    11aa:	421a      	tst	r2, r3
    11ac:	d1fc      	bne.n	11a8 <_i2c_m_sync_transfer+0x198>
	return ((Sercom *)hw)->I2CM.ADDR.reg;
    11ae:	6a7b      	ldr	r3, [r7, #36]	; 0x24
    11b0:	2280      	movs	r2, #128	; 0x80
    11b2:	01d2      	lsls	r2, r2, #7
    11b4:	4013      	ands	r3, r2
				hri_sercomi2cm_write_ADDR_reg(hw,
    11b6:	22f1      	movs	r2, #241	; 0xf1
    11b8:	4313      	orrs	r3, r2
    11ba:	430b      	orrs	r3, r1
	((Sercom *)hw)->I2CM.ADDR.reg = data;
    11bc:	627b      	str	r3, [r7, #36]	; 0x24
	while (((Sercom *)hw)->I2CM.SYNCBUSY.reg & reg) {
    11be:	3aed      	subs	r2, #237	; 0xed
    11c0:	69fb      	ldr	r3, [r7, #28]
    11c2:	421a      	tst	r2, r3
    11c4:	d1fc      	bne.n	11c0 <_i2c_m_sync_transfer+0x1b0>
				msg->flags &= ~I2C_M_TEN;
    11c6:	886b      	ldrh	r3, [r5, #2]
    11c8:	4a56      	ldr	r2, [pc, #344]	; (1324 <_i2c_m_sync_transfer+0x314>)
    11ca:	4013      	ands	r3, r2
    11cc:	806b      	strh	r3, [r5, #2]
    11ce:	e066      	b.n	129e <_i2c_m_sync_transfer+0x28e>
				if (msg->len > 0) {
    11d0:	686b      	ldr	r3, [r5, #4]
    11d2:	2b00      	cmp	r3, #0
    11d4:	dd04      	ble.n	11e0 <_i2c_m_sync_transfer+0x1d0>
					msg->flags |= I2C_M_FAIL;
    11d6:	886b      	ldrh	r3, [r5, #2]
    11d8:	2280      	movs	r2, #128	; 0x80
    11da:	0152      	lsls	r2, r2, #5
    11dc:	4313      	orrs	r3, r2
    11de:	806b      	strh	r3, [r5, #2]
				if (msg->flags & I2C_M_STOP) {
    11e0:	886b      	ldrh	r3, [r5, #2]
    11e2:	b21b      	sxth	r3, r3
    11e4:	2b00      	cmp	r3, #0
    11e6:	db06      	blt.n	11f6 <_i2c_m_sync_transfer+0x1e6>
				msg->flags &= ~I2C_M_BUSY;
    11e8:	886b      	ldrh	r3, [r5, #2]
    11ea:	4a4d      	ldr	r2, [pc, #308]	; (1320 <_i2c_m_sync_transfer+0x310>)
    11ec:	4013      	ands	r3, r2
    11ee:	806b      	strh	r3, [r5, #2]
				return I2C_NACK;
    11f0:	2002      	movs	r0, #2
    11f2:	4240      	negs	r0, r0
    11f4:	e7a0      	b.n	1138 <_i2c_m_sync_transfer+0x128>
	((Sercom *)hw)->I2CM.CTRLB.reg |= SERCOM_I2CM_CTRLB_CMD(mask);
    11f6:	687a      	ldr	r2, [r7, #4]
    11f8:	23c0      	movs	r3, #192	; 0xc0
    11fa:	029b      	lsls	r3, r3, #10
    11fc:	4313      	orrs	r3, r2
    11fe:	607b      	str	r3, [r7, #4]
	while (((Sercom *)hw)->I2CM.SYNCBUSY.reg & reg) {
    1200:	2304      	movs	r3, #4
    1202:	69fa      	ldr	r2, [r7, #28]
    1204:	4213      	tst	r3, r2
    1206:	d1fc      	bne.n	1202 <_i2c_m_sync_transfer+0x1f2>
    1208:	e7ee      	b.n	11e8 <_i2c_m_sync_transfer+0x1d8>
			if (msg->len == 0) {
    120a:	686b      	ldr	r3, [r5, #4]
    120c:	2b00      	cmp	r3, #0
    120e:	d112      	bne.n	1236 <_i2c_m_sync_transfer+0x226>
				if (msg->flags & I2C_M_STOP) {
    1210:	886b      	ldrh	r3, [r5, #2]
    1212:	b21b      	sxth	r3, r3
    1214:	2b00      	cmp	r3, #0
    1216:	db04      	blt.n	1222 <_i2c_m_sync_transfer+0x212>
				msg->flags &= ~I2C_M_BUSY;
    1218:	886b      	ldrh	r3, [r5, #2]
    121a:	4a41      	ldr	r2, [pc, #260]	; (1320 <_i2c_m_sync_transfer+0x310>)
    121c:	4013      	ands	r3, r2
    121e:	806b      	strh	r3, [r5, #2]
    1220:	e03d      	b.n	129e <_i2c_m_sync_transfer+0x28e>
	((Sercom *)hw)->I2CM.CTRLB.reg |= SERCOM_I2CM_CTRLB_CMD(mask);
    1222:	687a      	ldr	r2, [r7, #4]
    1224:	23c0      	movs	r3, #192	; 0xc0
    1226:	029b      	lsls	r3, r3, #10
    1228:	4313      	orrs	r3, r2
    122a:	607b      	str	r3, [r7, #4]
	while (((Sercom *)hw)->I2CM.SYNCBUSY.reg & reg) {
    122c:	2204      	movs	r2, #4
    122e:	69fb      	ldr	r3, [r7, #28]
    1230:	421a      	tst	r2, r3
    1232:	d1fc      	bne.n	122e <_i2c_m_sync_transfer+0x21e>
    1234:	e7f0      	b.n	1218 <_i2c_m_sync_transfer+0x208>
				hri_sercomi2cm_write_DATA_reg(hw, *msg->buffer);
    1236:	68ab      	ldr	r3, [r5, #8]
    1238:	781a      	ldrb	r2, [r3, #0]
	((Sercom *)hw)->I2CM.DATA.reg = data;
    123a:	2328      	movs	r3, #40	; 0x28
    123c:	54fa      	strb	r2, [r7, r3]
	while (((Sercom *)hw)->I2CM.SYNCBUSY.reg & reg) {
    123e:	2204      	movs	r2, #4
    1240:	69fb      	ldr	r3, [r7, #28]
    1242:	421a      	tst	r2, r3
    1244:	d1fc      	bne.n	1240 <_i2c_m_sync_transfer+0x230>
				msg->buffer++;
    1246:	68ab      	ldr	r3, [r5, #8]
    1248:	3301      	adds	r3, #1
    124a:	60ab      	str	r3, [r5, #8]
				msg->len--;
    124c:	686b      	ldr	r3, [r5, #4]
    124e:	3b01      	subs	r3, #1
    1250:	606b      	str	r3, [r5, #4]
    1252:	e024      	b.n	129e <_i2c_m_sync_transfer+0x28e>
	} else if (flags & SB_FLAG) {
    1254:	079b      	lsls	r3, r3, #30
    1256:	d522      	bpl.n	129e <_i2c_m_sync_transfer+0x28e>
		if ((msg->len) && !(status & SERCOM_I2CM_STATUS_RXNACK)) {
    1258:	686b      	ldr	r3, [r5, #4]
    125a:	2b00      	cmp	r3, #0
    125c:	d040      	beq.n	12e0 <_i2c_m_sync_transfer+0x2d0>
    125e:	0752      	lsls	r2, r2, #29
    1260:	d43e      	bmi.n	12e0 <_i2c_m_sync_transfer+0x2d0>
	tmp = (tmp & SERCOM_I2CM_CTRLA_SCLSM) >> SERCOM_I2CM_CTRLA_SCLSM_Pos;
    1262:	0136      	lsls	r6, r6, #4
    1264:	0ff6      	lsrs	r6, r6, #31
			msg->len--;
    1266:	3b01      	subs	r3, #1
    1268:	606b      	str	r3, [r5, #4]
			if ((msg->len == 0 && !sclsm) || (msg->len == 1 && sclsm)) {
    126a:	2b00      	cmp	r3, #0
    126c:	d000      	beq.n	1270 <_i2c_m_sync_transfer+0x260>
    126e:	e11f      	b.n	14b0 <_i2c_m_sync_transfer+0x4a0>
    1270:	2e00      	cmp	r6, #0
    1272:	d100      	bne.n	1276 <_i2c_m_sync_transfer+0x266>
    1274:	e122      	b.n	14bc <_i2c_m_sync_transfer+0x4ac>
				if (msg->flags & I2C_M_STOP) {
    1276:	886b      	ldrh	r3, [r5, #2]
    1278:	b21b      	sxth	r3, r3
    127a:	2b00      	cmp	r3, #0
    127c:	db1d      	blt.n	12ba <_i2c_m_sync_transfer+0x2aa>
				msg->flags &= ~I2C_M_BUSY;
    127e:	886b      	ldrh	r3, [r5, #2]
    1280:	4a27      	ldr	r2, [pc, #156]	; (1320 <_i2c_m_sync_transfer+0x310>)
    1282:	4013      	ands	r3, r2
    1284:	806b      	strh	r3, [r5, #2]
			*msg->buffer++ = hri_sercomi2cm_read_DATA_reg(hw);
    1286:	68a9      	ldr	r1, [r5, #8]
    1288:	1c4b      	adds	r3, r1, #1
    128a:	60ab      	str	r3, [r5, #8]
	while (((Sercom *)hw)->I2CM.SYNCBUSY.reg & reg) {
    128c:	2204      	movs	r2, #4
    128e:	69fb      	ldr	r3, [r7, #28]
    1290:	421a      	tst	r2, r3
    1292:	d1fc      	bne.n	128e <_i2c_m_sync_transfer+0x27e>
	return ((Sercom *)hw)->I2CM.DATA.reg;
    1294:	2328      	movs	r3, #40	; 0x28
    1296:	5cfb      	ldrb	r3, [r7, r3]
    1298:	700b      	strb	r3, [r1, #0]
	((Sercom *)hw)->I2CM.INTFLAG.reg = SERCOM_I2CM_INTFLAG_SB;
    129a:	2302      	movs	r3, #2
    129c:	763b      	strb	r3, [r7, #24]
			return I2C_NACK;
    129e:	2600      	movs	r6, #0
	while (i2c_dev->service.msg.flags & I2C_M_BUSY) {
    12a0:	2380      	movs	r3, #128	; 0x80
    12a2:	005b      	lsls	r3, r3, #1
    12a4:	469a      	mov	sl, r3
	} while (!(*flags & MB_FLAG) && !(*flags & SB_FLAG));
    12a6:	2103      	movs	r1, #3
	while (((Sercom *)hw)->I2CM.SYNCBUSY.reg & reg) {
    12a8:	2204      	movs	r2, #4
	if (flags & MB_FLAG) {
    12aa:	3bff      	subs	r3, #255	; 0xff
    12ac:	469c      	mov	ip, r3
	} else if (flags & SB_FLAG) {
    12ae:	3301      	adds	r3, #1
    12b0:	4699      	mov	r9, r3
	return ((Sercom *)hw)->I2CM.DATA.reg;
    12b2:	3326      	adds	r3, #38	; 0x26
    12b4:	469b      	mov	fp, r3
    12b6:	9601      	str	r6, [sp, #4]
    12b8:	e0c2      	b.n	1440 <_i2c_m_sync_transfer+0x430>
	((Sercom *)hw)->I2CM.CTRLB.reg &= ~SERCOM_I2CM_CTRLB_SMEN;
    12ba:	687b      	ldr	r3, [r7, #4]
    12bc:	4a18      	ldr	r2, [pc, #96]	; (1320 <_i2c_m_sync_transfer+0x310>)
    12be:	4013      	ands	r3, r2
    12c0:	607b      	str	r3, [r7, #4]
	while (((Sercom *)hw)->I2CM.SYNCBUSY.reg & reg) {
    12c2:	3206      	adds	r2, #6
    12c4:	32ff      	adds	r2, #255	; 0xff
    12c6:	69fb      	ldr	r3, [r7, #28]
    12c8:	421a      	tst	r2, r3
    12ca:	d1fc      	bne.n	12c6 <_i2c_m_sync_transfer+0x2b6>
	((Sercom *)hw)->I2CM.CTRLB.reg |= SERCOM_I2CM_CTRLB_CMD(mask);
    12cc:	687a      	ldr	r2, [r7, #4]
    12ce:	23c0      	movs	r3, #192	; 0xc0
    12d0:	029b      	lsls	r3, r3, #10
    12d2:	4313      	orrs	r3, r2
    12d4:	607b      	str	r3, [r7, #4]
	while (((Sercom *)hw)->I2CM.SYNCBUSY.reg & reg) {
    12d6:	2204      	movs	r2, #4
    12d8:	69fb      	ldr	r3, [r7, #28]
    12da:	421a      	tst	r2, r3
    12dc:	d1fc      	bne.n	12d8 <_i2c_m_sync_transfer+0x2c8>
    12de:	e7ce      	b.n	127e <_i2c_m_sync_transfer+0x26e>
	((Sercom *)hw)->I2CM.INTFLAG.reg = SERCOM_I2CM_INTFLAG_SB;
    12e0:	2302      	movs	r3, #2
    12e2:	763b      	strb	r3, [r7, #24]
			return I2C_NACK;
    12e4:	2002      	movs	r0, #2
    12e6:	4240      	negs	r0, r0
    12e8:	e726      	b.n	1138 <_i2c_m_sync_transfer+0x128>
	((Sercom *)hw)->I2CM.CTRLB.reg |= SERCOM_I2CM_CTRLB_CMD(mask);
    12ea:	6862      	ldr	r2, [r4, #4]
    12ec:	23c0      	movs	r3, #192	; 0xc0
    12ee:	029b      	lsls	r3, r3, #10
    12f0:	4313      	orrs	r3, r2
    12f2:	6063      	str	r3, [r4, #4]
	while (((Sercom *)hw)->I2CM.SYNCBUSY.reg & reg) {
    12f4:	2204      	movs	r2, #4
    12f6:	69e3      	ldr	r3, [r4, #28]
    12f8:	421a      	tst	r2, r3
    12fa:	d1fc      	bne.n	12f6 <_i2c_m_sync_transfer+0x2e6>
    12fc:	e0b5      	b.n	146a <_i2c_m_sync_transfer+0x45a>
    12fe:	46c0      	nop			; (mov r8, r8)
    1300:	0000a0d0 	.word	0x0000a0d0
    1304:	000005bf 	.word	0x000005bf
    1308:	00000c89 	.word	0x00000c89
    130c:	000005c1 	.word	0x000005c1
    1310:	00000594 	.word	0x00000594
    1314:	fffbffff 	.word	0xfffbffff
    1318:	000007fe 	.word	0x000007fe
    131c:	0000ffff 	.word	0x0000ffff
    1320:	fffffeff 	.word	0xfffffeff
    1324:	fffffbff 	.word	0xfffffbff
			if (status & SERCOM_I2CM_STATUS_RXNACK) {
    1328:	4202      	tst	r2, r0
    132a:	d11b      	bne.n	1364 <_i2c_m_sync_transfer+0x354>
			if (msg->flags & I2C_M_TEN) {
    132c:	886b      	ldrh	r3, [r5, #2]
    132e:	055b      	lsls	r3, r3, #21
    1330:	d535      	bpl.n	139e <_i2c_m_sync_transfer+0x38e>
				                              ((((msg->addr & TEN_ADDR_MASK) >> 8) | TEN_ADDR_FRAME) << 1) | I2C_M_RD
    1332:	882b      	ldrh	r3, [r5, #0]
    1334:	09db      	lsrs	r3, r3, #7
				                                  | (hri_sercomi2cm_read_ADDR_reg(hw) & SERCOM_I2CM_ADDR_HS));
    1336:	2006      	movs	r0, #6
    1338:	4018      	ands	r0, r3
    133a:	69e3      	ldr	r3, [r4, #28]
    133c:	421a      	tst	r2, r3
    133e:	d1fc      	bne.n	133a <_i2c_m_sync_transfer+0x32a>
	return ((Sercom *)hw)->I2CM.ADDR.reg;
    1340:	6a63      	ldr	r3, [r4, #36]	; 0x24
    1342:	2680      	movs	r6, #128	; 0x80
    1344:	01f6      	lsls	r6, r6, #7
    1346:	4033      	ands	r3, r6
				hri_sercomi2cm_write_ADDR_reg(hw,
    1348:	26f1      	movs	r6, #241	; 0xf1
    134a:	4333      	orrs	r3, r6
    134c:	4303      	orrs	r3, r0
	((Sercom *)hw)->I2CM.ADDR.reg = data;
    134e:	6263      	str	r3, [r4, #36]	; 0x24
	while (((Sercom *)hw)->I2CM.SYNCBUSY.reg & reg) {
    1350:	69e3      	ldr	r3, [r4, #28]
    1352:	421a      	tst	r2, r3
    1354:	d1fc      	bne.n	1350 <_i2c_m_sync_transfer+0x340>
				msg->flags &= ~I2C_M_TEN;
    1356:	886b      	ldrh	r3, [r5, #2]
    1358:	4878      	ldr	r0, [pc, #480]	; (153c <_i2c_m_sync_transfer+0x52c>)
    135a:	4003      	ands	r3, r0
    135c:	806b      	strh	r3, [r5, #2]
				return I2C_OK;
    135e:	2300      	movs	r3, #0
    1360:	9301      	str	r3, [sp, #4]
    1362:	e06d      	b.n	1440 <_i2c_m_sync_transfer+0x430>
				if (msg->len > 0) {
    1364:	686b      	ldr	r3, [r5, #4]
    1366:	2b00      	cmp	r3, #0
    1368:	dd04      	ble.n	1374 <_i2c_m_sync_transfer+0x364>
					msg->flags |= I2C_M_FAIL;
    136a:	886b      	ldrh	r3, [r5, #2]
    136c:	2080      	movs	r0, #128	; 0x80
    136e:	0140      	lsls	r0, r0, #5
    1370:	4303      	orrs	r3, r0
    1372:	806b      	strh	r3, [r5, #2]
				if (msg->flags & I2C_M_STOP) {
    1374:	886b      	ldrh	r3, [r5, #2]
    1376:	b21b      	sxth	r3, r3
    1378:	2b00      	cmp	r3, #0
    137a:	db07      	blt.n	138c <_i2c_m_sync_transfer+0x37c>
				msg->flags &= ~I2C_M_BUSY;
    137c:	886b      	ldrh	r3, [r5, #2]
    137e:	4870      	ldr	r0, [pc, #448]	; (1540 <_i2c_m_sync_transfer+0x530>)
    1380:	4003      	ands	r3, r0
    1382:	806b      	strh	r3, [r5, #2]
				return I2C_NACK;
    1384:	2302      	movs	r3, #2
    1386:	425b      	negs	r3, r3
    1388:	9301      	str	r3, [sp, #4]
    138a:	e059      	b.n	1440 <_i2c_m_sync_transfer+0x430>
	((Sercom *)hw)->I2CM.CTRLB.reg |= SERCOM_I2CM_CTRLB_CMD(mask);
    138c:	6860      	ldr	r0, [r4, #4]
    138e:	23c0      	movs	r3, #192	; 0xc0
    1390:	029b      	lsls	r3, r3, #10
    1392:	4303      	orrs	r3, r0
    1394:	6063      	str	r3, [r4, #4]
	while (((Sercom *)hw)->I2CM.SYNCBUSY.reg & reg) {
    1396:	69e3      	ldr	r3, [r4, #28]
    1398:	421a      	tst	r2, r3
    139a:	d1fc      	bne.n	1396 <_i2c_m_sync_transfer+0x386>
    139c:	e7ee      	b.n	137c <_i2c_m_sync_transfer+0x36c>
			if (msg->len == 0) {
    139e:	686b      	ldr	r3, [r5, #4]
    13a0:	2b00      	cmp	r3, #0
    13a2:	d113      	bne.n	13cc <_i2c_m_sync_transfer+0x3bc>
				if (msg->flags & I2C_M_STOP) {
    13a4:	886b      	ldrh	r3, [r5, #2]
    13a6:	b21b      	sxth	r3, r3
    13a8:	2b00      	cmp	r3, #0
    13aa:	db06      	blt.n	13ba <_i2c_m_sync_transfer+0x3aa>
				msg->flags &= ~I2C_M_BUSY;
    13ac:	886b      	ldrh	r3, [r5, #2]
    13ae:	4864      	ldr	r0, [pc, #400]	; (1540 <_i2c_m_sync_transfer+0x530>)
    13b0:	4003      	ands	r3, r0
    13b2:	806b      	strh	r3, [r5, #2]
			return I2C_OK;
    13b4:	2300      	movs	r3, #0
    13b6:	9301      	str	r3, [sp, #4]
    13b8:	e042      	b.n	1440 <_i2c_m_sync_transfer+0x430>
	((Sercom *)hw)->I2CM.CTRLB.reg |= SERCOM_I2CM_CTRLB_CMD(mask);
    13ba:	6860      	ldr	r0, [r4, #4]
    13bc:	23c0      	movs	r3, #192	; 0xc0
    13be:	029b      	lsls	r3, r3, #10
    13c0:	4303      	orrs	r3, r0
    13c2:	6063      	str	r3, [r4, #4]
	while (((Sercom *)hw)->I2CM.SYNCBUSY.reg & reg) {
    13c4:	69e3      	ldr	r3, [r4, #28]
    13c6:	421a      	tst	r2, r3
    13c8:	d1fc      	bne.n	13c4 <_i2c_m_sync_transfer+0x3b4>
    13ca:	e7ef      	b.n	13ac <_i2c_m_sync_transfer+0x39c>
				hri_sercomi2cm_write_DATA_reg(hw, *msg->buffer);
    13cc:	68ab      	ldr	r3, [r5, #8]
    13ce:	781b      	ldrb	r3, [r3, #0]
	((Sercom *)hw)->I2CM.DATA.reg = data;
    13d0:	4658      	mov	r0, fp
    13d2:	5423      	strb	r3, [r4, r0]
	while (((Sercom *)hw)->I2CM.SYNCBUSY.reg & reg) {
    13d4:	69e3      	ldr	r3, [r4, #28]
    13d6:	421a      	tst	r2, r3
    13d8:	d1fc      	bne.n	13d4 <_i2c_m_sync_transfer+0x3c4>
				msg->buffer++;
    13da:	68ab      	ldr	r3, [r5, #8]
    13dc:	3301      	adds	r3, #1
    13de:	60ab      	str	r3, [r5, #8]
				msg->len--;
    13e0:	686b      	ldr	r3, [r5, #4]
    13e2:	3b01      	subs	r3, #1
    13e4:	606b      	str	r3, [r5, #4]
			return I2C_OK;
    13e6:	2300      	movs	r3, #0
    13e8:	9301      	str	r3, [sp, #4]
    13ea:	e029      	b.n	1440 <_i2c_m_sync_transfer+0x430>
	return I2C_OK;
    13ec:	2600      	movs	r6, #0
    13ee:	9601      	str	r6, [sp, #4]
	} else if (flags & SB_FLAG) {
    13f0:	464e      	mov	r6, r9
    13f2:	421e      	tst	r6, r3
    13f4:	d024      	beq.n	1440 <_i2c_m_sync_transfer+0x430>
		if ((msg->len) && !(status & SERCOM_I2CM_STATUS_RXNACK)) {
    13f6:	686b      	ldr	r3, [r5, #4]
    13f8:	2b00      	cmp	r3, #0
    13fa:	d04d      	beq.n	1498 <_i2c_m_sync_transfer+0x488>
    13fc:	4202      	tst	r2, r0
    13fe:	d14b      	bne.n	1498 <_i2c_m_sync_transfer+0x488>
	tmp = (tmp & SERCOM_I2CM_CTRLA_SCLSM) >> SERCOM_I2CM_CTRLA_SCLSM_Pos;
    1400:	0eff      	lsrs	r7, r7, #27
    1402:	4660      	mov	r0, ip
    1404:	4007      	ands	r7, r0
			msg->len--;
    1406:	3b01      	subs	r3, #1
    1408:	606b      	str	r3, [r5, #4]
			if ((msg->len == 0 && !sclsm) || (msg->len == 1 && sclsm)) {
    140a:	2b00      	cmp	r3, #0
    140c:	d000      	beq.n	1410 <_i2c_m_sync_transfer+0x400>
    140e:	e082      	b.n	1516 <_i2c_m_sync_transfer+0x506>
    1410:	2f00      	cmp	r7, #0
    1412:	d100      	bne.n	1416 <_i2c_m_sync_transfer+0x406>
    1414:	e085      	b.n	1522 <_i2c_m_sync_transfer+0x512>
				if (msg->flags & I2C_M_STOP) {
    1416:	886b      	ldrh	r3, [r5, #2]
    1418:	b21b      	sxth	r3, r3
    141a:	2b00      	cmp	r3, #0
    141c:	db2c      	blt.n	1478 <_i2c_m_sync_transfer+0x468>
				msg->flags &= ~I2C_M_BUSY;
    141e:	886b      	ldrh	r3, [r5, #2]
    1420:	4847      	ldr	r0, [pc, #284]	; (1540 <_i2c_m_sync_transfer+0x530>)
    1422:	4003      	ands	r3, r0
    1424:	806b      	strh	r3, [r5, #2]
			*msg->buffer++ = hri_sercomi2cm_read_DATA_reg(hw);
    1426:	68a8      	ldr	r0, [r5, #8]
    1428:	1c43      	adds	r3, r0, #1
    142a:	60ab      	str	r3, [r5, #8]
	while (((Sercom *)hw)->I2CM.SYNCBUSY.reg & reg) {
    142c:	69e3      	ldr	r3, [r4, #28]
    142e:	421a      	tst	r2, r3
    1430:	d1fc      	bne.n	142c <_i2c_m_sync_transfer+0x41c>
	return ((Sercom *)hw)->I2CM.DATA.reg;
    1432:	465b      	mov	r3, fp
    1434:	5ce3      	ldrb	r3, [r4, r3]
    1436:	7003      	strb	r3, [r0, #0]
	((Sercom *)hw)->I2CM.INTFLAG.reg = SERCOM_I2CM_INTFLAG_SB;
    1438:	464b      	mov	r3, r9
    143a:	7623      	strb	r3, [r4, #24]
	return I2C_OK;
    143c:	2300      	movs	r3, #0
    143e:	9301      	str	r3, [sp, #4]
	while (i2c_dev->service.msg.flags & I2C_M_BUSY) {
    1440:	886b      	ldrh	r3, [r5, #2]
    1442:	4650      	mov	r0, sl
    1444:	4203      	tst	r3, r0
    1446:	d02d      	beq.n	14a4 <_i2c_m_sync_transfer+0x494>
	void *   hw      = i2c_dev->hw;
    1448:	692e      	ldr	r6, [r5, #16]
	return ((Sercom *)hw)->I2CM.INTFLAG.reg;
    144a:	7e33      	ldrb	r3, [r6, #24]
    144c:	b2db      	uxtb	r3, r3
    144e:	483d      	ldr	r0, [pc, #244]	; (1544 <_i2c_m_sync_transfer+0x534>)
	} while (!(*flags & MB_FLAG) && !(*flags & SB_FLAG));
    1450:	4219      	tst	r1, r3
    1452:	d141      	bne.n	14d8 <_i2c_m_sync_transfer+0x4c8>
    1454:	7e33      	ldrb	r3, [r6, #24]
    1456:	b2db      	uxtb	r3, r3
    1458:	3801      	subs	r0, #1
		if (timeout-- == 0) {
    145a:	2800      	cmp	r0, #0
    145c:	d1f8      	bne.n	1450 <_i2c_m_sync_transfer+0x440>
			if (msg->flags & I2C_M_STOP) {
    145e:	4643      	mov	r3, r8
    1460:	885b      	ldrh	r3, [r3, #2]
    1462:	b21b      	sxth	r3, r3
    1464:	2b00      	cmp	r3, #0
    1466:	da00      	bge.n	146a <_i2c_m_sync_transfer+0x45a>
    1468:	e73f      	b.n	12ea <_i2c_m_sync_transfer+0x2da>
			i2c_dev->service.msg.flags &= ~I2C_M_BUSY;
    146a:	886b      	ldrh	r3, [r5, #2]
    146c:	4a34      	ldr	r2, [pc, #208]	; (1540 <_i2c_m_sync_transfer+0x530>)
    146e:	4013      	ands	r3, r2
    1470:	806b      	strh	r3, [r5, #2]
			return I2C_ERR_BUS;
    1472:	2005      	movs	r0, #5
    1474:	4240      	negs	r0, r0
			return ret;
    1476:	e663      	b.n	1140 <_i2c_m_sync_transfer+0x130>
	((Sercom *)hw)->I2CM.CTRLB.reg &= ~SERCOM_I2CM_CTRLB_SMEN;
    1478:	6863      	ldr	r3, [r4, #4]
    147a:	4831      	ldr	r0, [pc, #196]	; (1540 <_i2c_m_sync_transfer+0x530>)
    147c:	4003      	ands	r3, r0
    147e:	6063      	str	r3, [r4, #4]
	while (((Sercom *)hw)->I2CM.SYNCBUSY.reg & reg) {
    1480:	69e3      	ldr	r3, [r4, #28]
    1482:	421a      	tst	r2, r3
    1484:	d1fc      	bne.n	1480 <_i2c_m_sync_transfer+0x470>
	((Sercom *)hw)->I2CM.CTRLB.reg |= SERCOM_I2CM_CTRLB_CMD(mask);
    1486:	6860      	ldr	r0, [r4, #4]
    1488:	23c0      	movs	r3, #192	; 0xc0
    148a:	029b      	lsls	r3, r3, #10
    148c:	4303      	orrs	r3, r0
    148e:	6063      	str	r3, [r4, #4]
	while (((Sercom *)hw)->I2CM.SYNCBUSY.reg & reg) {
    1490:	69e3      	ldr	r3, [r4, #28]
    1492:	421a      	tst	r2, r3
    1494:	d1fc      	bne.n	1490 <_i2c_m_sync_transfer+0x480>
    1496:	e7c2      	b.n	141e <_i2c_m_sync_transfer+0x40e>
	((Sercom *)hw)->I2CM.INTFLAG.reg = SERCOM_I2CM_INTFLAG_SB;
    1498:	464b      	mov	r3, r9
    149a:	7623      	strb	r3, [r4, #24]
			return I2C_NACK;
    149c:	2302      	movs	r3, #2
    149e:	425b      	negs	r3, r3
    14a0:	9301      	str	r3, [sp, #4]
    14a2:	e7cd      	b.n	1440 <_i2c_m_sync_transfer+0x430>
    14a4:	9e01      	ldr	r6, [sp, #4]
    14a6:	0030      	movs	r0, r6
    14a8:	e64a      	b.n	1140 <_i2c_m_sync_transfer+0x130>
		return I2C_ERR_BUSY;
    14aa:	2006      	movs	r0, #6
    14ac:	4240      	negs	r0, r0
    14ae:	e647      	b.n	1140 <_i2c_m_sync_transfer+0x130>
			if ((msg->len == 0 && !sclsm) || (msg->len == 1 && sclsm)) {
    14b0:	2b01      	cmp	r3, #1
    14b2:	d000      	beq.n	14b6 <_i2c_m_sync_transfer+0x4a6>
    14b4:	e6e7      	b.n	1286 <_i2c_m_sync_transfer+0x276>
    14b6:	2e00      	cmp	r6, #0
    14b8:	d100      	bne.n	14bc <_i2c_m_sync_transfer+0x4ac>
    14ba:	e6e4      	b.n	1286 <_i2c_m_sync_transfer+0x276>
	((Sercom *)hw)->I2CM.CTRLB.reg |= SERCOM_I2CM_CTRLB_ACKACT;
    14bc:	687a      	ldr	r2, [r7, #4]
    14be:	2380      	movs	r3, #128	; 0x80
    14c0:	02db      	lsls	r3, r3, #11
    14c2:	4313      	orrs	r3, r2
    14c4:	607b      	str	r3, [r7, #4]
	while (((Sercom *)hw)->I2CM.SYNCBUSY.reg & reg) {
    14c6:	2204      	movs	r2, #4
    14c8:	69fb      	ldr	r3, [r7, #28]
    14ca:	421a      	tst	r2, r3
    14cc:	d1fc      	bne.n	14c8 <_i2c_m_sync_transfer+0x4b8>
			if (msg->len == 0) {
    14ce:	686b      	ldr	r3, [r5, #4]
    14d0:	2b00      	cmp	r3, #0
    14d2:	d100      	bne.n	14d6 <_i2c_m_sync_transfer+0x4c6>
    14d4:	e6cf      	b.n	1276 <_i2c_m_sync_transfer+0x266>
    14d6:	e6d6      	b.n	1286 <_i2c_m_sync_transfer+0x276>
	tmp = ((Sercom *)hw)->I2CM.CTRLA.reg;
    14d8:	6827      	ldr	r7, [r4, #0]
	while (((Sercom *)hw)->I2CM.SYNCBUSY.reg & reg) {
    14da:	69e0      	ldr	r0, [r4, #28]
    14dc:	4202      	tst	r2, r0
    14de:	d1fc      	bne.n	14da <_i2c_m_sync_transfer+0x4ca>
	return ((Sercom *)hw)->I2CM.STATUS.reg;
    14e0:	8b60      	ldrh	r0, [r4, #26]
    14e2:	b280      	uxth	r0, r0
	if (flags & MB_FLAG) {
    14e4:	4666      	mov	r6, ip
    14e6:	421e      	tst	r6, r3
    14e8:	d100      	bne.n	14ec <_i2c_m_sync_transfer+0x4dc>
    14ea:	e77f      	b.n	13ec <_i2c_m_sync_transfer+0x3dc>
		if (status & SERCOM_I2CM_STATUS_ARBLOST) {
    14ec:	464b      	mov	r3, r9
    14ee:	4203      	tst	r3, r0
    14f0:	d100      	bne.n	14f4 <_i2c_m_sync_transfer+0x4e4>
    14f2:	e719      	b.n	1328 <_i2c_m_sync_transfer+0x318>
	((Sercom *)hw)->I2CM.INTFLAG.reg = SERCOM_I2CM_INTFLAG_MB;
    14f4:	7626      	strb	r6, [r4, #24]
			msg->flags |= I2C_M_FAIL;
    14f6:	886b      	ldrh	r3, [r5, #2]
    14f8:	2680      	movs	r6, #128	; 0x80
    14fa:	0176      	lsls	r6, r6, #5
    14fc:	4333      	orrs	r3, r6
    14fe:	806b      	strh	r3, [r5, #2]
			msg->flags &= ~I2C_M_BUSY;
    1500:	886b      	ldrh	r3, [r5, #2]
    1502:	4e0f      	ldr	r6, [pc, #60]	; (1540 <_i2c_m_sync_transfer+0x530>)
    1504:	4033      	ands	r3, r6
    1506:	806b      	strh	r3, [r5, #2]
			if (status & SERCOM_I2CM_STATUS_BUSERR) {
    1508:	4663      	mov	r3, ip
    150a:	4018      	ands	r0, r3
			return I2C_ERR_BAD_ADDRESS;
    150c:	4246      	negs	r6, r0
    150e:	4146      	adcs	r6, r0
    1510:	1f73      	subs	r3, r6, #5
    1512:	9301      	str	r3, [sp, #4]
    1514:	e794      	b.n	1440 <_i2c_m_sync_transfer+0x430>
			if ((msg->len == 0 && !sclsm) || (msg->len == 1 && sclsm)) {
    1516:	2b01      	cmp	r3, #1
    1518:	d000      	beq.n	151c <_i2c_m_sync_transfer+0x50c>
    151a:	e784      	b.n	1426 <_i2c_m_sync_transfer+0x416>
    151c:	2f00      	cmp	r7, #0
    151e:	d100      	bne.n	1522 <_i2c_m_sync_transfer+0x512>
    1520:	e781      	b.n	1426 <_i2c_m_sync_transfer+0x416>
	((Sercom *)hw)->I2CM.CTRLB.reg |= SERCOM_I2CM_CTRLB_ACKACT;
    1522:	6860      	ldr	r0, [r4, #4]
    1524:	2380      	movs	r3, #128	; 0x80
    1526:	02db      	lsls	r3, r3, #11
    1528:	4303      	orrs	r3, r0
    152a:	6063      	str	r3, [r4, #4]
	while (((Sercom *)hw)->I2CM.SYNCBUSY.reg & reg) {
    152c:	69e3      	ldr	r3, [r4, #28]
    152e:	421a      	tst	r2, r3
    1530:	d1fc      	bne.n	152c <_i2c_m_sync_transfer+0x51c>
			if (msg->len == 0) {
    1532:	686b      	ldr	r3, [r5, #4]
    1534:	2b00      	cmp	r3, #0
    1536:	d100      	bne.n	153a <_i2c_m_sync_transfer+0x52a>
    1538:	e76d      	b.n	1416 <_i2c_m_sync_transfer+0x406>
    153a:	e774      	b.n	1426 <_i2c_m_sync_transfer+0x416>
    153c:	fffffbff 	.word	0xfffffbff
    1540:	fffffeff 	.word	0xfffffeff
    1544:	0000ffff 	.word	0x0000ffff

00001548 <_sysctrl_init_sources>:
}

static inline hri_sysctrl_osc8m_reg_t hri_sysctrl_read_OSC8M_CALIB_bf(const void *const hw)
{
	uint32_t tmp;
	tmp = ((Sysctrl *)hw)->OSC8M.reg;
    1548:	4b0e      	ldr	r3, [pc, #56]	; (1584 <_sysctrl_init_sources+0x3c>)
    154a:	6a19      	ldr	r1, [r3, #32]
}

static inline hri_sysctrl_osc8m_reg_t hri_sysctrl_read_OSC8M_FRANGE_bf(const void *const hw)
{
	uint32_t tmp;
	tmp = ((Sysctrl *)hw)->OSC8M.reg;
    154c:	6a1a      	ldr	r2, [r3, #32]
	hri_sysctrl_write_OSC8M_reg(hw,
	                            SYSCTRL_OSC8M_FRANGE(hri_sysctrl_read_OSC8M_FRANGE_bf(hw)) |
#if CONF_OSC8M_OVERWRITE_CALIBRATION == 1
	                                SYSCTRL_OSC8M_CALIB(CONF_OSC8M_CALIB) |
#else
	                                SYSCTRL_OSC8M_CALIB(calib) |
    154e:	480e      	ldr	r0, [pc, #56]	; (1588 <_sysctrl_init_sources+0x40>)
    1550:	4001      	ands	r1, r0
	                            SYSCTRL_OSC8M_FRANGE(hri_sysctrl_read_OSC8M_FRANGE_bf(hw)) |
    1552:	0f92      	lsrs	r2, r2, #30
    1554:	0792      	lsls	r2, r2, #30
	hri_sysctrl_write_OSC8M_reg(hw,
    1556:	2002      	movs	r0, #2
    1558:	4302      	orrs	r2, r0
    155a:	430a      	orrs	r2, r1
}

static inline void hri_sysctrl_write_OSC8M_reg(const void *const hw, hri_sysctrl_osc8m_reg_t data)
{
	SYSCTRL_CRITICAL_SECTION_ENTER();
	((Sysctrl *)hw)->OSC8M.reg = data;
    155c:	621a      	str	r2, [r3, #32]
	((Sysctrl *)hw)->OSC32K.reg |= SYSCTRL_OSC32K_ENABLE;
    155e:	699a      	ldr	r2, [r3, #24]
    1560:	4302      	orrs	r2, r0
    1562:	619a      	str	r2, [r3, #24]
	tmp = ((Sysctrl *)hw)->OSCULP32K.reg;
    1564:	7f1a      	ldrb	r2, [r3, #28]
	tmp = (tmp & SYSCTRL_OSCULP32K_CALIB_Msk) >> SYSCTRL_OSCULP32K_CALIB_Pos;
    1566:	211f      	movs	r1, #31
    1568:	400a      	ands	r2, r1
	((Sysctrl *)hw)->OSCULP32K.reg = data;
    156a:	771a      	strb	r2, [r3, #28]
	return (((Sysctrl *)hw)->PCLKSR.reg & SYSCTRL_PCLKSR_OSC8MRDY) >> SYSCTRL_PCLKSR_OSC8MRDY_Pos;
    156c:	0019      	movs	r1, r3
#endif
#endif

#if CONF_OSC8M_CONFIG == 1
#if CONF_OSC8M_ENABLE == 1
	while (!hri_sysctrl_get_PCLKSR_OSC8MRDY_bit(hw))
    156e:	2208      	movs	r2, #8
    1570:	68cb      	ldr	r3, [r1, #12]
    1572:	421a      	tst	r2, r3
    1574:	d0fc      	beq.n	1570 <_sysctrl_init_sources+0x28>
	((Sysctrl *)hw)->OSC8M.reg |= SYSCTRL_OSC8M_ONDEMAND;
    1576:	4a03      	ldr	r2, [pc, #12]	; (1584 <_sysctrl_init_sources+0x3c>)
    1578:	6a13      	ldr	r3, [r2, #32]
    157a:	2180      	movs	r1, #128	; 0x80
    157c:	430b      	orrs	r3, r1
    157e:	6213      	str	r3, [r2, #32]
	hri_sysctrl_set_OSC8M_ONDEMAND_bit(hw);
#endif
#endif

	(void)calib, (void)hw;
}
    1580:	4770      	bx	lr
    1582:	46c0      	nop			; (mov r8, r8)
    1584:	40000800 	.word	0x40000800
    1588:	0fff0000 	.word	0x0fff0000

0000158c <_sysctrl_init_referenced_generators>:
	((Sysctrl *)hw)->OSC32K.reg &= ~SYSCTRL_OSC32K_ENABLE;
    158c:	4a02      	ldr	r2, [pc, #8]	; (1598 <_sysctrl_init_referenced_generators+0xc>)
    158e:	6993      	ldr	r3, [r2, #24]
    1590:	2102      	movs	r1, #2
    1592:	438b      	bics	r3, r1
    1594:	6193      	str	r3, [r2, #24]
	/* Disable after all possible configurations needs sync written. */
	hri_sysctrl_clear_OSC32K_ENABLE_bit(hw);
#endif

	(void)hw;
}
    1596:	4770      	bx	lr
    1598:	40000800 	.word	0x40000800

0000159c <_delay_init>:
 * \brief Initialize system time module
 */
void _system_time_init(void *const hw)
{
	(void)hw;
	SysTick->LOAD = (0xFFFFFF << SysTick_LOAD_RELOAD_Pos);
    159c:	4b02      	ldr	r3, [pc, #8]	; (15a8 <_delay_init+0xc>)
    159e:	4a03      	ldr	r2, [pc, #12]	; (15ac <_delay_init+0x10>)
    15a0:	605a      	str	r2, [r3, #4]
	SysTick->CTRL = (1 << SysTick_CTRL_ENABLE_Pos) | (CONF_SYSTICK_TICKINT << SysTick_CTRL_TICKINT_Pos)
    15a2:	2205      	movs	r2, #5
    15a4:	601a      	str	r2, [r3, #0]
 * \brief Initialize delay functionality
 */
void _delay_init(void *const hw)
{
	_system_time_init(hw);
}
    15a6:	4770      	bx	lr
    15a8:	e000e010 	.word	0xe000e010
    15ac:	00ffffff 	.word	0x00ffffff

000015b0 <_delay_cycles>:
}
/**
 * \brief Delay loop to delay n number of cycles
 */
void _delay_cycles(void *const hw, uint32_t cycles)
{
    15b0:	b570      	push	{r4, r5, r6, lr}
	(void)hw;
	uint8_t  n   = cycles >> 24;
    15b2:	0e0b      	lsrs	r3, r1, #24
	uint32_t buf = cycles;

	while (n--) {
    15b4:	1e5e      	subs	r6, r3, #1
    15b6:	b2f6      	uxtb	r6, r6
    15b8:	2b00      	cmp	r3, #0
    15ba:	d013      	beq.n	15e4 <_delay_cycles+0x34>
    15bc:	0034      	movs	r4, r6
		SysTick->LOAD = 0xFFFFFF;
    15be:	4a0e      	ldr	r2, [pc, #56]	; (15f8 <_delay_cycles+0x48>)
    15c0:	4d0e      	ldr	r5, [pc, #56]	; (15fc <_delay_cycles+0x4c>)
		SysTick->VAL  = 0xFFFFFF;
		while (!(SysTick->CTRL & SysTick_CTRL_COUNTFLAG_Msk))
    15c2:	2080      	movs	r0, #128	; 0x80
    15c4:	0240      	lsls	r0, r0, #9
		SysTick->LOAD = 0xFFFFFF;
    15c6:	6055      	str	r5, [r2, #4]
		SysTick->VAL  = 0xFFFFFF;
    15c8:	6095      	str	r5, [r2, #8]
		while (!(SysTick->CTRL & SysTick_CTRL_COUNTFLAG_Msk))
    15ca:	6813      	ldr	r3, [r2, #0]
    15cc:	4203      	tst	r3, r0
    15ce:	d0fc      	beq.n	15ca <_delay_cycles+0x1a>
	while (n--) {
    15d0:	3c01      	subs	r4, #1
    15d2:	b2e4      	uxtb	r4, r4
    15d4:	2cff      	cmp	r4, #255	; 0xff
    15d6:	d1f6      	bne.n	15c6 <_delay_cycles+0x16>
    15d8:	0633      	lsls	r3, r6, #24
    15da:	1af6      	subs	r6, r6, r3
    15dc:	4b08      	ldr	r3, [pc, #32]	; (1600 <_delay_cycles+0x50>)
    15de:	469c      	mov	ip, r3
    15e0:	4461      	add	r1, ip
    15e2:	1871      	adds	r1, r6, r1
			;
		buf -= 0xFFFFFF;
	}

	SysTick->LOAD = buf;
    15e4:	4b04      	ldr	r3, [pc, #16]	; (15f8 <_delay_cycles+0x48>)
    15e6:	6059      	str	r1, [r3, #4]
	SysTick->VAL  = buf;
    15e8:	6099      	str	r1, [r3, #8]
	while (!(SysTick->CTRL & SysTick_CTRL_COUNTFLAG_Msk))
    15ea:	0019      	movs	r1, r3
    15ec:	2280      	movs	r2, #128	; 0x80
    15ee:	0252      	lsls	r2, r2, #9
    15f0:	680b      	ldr	r3, [r1, #0]
    15f2:	4213      	tst	r3, r2
    15f4:	d0fc      	beq.n	15f0 <_delay_cycles+0x40>
		;
}
    15f6:	bd70      	pop	{r4, r5, r6, pc}
    15f8:	e000e010 	.word	0xe000e010
    15fc:	00ffffff 	.word	0x00ffffff
    1600:	ff000001 	.word	0xff000001

00001604 <main>:
		i2c_m_sync_set_slaveaddr(&I2C_0, BMP180_I2C_ADDR, I2C_M_SEVEN);
		i2c_m_sync_enable(&I2C_0);
}

int main(void)
{
    1604:	b5f0      	push	{r4, r5, r6, r7, lr}
    1606:	b085      	sub	sp, #20
	atmel_start_init();
    1608:	4b24      	ldr	r3, [pc, #144]	; (169c <main+0x98>)
    160a:	4798      	blx	r3
		i2c_m_sync_set_slaveaddr(&I2C_0, BMP180_I2C_ADDR, I2C_M_SEVEN);
    160c:	4c24      	ldr	r4, [pc, #144]	; (16a0 <main+0x9c>)
    160e:	2280      	movs	r2, #128	; 0x80
    1610:	0112      	lsls	r2, r2, #4
    1612:	2177      	movs	r1, #119	; 0x77
    1614:	0020      	movs	r0, r4
    1616:	4b23      	ldr	r3, [pc, #140]	; (16a4 <main+0xa0>)
    1618:	4798      	blx	r3
		i2c_m_sync_enable(&I2C_0);
    161a:	0020      	movs	r0, r4
    161c:	4b22      	ldr	r3, [pc, #136]	; (16a8 <main+0xa4>)
    161e:	4798      	blx	r3
	
	Start_i2c_bus();
	
	printf("\r\n****************** Boach BMP180/085 Sensor Example **********************\r\n");
    1620:	4822      	ldr	r0, [pc, #136]	; (16ac <main+0xa8>)
    1622:	4b23      	ldr	r3, [pc, #140]	; (16b0 <main+0xac>)
    1624:	4798      	blx	r3
	
	uint8_t status= bmp180_sensor_Initi();
    1626:	4b23      	ldr	r3, [pc, #140]	; (16b4 <main+0xb0>)
    1628:	4798      	blx	r3

	if (status != 0) /*means there is no sensor connected or wrong connection*/
    162a:	2800      	cmp	r0, #0
    162c:	d130      	bne.n	1690 <main+0x8c>
		
		return 0;
	}
	while(1)
	{		
		delay_ms(2000);
    162e:	4d22      	ldr	r5, [pc, #136]	; (16b8 <main+0xb4>)
		/*read the Temp in C*/
		float temp_c=bmp180_read_temperature();
    1630:	4f22      	ldr	r7, [pc, #136]	; (16bc <main+0xb8>)
		/*read the pressure in pa*/
		uint32_t pressure=bmp180_read_pressure();
    1632:	4e23      	ldr	r6, [pc, #140]	; (16c0 <main+0xbc>)
		delay_ms(2000);
    1634:	20fa      	movs	r0, #250	; 0xfa
    1636:	00c0      	lsls	r0, r0, #3
    1638:	47a8      	blx	r5
		float temp_c=bmp180_read_temperature();
    163a:	47b8      	blx	r7
    163c:	1c04      	adds	r4, r0, #0
		uint32_t pressure=bmp180_read_pressure();
    163e:	47b0      	blx	r6
    1640:	9001      	str	r0, [sp, #4]
		/*read the sea level pressure based on your altitude , my location in Amman-Jordan and my real altitude 822 meter from sea level*/
		uint32_t realPressure=bmp180_read_SeaLevelPressure(myCurrentAltitude);
    1642:	4820      	ldr	r0, [pc, #128]	; (16c4 <main+0xc0>)
    1644:	4b20      	ldr	r3, [pc, #128]	; (16c8 <main+0xc4>)
    1646:	4798      	blx	r3
    1648:	9002      	str	r0, [sp, #8]
		/*you can calculate your altitude in meter based on the sensor's pressure reading*/
		uint32_t AltitudeFpressure=bmp180_get_AltitudeFromPressure(SeaLevelPressure,pressure);
    164a:	9801      	ldr	r0, [sp, #4]
    164c:	4b1f      	ldr	r3, [pc, #124]	; (16cc <main+0xc8>)
    164e:	4798      	blx	r3
    1650:	1c01      	adds	r1, r0, #0
    1652:	481f      	ldr	r0, [pc, #124]	; (16d0 <main+0xcc>)
    1654:	4b1f      	ldr	r3, [pc, #124]	; (16d4 <main+0xd0>)
    1656:	4798      	blx	r3
    1658:	9003      	str	r0, [sp, #12]
		/*print the results*/
		printf("temperature= %2.1f Celsius\r\n",temp_c);
    165a:	1c20      	adds	r0, r4, #0
    165c:	4b1e      	ldr	r3, [pc, #120]	; (16d8 <main+0xd4>)
    165e:	4798      	blx	r3
    1660:	0002      	movs	r2, r0
    1662:	000b      	movs	r3, r1
    1664:	481d      	ldr	r0, [pc, #116]	; (16dc <main+0xd8>)
    1666:	4c1e      	ldr	r4, [pc, #120]	; (16e0 <main+0xdc>)
    1668:	47a0      	blx	r4
		printf("pressure= %lu pa\r\n",pressure);
    166a:	9901      	ldr	r1, [sp, #4]
    166c:	481d      	ldr	r0, [pc, #116]	; (16e4 <main+0xe0>)
    166e:	47a0      	blx	r4
		printf("sea level pressure= %lu pa\r\n",realPressure);
    1670:	9902      	ldr	r1, [sp, #8]
    1672:	481d      	ldr	r0, [pc, #116]	; (16e8 <main+0xe4>)
    1674:	47a0      	blx	r4
		printf("Altitude= %lu meter\r\n",AltitudeFpressure);
    1676:	9903      	ldr	r1, [sp, #12]
    1678:	481c      	ldr	r0, [pc, #112]	; (16ec <main+0xe8>)
    167a:	47a0      	blx	r4
		printf("\r\n**********************************************\r\n");
    167c:	481c      	ldr	r0, [pc, #112]	; (16f0 <main+0xec>)
    167e:	4b0c      	ldr	r3, [pc, #48]	; (16b0 <main+0xac>)
    1680:	4798      	blx	r3
	((Port *)hw)->Group[submodule_index].OUTTGL.reg = mask;
    1682:	2180      	movs	r1, #128	; 0x80
    1684:	05c9      	lsls	r1, r1, #23
    1686:	239c      	movs	r3, #156	; 0x9c
    1688:	22c0      	movs	r2, #192	; 0xc0
    168a:	05d2      	lsls	r2, r2, #23
    168c:	50d1      	str	r1, [r2, r3]
    168e:	e7d1      	b.n	1634 <main+0x30>
		printf("sensor initi failed ! check your connection \r\n");
    1690:	4818      	ldr	r0, [pc, #96]	; (16f4 <main+0xf0>)
    1692:	4b07      	ldr	r3, [pc, #28]	; (16b0 <main+0xac>)
    1694:	4798      	blx	r3
		gpio_toggle_pin_level(LED0);
	}
}
    1696:	2000      	movs	r0, #0
    1698:	b005      	add	sp, #20
    169a:	bdf0      	pop	{r4, r5, r6, r7, pc}
    169c:	00000115 	.word	0x00000115
    16a0:	20000a50 	.word	0x20000a50
    16a4:	00000a69 	.word	0x00000a69
    16a8:	00000a5d 	.word	0x00000a5d
    16ac:	0000a0ec 	.word	0x0000a0ec
    16b0:	00005379 	.word	0x00005379
    16b4:	000006bd 	.word	0x000006bd
    16b8:	0000099d 	.word	0x0000099d
    16bc:	000004e9 	.word	0x000004e9
    16c0:	00000525 	.word	0x00000525
    16c4:	00000336 	.word	0x00000336
    16c8:	00000539 	.word	0x00000539
    16cc:	000033e5 	.word	0x000033e5
    16d0:	47c5e680 	.word	0x47c5e680
    16d4:	000005b5 	.word	0x000005b5
    16d8:	00004fc1 	.word	0x00004fc1
    16dc:	0000a16c 	.word	0x0000a16c
    16e0:	000052b5 	.word	0x000052b5
    16e4:	0000a18c 	.word	0x0000a18c
    16e8:	0000a1a0 	.word	0x0000a1a0
    16ec:	0000a1c0 	.word	0x0000a1c0
    16f0:	0000a1d8 	.word	0x0000a1d8
    16f4:	0000a13c 	.word	0x0000a13c

000016f8 <_read>:
#include <stdio.h>

int __attribute__((weak)) _read(int file, char *ptr, int len); /* Remove GCC compiler warning */

int __attribute__((weak)) _read(int file, char *ptr, int len)
{
    16f8:	b510      	push	{r4, lr}
    16fa:	000b      	movs	r3, r1
	int n = 0;

	if (file != 0) {
    16fc:	2800      	cmp	r0, #0
    16fe:	d109      	bne.n	1714 <_read+0x1c>
		return -1;
	}

	n = stdio_io_read((uint8_t *)ptr, len);
    1700:	0011      	movs	r1, r2
    1702:	0018      	movs	r0, r3
    1704:	4b05      	ldr	r3, [pc, #20]	; (171c <_read+0x24>)
    1706:	4798      	blx	r3
    1708:	2800      	cmp	r0, #0
    170a:	db00      	blt.n	170e <_read+0x16>
	if (n < 0) {
		return -1;
	}

	return n;
}
    170c:	bd10      	pop	{r4, pc}
    170e:	2001      	movs	r0, #1
    1710:	4240      	negs	r0, r0
    1712:	e7fb      	b.n	170c <_read+0x14>
		return -1;
    1714:	2001      	movs	r0, #1
    1716:	4240      	negs	r0, r0
    1718:	e7f8      	b.n	170c <_read+0x14>
    171a:	46c0      	nop			; (mov r8, r8)
    171c:	00001775 	.word	0x00001775

00001720 <_write>:
#include <stdio.h>

int __attribute__((weak)) _write(int file, char *ptr, int len); /* Remove GCC compiler warning */

int __attribute__((weak)) _write(int file, char *ptr, int len)
{
    1720:	b510      	push	{r4, lr}
    1722:	000b      	movs	r3, r1
	int n = 0;

	if ((file != 1) && (file != 2) && (file != 3)) {
    1724:	3801      	subs	r0, #1
    1726:	2802      	cmp	r0, #2
    1728:	d809      	bhi.n	173e <_write+0x1e>
		return -1;
	}

	n = stdio_io_write((const uint8_t *)ptr, len);
    172a:	0011      	movs	r1, r2
    172c:	0018      	movs	r0, r3
    172e:	4b05      	ldr	r3, [pc, #20]	; (1744 <_write+0x24>)
    1730:	4798      	blx	r3
    1732:	2800      	cmp	r0, #0
    1734:	db00      	blt.n	1738 <_write+0x18>
	if (n < 0) {
		return -1;
	}

	return n;
}
    1736:	bd10      	pop	{r4, pc}
    1738:	2001      	movs	r0, #1
    173a:	4240      	negs	r0, r0
    173c:	e7fb      	b.n	1736 <_write+0x16>
		return -1;
    173e:	2001      	movs	r0, #1
    1740:	4240      	negs	r0, r0
    1742:	e7f8      	b.n	1736 <_write+0x16>
    1744:	00001799 	.word	0x00001799

00001748 <stdio_io_init>:

/** IO descriptor for STDIO access. */
static struct io_descriptor *stdio_io = NULL;

void stdio_io_init(struct io_descriptor *io)
{
    1748:	b570      	push	{r4, r5, r6, lr}
    174a:	0006      	movs	r6, r0
#if defined(__GNUC__)
	/* Specify that stdout and stdin should not be buffered. */
	setbuf(stdout, NULL);
    174c:	4d06      	ldr	r5, [pc, #24]	; (1768 <stdio_io_init+0x20>)
    174e:	682b      	ldr	r3, [r5, #0]
    1750:	6898      	ldr	r0, [r3, #8]
    1752:	2100      	movs	r1, #0
    1754:	4c05      	ldr	r4, [pc, #20]	; (176c <stdio_io_init+0x24>)
    1756:	47a0      	blx	r4
	setbuf(stdin, NULL);
    1758:	682b      	ldr	r3, [r5, #0]
    175a:	6858      	ldr	r0, [r3, #4]
    175c:	2100      	movs	r1, #0
    175e:	47a0      	blx	r4
	 * and AVR GCC library:
	 * - printf() emits one character at a time.
	 * - getchar() requests only 1 byte to exit.
	 */
#endif
	stdio_io = io;
    1760:	4b03      	ldr	r3, [pc, #12]	; (1770 <stdio_io_init+0x28>)
    1762:	601e      	str	r6, [r3, #0]
}
    1764:	bd70      	pop	{r4, r5, r6, pc}
    1766:	46c0      	nop			; (mov r8, r8)
    1768:	20000004 	.word	0x20000004
    176c:	0000538d 	.word	0x0000538d
    1770:	200009d8 	.word	0x200009d8

00001774 <stdio_io_read>:
{
	stdio_io = io;
}

int32_t stdio_io_read(uint8_t *buf, const int32_t len)
{
    1774:	b510      	push	{r4, lr}
    1776:	0004      	movs	r4, r0
	if (stdio_io == NULL) {
    1778:	4b05      	ldr	r3, [pc, #20]	; (1790 <stdio_io_read+0x1c>)
    177a:	6818      	ldr	r0, [r3, #0]
    177c:	2800      	cmp	r0, #0
    177e:	d004      	beq.n	178a <stdio_io_read+0x16>
		return 0;
	}
	return io_read(stdio_io, buf, len);
    1780:	b28a      	uxth	r2, r1
    1782:	0021      	movs	r1, r4
    1784:	4b03      	ldr	r3, [pc, #12]	; (1794 <stdio_io_read+0x20>)
    1786:	4798      	blx	r3
}
    1788:	bd10      	pop	{r4, pc}
		return 0;
    178a:	2000      	movs	r0, #0
    178c:	e7fc      	b.n	1788 <stdio_io_read+0x14>
    178e:	46c0      	nop			; (mov r8, r8)
    1790:	200009d8 	.word	0x200009d8
    1794:	00000af9 	.word	0x00000af9

00001798 <stdio_io_write>:

int32_t stdio_io_write(const uint8_t *buf, const int32_t len)
{
    1798:	b510      	push	{r4, lr}
    179a:	0004      	movs	r4, r0
	if (stdio_io == NULL) {
    179c:	4b05      	ldr	r3, [pc, #20]	; (17b4 <stdio_io_write+0x1c>)
    179e:	6818      	ldr	r0, [r3, #0]
    17a0:	2800      	cmp	r0, #0
    17a2:	d004      	beq.n	17ae <stdio_io_write+0x16>
		return 0;
	}
	return io_write(stdio_io, buf, len);
    17a4:	b28a      	uxth	r2, r1
    17a6:	0021      	movs	r1, r4
    17a8:	4b03      	ldr	r3, [pc, #12]	; (17b8 <stdio_io_write+0x20>)
    17aa:	4798      	blx	r3
}
    17ac:	bd10      	pop	{r4, pc}
		return 0;
    17ae:	2000      	movs	r0, #0
    17b0:	e7fc      	b.n	17ac <stdio_io_write+0x14>
    17b2:	46c0      	nop			; (mov r8, r8)
    17b4:	200009d8 	.word	0x200009d8
    17b8:	00000ac5 	.word	0x00000ac5

000017bc <stdio_redirect_init>:
	/* Print welcome message */
	printf("\r\nHello ATMEL World!\r\n");
}

void stdio_redirect_init(void)
{
    17bc:	b510      	push	{r4, lr}

	usart_sync_enable(&TARGET_IO);
    17be:	4c04      	ldr	r4, [pc, #16]	; (17d0 <stdio_redirect_init+0x14>)
    17c0:	0020      	movs	r0, r4
    17c2:	4b04      	ldr	r3, [pc, #16]	; (17d4 <stdio_redirect_init+0x18>)
    17c4:	4798      	blx	r3
	stdio_io_init(&TARGET_IO.io);
    17c6:	0020      	movs	r0, r4
    17c8:	4b03      	ldr	r3, [pc, #12]	; (17d8 <stdio_redirect_init+0x1c>)
    17ca:	4798      	blx	r3
}
    17cc:	bd10      	pop	{r4, pc}
    17ce:	46c0      	nop			; (mov r8, r8)
    17d0:	20000a44 	.word	0x20000a44
    17d4:	00000c5d 	.word	0x00000c5d
    17d8:	00001749 	.word	0x00001749

000017dc <pow>:
    17dc:	b5f0      	push	{r4, r5, r6, r7, lr}
    17de:	4657      	mov	r7, sl
    17e0:	464e      	mov	r6, r9
    17e2:	46de      	mov	lr, fp
    17e4:	4645      	mov	r5, r8
    17e6:	b5e0      	push	{r5, r6, r7, lr}
    17e8:	b08f      	sub	sp, #60	; 0x3c
    17ea:	001d      	movs	r5, r3
    17ec:	0006      	movs	r6, r0
    17ee:	000f      	movs	r7, r1
    17f0:	0014      	movs	r4, r2
    17f2:	f000 f99f 	bl	1b34 <__ieee754_pow>
    17f6:	4bc7      	ldr	r3, [pc, #796]	; (1b14 <pow+0x338>)
    17f8:	9000      	str	r0, [sp, #0]
    17fa:	9101      	str	r1, [sp, #4]
    17fc:	469a      	mov	sl, r3
    17fe:	781b      	ldrb	r3, [r3, #0]
    1800:	b25b      	sxtb	r3, r3
    1802:	4699      	mov	r9, r3
    1804:	3301      	adds	r3, #1
    1806:	d03e      	beq.n	1886 <pow+0xaa>
    1808:	0022      	movs	r2, r4
    180a:	002b      	movs	r3, r5
    180c:	0020      	movs	r0, r4
    180e:	0029      	movs	r1, r5
    1810:	f003 fb08 	bl	4e24 <__aeabi_dcmpun>
    1814:	4683      	mov	fp, r0
    1816:	2800      	cmp	r0, #0
    1818:	d135      	bne.n	1886 <pow+0xaa>
    181a:	0032      	movs	r2, r6
    181c:	003b      	movs	r3, r7
    181e:	0030      	movs	r0, r6
    1820:	0039      	movs	r1, r7
    1822:	f003 faff 	bl	4e24 <__aeabi_dcmpun>
    1826:	2200      	movs	r2, #0
    1828:	9003      	str	r0, [sp, #12]
    182a:	2800      	cmp	r0, #0
    182c:	d000      	beq.n	1830 <pow+0x54>
    182e:	e0b6      	b.n	199e <pow+0x1c2>
    1830:	2300      	movs	r3, #0
    1832:	0030      	movs	r0, r6
    1834:	0039      	movs	r1, r7
    1836:	f001 fa41 	bl	2cbc <__aeabi_dcmpeq>
    183a:	2800      	cmp	r0, #0
    183c:	d02c      	beq.n	1898 <pow+0xbc>
    183e:	2200      	movs	r2, #0
    1840:	2300      	movs	r3, #0
    1842:	0020      	movs	r0, r4
    1844:	0029      	movs	r1, r5
    1846:	f001 fa39 	bl	2cbc <__aeabi_dcmpeq>
    184a:	4683      	mov	fp, r0
    184c:	2800      	cmp	r0, #0
    184e:	d100      	bne.n	1852 <pow+0x76>
    1850:	e077      	b.n	1942 <pow+0x166>
    1852:	ab04      	add	r3, sp, #16
    1854:	4698      	mov	r8, r3
    1856:	2301      	movs	r3, #1
    1858:	4642      	mov	r2, r8
    185a:	9304      	str	r3, [sp, #16]
    185c:	4bae      	ldr	r3, [pc, #696]	; (1b18 <pow+0x33c>)
    185e:	6053      	str	r3, [r2, #4]
    1860:	4643      	mov	r3, r8
    1862:	9a03      	ldr	r2, [sp, #12]
    1864:	611c      	str	r4, [r3, #16]
    1866:	615d      	str	r5, [r3, #20]
    1868:	621a      	str	r2, [r3, #32]
    186a:	609e      	str	r6, [r3, #8]
    186c:	60df      	str	r7, [r3, #12]
    186e:	4642      	mov	r2, r8
    1870:	2300      	movs	r3, #0
    1872:	2400      	movs	r4, #0
    1874:	6193      	str	r3, [r2, #24]
    1876:	61d4      	str	r4, [r2, #28]
    1878:	464b      	mov	r3, r9
    187a:	2b00      	cmp	r3, #0
    187c:	d04d      	beq.n	191a <pow+0x13e>
    187e:	2300      	movs	r3, #0
    1880:	4ca6      	ldr	r4, [pc, #664]	; (1b1c <pow+0x340>)
    1882:	9300      	str	r3, [sp, #0]
    1884:	9401      	str	r4, [sp, #4]
    1886:	9800      	ldr	r0, [sp, #0]
    1888:	9901      	ldr	r1, [sp, #4]
    188a:	b00f      	add	sp, #60	; 0x3c
    188c:	bc3c      	pop	{r2, r3, r4, r5}
    188e:	4690      	mov	r8, r2
    1890:	4699      	mov	r9, r3
    1892:	46a2      	mov	sl, r4
    1894:	46ab      	mov	fp, r5
    1896:	bdf0      	pop	{r4, r5, r6, r7, pc}
    1898:	9800      	ldr	r0, [sp, #0]
    189a:	9901      	ldr	r1, [sp, #4]
    189c:	f000 ff64 	bl	2768 <finite>
    18a0:	4681      	mov	r9, r0
    18a2:	2800      	cmp	r0, #0
    18a4:	d100      	bne.n	18a8 <pow+0xcc>
    18a6:	e09b      	b.n	19e0 <pow+0x204>
    18a8:	9800      	ldr	r0, [sp, #0]
    18aa:	9901      	ldr	r1, [sp, #4]
    18ac:	2200      	movs	r2, #0
    18ae:	2300      	movs	r3, #0
    18b0:	f001 fa04 	bl	2cbc <__aeabi_dcmpeq>
    18b4:	2800      	cmp	r0, #0
    18b6:	d0e6      	beq.n	1886 <pow+0xaa>
    18b8:	0030      	movs	r0, r6
    18ba:	0039      	movs	r1, r7
    18bc:	f000 ff54 	bl	2768 <finite>
    18c0:	2800      	cmp	r0, #0
    18c2:	d0e0      	beq.n	1886 <pow+0xaa>
    18c4:	0020      	movs	r0, r4
    18c6:	0029      	movs	r1, r5
    18c8:	f000 ff4e 	bl	2768 <finite>
    18cc:	2800      	cmp	r0, #0
    18ce:	d0da      	beq.n	1886 <pow+0xaa>
    18d0:	ab04      	add	r3, sp, #16
    18d2:	4698      	mov	r8, r3
    18d4:	2304      	movs	r3, #4
    18d6:	4642      	mov	r2, r8
    18d8:	9304      	str	r3, [sp, #16]
    18da:	4b8f      	ldr	r3, [pc, #572]	; (1b18 <pow+0x33c>)
    18dc:	6114      	str	r4, [r2, #16]
    18de:	6155      	str	r5, [r2, #20]
    18e0:	6053      	str	r3, [r2, #4]
    18e2:	2300      	movs	r3, #0
    18e4:	2400      	movs	r4, #0
    18e6:	6213      	str	r3, [r2, #32]
    18e8:	2300      	movs	r3, #0
    18ea:	6193      	str	r3, [r2, #24]
    18ec:	61d4      	str	r4, [r2, #28]
    18ee:	4653      	mov	r3, sl
    18f0:	781b      	ldrb	r3, [r3, #0]
    18f2:	6096      	str	r6, [r2, #8]
    18f4:	60d7      	str	r7, [r2, #12]
    18f6:	b25b      	sxtb	r3, r3
    18f8:	2b02      	cmp	r3, #2
    18fa:	d004      	beq.n	1906 <pow+0x12a>
    18fc:	4640      	mov	r0, r8
    18fe:	f000 ff3d 	bl	277c <matherr>
    1902:	2800      	cmp	r0, #0
    1904:	d10e      	bne.n	1924 <pow+0x148>
    1906:	f003 fc61 	bl	51cc <__errno>
    190a:	2322      	movs	r3, #34	; 0x22
    190c:	6003      	str	r3, [r0, #0]
    190e:	e009      	b.n	1924 <pow+0x148>
    1910:	4642      	mov	r2, r8
    1912:	2300      	movs	r3, #0
    1914:	2400      	movs	r4, #0
    1916:	6193      	str	r3, [r2, #24]
    1918:	61d4      	str	r4, [r2, #28]
    191a:	4640      	mov	r0, r8
    191c:	f000 ff2e 	bl	277c <matherr>
    1920:	2800      	cmp	r0, #0
    1922:	d037      	beq.n	1994 <pow+0x1b8>
    1924:	4643      	mov	r3, r8
    1926:	6a1b      	ldr	r3, [r3, #32]
    1928:	2b00      	cmp	r3, #0
    192a:	d004      	beq.n	1936 <pow+0x15a>
    192c:	f003 fc4e 	bl	51cc <__errno>
    1930:	4643      	mov	r3, r8
    1932:	6a1b      	ldr	r3, [r3, #32]
    1934:	6003      	str	r3, [r0, #0]
    1936:	4643      	mov	r3, r8
    1938:	69dc      	ldr	r4, [r3, #28]
    193a:	699b      	ldr	r3, [r3, #24]
    193c:	9300      	str	r3, [sp, #0]
    193e:	9401      	str	r4, [sp, #4]
    1940:	e7a1      	b.n	1886 <pow+0xaa>
    1942:	0020      	movs	r0, r4
    1944:	0029      	movs	r1, r5
    1946:	f000 ff0f 	bl	2768 <finite>
    194a:	2800      	cmp	r0, #0
    194c:	d09b      	beq.n	1886 <pow+0xaa>
    194e:	2200      	movs	r2, #0
    1950:	2300      	movs	r3, #0
    1952:	0020      	movs	r0, r4
    1954:	0029      	movs	r1, r5
    1956:	f001 f9b7 	bl	2cc8 <__aeabi_dcmplt>
    195a:	2800      	cmp	r0, #0
    195c:	d100      	bne.n	1960 <pow+0x184>
    195e:	e792      	b.n	1886 <pow+0xaa>
    1960:	ab04      	add	r3, sp, #16
    1962:	4698      	mov	r8, r3
    1964:	2301      	movs	r3, #1
    1966:	4642      	mov	r2, r8
    1968:	9304      	str	r3, [sp, #16]
    196a:	4b6b      	ldr	r3, [pc, #428]	; (1b18 <pow+0x33c>)
    196c:	6053      	str	r3, [r2, #4]
    196e:	4643      	mov	r3, r8
    1970:	465a      	mov	r2, fp
    1972:	609e      	str	r6, [r3, #8]
    1974:	60df      	str	r7, [r3, #12]
    1976:	621a      	str	r2, [r3, #32]
    1978:	611c      	str	r4, [r3, #16]
    197a:	615d      	str	r5, [r3, #20]
    197c:	4653      	mov	r3, sl
    197e:	781b      	ldrb	r3, [r3, #0]
    1980:	b25b      	sxtb	r3, r3
    1982:	2b00      	cmp	r3, #0
    1984:	d0c4      	beq.n	1910 <pow+0x134>
    1986:	2000      	movs	r0, #0
    1988:	4642      	mov	r2, r8
    198a:	4965      	ldr	r1, [pc, #404]	; (1b20 <pow+0x344>)
    198c:	6190      	str	r0, [r2, #24]
    198e:	61d1      	str	r1, [r2, #28]
    1990:	2b02      	cmp	r3, #2
    1992:	d1c2      	bne.n	191a <pow+0x13e>
    1994:	f003 fc1a 	bl	51cc <__errno>
    1998:	2321      	movs	r3, #33	; 0x21
    199a:	6003      	str	r3, [r0, #0]
    199c:	e7c2      	b.n	1924 <pow+0x148>
    199e:	2300      	movs	r3, #0
    19a0:	0020      	movs	r0, r4
    19a2:	0029      	movs	r1, r5
    19a4:	f001 f98a 	bl	2cbc <__aeabi_dcmpeq>
    19a8:	2800      	cmp	r0, #0
    19aa:	d100      	bne.n	19ae <pow+0x1d2>
    19ac:	e76b      	b.n	1886 <pow+0xaa>
    19ae:	ab04      	add	r3, sp, #16
    19b0:	4698      	mov	r8, r3
    19b2:	2301      	movs	r3, #1
    19b4:	4642      	mov	r2, r8
    19b6:	9304      	str	r3, [sp, #16]
    19b8:	4b57      	ldr	r3, [pc, #348]	; (1b18 <pow+0x33c>)
    19ba:	4641      	mov	r1, r8
    19bc:	6053      	str	r3, [r2, #4]
    19be:	4643      	mov	r3, r8
    19c0:	465a      	mov	r2, fp
    19c2:	621a      	str	r2, [r3, #32]
    19c4:	2200      	movs	r2, #0
    19c6:	609e      	str	r6, [r3, #8]
    19c8:	60df      	str	r7, [r3, #12]
    19ca:	611c      	str	r4, [r3, #16]
    19cc:	615d      	str	r5, [r3, #20]
    19ce:	4b53      	ldr	r3, [pc, #332]	; (1b1c <pow+0x340>)
    19d0:	618a      	str	r2, [r1, #24]
    19d2:	61cb      	str	r3, [r1, #28]
    19d4:	9200      	str	r2, [sp, #0]
    19d6:	9301      	str	r3, [sp, #4]
    19d8:	464b      	mov	r3, r9
    19da:	2b02      	cmp	r3, #2
    19dc:	d19d      	bne.n	191a <pow+0x13e>
    19de:	e752      	b.n	1886 <pow+0xaa>
    19e0:	0030      	movs	r0, r6
    19e2:	0039      	movs	r1, r7
    19e4:	f000 fec0 	bl	2768 <finite>
    19e8:	2800      	cmp	r0, #0
    19ea:	d100      	bne.n	19ee <pow+0x212>
    19ec:	e75c      	b.n	18a8 <pow+0xcc>
    19ee:	0020      	movs	r0, r4
    19f0:	0029      	movs	r1, r5
    19f2:	f000 feb9 	bl	2768 <finite>
    19f6:	2800      	cmp	r0, #0
    19f8:	d100      	bne.n	19fc <pow+0x220>
    19fa:	e755      	b.n	18a8 <pow+0xcc>
    19fc:	9800      	ldr	r0, [sp, #0]
    19fe:	9901      	ldr	r1, [sp, #4]
    1a00:	000b      	movs	r3, r1
    1a02:	0002      	movs	r2, r0
    1a04:	f003 fa0e 	bl	4e24 <__aeabi_dcmpun>
    1a08:	ab04      	add	r3, sp, #16
    1a0a:	4698      	mov	r8, r3
    1a0c:	2800      	cmp	r0, #0
    1a0e:	d161      	bne.n	1ad4 <pow+0x2f8>
    1a10:	2303      	movs	r3, #3
    1a12:	4642      	mov	r2, r8
    1a14:	9304      	str	r3, [sp, #16]
    1a16:	4b40      	ldr	r3, [pc, #256]	; (1b18 <pow+0x33c>)
    1a18:	6210      	str	r0, [r2, #32]
    1a1a:	6053      	str	r3, [r2, #4]
    1a1c:	4653      	mov	r3, sl
    1a1e:	781b      	ldrb	r3, [r3, #0]
    1a20:	6096      	str	r6, [r2, #8]
    1a22:	60d7      	str	r7, [r2, #12]
    1a24:	b25b      	sxtb	r3, r3
    1a26:	6114      	str	r4, [r2, #16]
    1a28:	6155      	str	r5, [r2, #20]
    1a2a:	4699      	mov	r9, r3
    1a2c:	2b00      	cmp	r3, #0
    1a2e:	d12f      	bne.n	1a90 <pow+0x2b4>
    1a30:	22e0      	movs	r2, #224	; 0xe0
    1a32:	4641      	mov	r1, r8
    1a34:	4b3b      	ldr	r3, [pc, #236]	; (1b24 <pow+0x348>)
    1a36:	0612      	lsls	r2, r2, #24
    1a38:	618a      	str	r2, [r1, #24]
    1a3a:	61cb      	str	r3, [r1, #28]
    1a3c:	0030      	movs	r0, r6
    1a3e:	2200      	movs	r2, #0
    1a40:	2300      	movs	r3, #0
    1a42:	0039      	movs	r1, r7
    1a44:	f001 f940 	bl	2cc8 <__aeabi_dcmplt>
    1a48:	2800      	cmp	r0, #0
    1a4a:	d100      	bne.n	1a4e <pow+0x272>
    1a4c:	e756      	b.n	18fc <pow+0x120>
    1a4e:	2200      	movs	r2, #0
    1a50:	4b35      	ldr	r3, [pc, #212]	; (1b28 <pow+0x34c>)
    1a52:	0020      	movs	r0, r4
    1a54:	0029      	movs	r1, r5
    1a56:	f002 fc4f 	bl	42f8 <__aeabi_dmul>
    1a5a:	0004      	movs	r4, r0
    1a5c:	000d      	movs	r5, r1
    1a5e:	f000 fe95 	bl	278c <rint>
    1a62:	0002      	movs	r2, r0
    1a64:	000b      	movs	r3, r1
    1a66:	0020      	movs	r0, r4
    1a68:	0029      	movs	r1, r5
    1a6a:	f001 f927 	bl	2cbc <__aeabi_dcmpeq>
    1a6e:	2800      	cmp	r0, #0
    1a70:	d105      	bne.n	1a7e <pow+0x2a2>
    1a72:	22e0      	movs	r2, #224	; 0xe0
    1a74:	4b2d      	ldr	r3, [pc, #180]	; (1b2c <pow+0x350>)
    1a76:	0612      	lsls	r2, r2, #24
    1a78:	4641      	mov	r1, r8
    1a7a:	618a      	str	r2, [r1, #24]
    1a7c:	61cb      	str	r3, [r1, #28]
    1a7e:	4653      	mov	r3, sl
    1a80:	781b      	ldrb	r3, [r3, #0]
    1a82:	b25b      	sxtb	r3, r3
    1a84:	4699      	mov	r9, r3
    1a86:	464b      	mov	r3, r9
    1a88:	2b02      	cmp	r3, #2
    1a8a:	d000      	beq.n	1a8e <pow+0x2b2>
    1a8c:	e736      	b.n	18fc <pow+0x120>
    1a8e:	e73a      	b.n	1906 <pow+0x12a>
    1a90:	2200      	movs	r2, #0
    1a92:	4641      	mov	r1, r8
    1a94:	4b26      	ldr	r3, [pc, #152]	; (1b30 <pow+0x354>)
    1a96:	0030      	movs	r0, r6
    1a98:	618a      	str	r2, [r1, #24]
    1a9a:	61cb      	str	r3, [r1, #28]
    1a9c:	2200      	movs	r2, #0
    1a9e:	2300      	movs	r3, #0
    1aa0:	0039      	movs	r1, r7
    1aa2:	f001 f911 	bl	2cc8 <__aeabi_dcmplt>
    1aa6:	2800      	cmp	r0, #0
    1aa8:	d0ed      	beq.n	1a86 <pow+0x2aa>
    1aaa:	2200      	movs	r2, #0
    1aac:	4b1e      	ldr	r3, [pc, #120]	; (1b28 <pow+0x34c>)
    1aae:	0020      	movs	r0, r4
    1ab0:	0029      	movs	r1, r5
    1ab2:	f002 fc21 	bl	42f8 <__aeabi_dmul>
    1ab6:	0004      	movs	r4, r0
    1ab8:	000d      	movs	r5, r1
    1aba:	f000 fe67 	bl	278c <rint>
    1abe:	0002      	movs	r2, r0
    1ac0:	000b      	movs	r3, r1
    1ac2:	0020      	movs	r0, r4
    1ac4:	0029      	movs	r1, r5
    1ac6:	f001 f8f9 	bl	2cbc <__aeabi_dcmpeq>
    1aca:	2800      	cmp	r0, #0
    1acc:	d1d7      	bne.n	1a7e <pow+0x2a2>
    1ace:	2200      	movs	r2, #0
    1ad0:	4b13      	ldr	r3, [pc, #76]	; (1b20 <pow+0x344>)
    1ad2:	e7d1      	b.n	1a78 <pow+0x29c>
    1ad4:	2301      	movs	r3, #1
    1ad6:	4642      	mov	r2, r8
    1ad8:	9304      	str	r3, [sp, #16]
    1ada:	4b0f      	ldr	r3, [pc, #60]	; (1b18 <pow+0x33c>)
    1adc:	6053      	str	r3, [r2, #4]
    1ade:	4643      	mov	r3, r8
    1ae0:	464a      	mov	r2, r9
    1ae2:	611c      	str	r4, [r3, #16]
    1ae4:	615d      	str	r5, [r3, #20]
    1ae6:	621a      	str	r2, [r3, #32]
    1ae8:	609e      	str	r6, [r3, #8]
    1aea:	60df      	str	r7, [r3, #12]
    1aec:	2400      	movs	r4, #0
    1aee:	4653      	mov	r3, sl
    1af0:	571c      	ldrsb	r4, [r3, r4]
    1af2:	2c00      	cmp	r4, #0
    1af4:	d100      	bne.n	1af8 <pow+0x31c>
    1af6:	e70b      	b.n	1910 <pow+0x134>
    1af8:	2300      	movs	r3, #0
    1afa:	2200      	movs	r2, #0
    1afc:	0019      	movs	r1, r3
    1afe:	0010      	movs	r0, r2
    1b00:	f001 ffc6 	bl	3a90 <__aeabi_ddiv>
    1b04:	4643      	mov	r3, r8
    1b06:	6198      	str	r0, [r3, #24]
    1b08:	61d9      	str	r1, [r3, #28]
    1b0a:	2c02      	cmp	r4, #2
    1b0c:	d100      	bne.n	1b10 <pow+0x334>
    1b0e:	e741      	b.n	1994 <pow+0x1b8>
    1b10:	e703      	b.n	191a <pow+0x13e>
    1b12:	46c0      	nop			; (mov r8, r8)
    1b14:	20000000 	.word	0x20000000
    1b18:	0000a20c 	.word	0x0000a20c
    1b1c:	3ff00000 	.word	0x3ff00000
    1b20:	fff00000 	.word	0xfff00000
    1b24:	47efffff 	.word	0x47efffff
    1b28:	3fe00000 	.word	0x3fe00000
    1b2c:	c7efffff 	.word	0xc7efffff
    1b30:	7ff00000 	.word	0x7ff00000

00001b34 <__ieee754_pow>:
    1b34:	b5f0      	push	{r4, r5, r6, r7, lr}
    1b36:	4657      	mov	r7, sl
    1b38:	464e      	mov	r6, r9
    1b3a:	4645      	mov	r5, r8
    1b3c:	46de      	mov	lr, fp
    1b3e:	001c      	movs	r4, r3
    1b40:	0013      	movs	r3, r2
    1b42:	b5e0      	push	{r5, r6, r7, lr}
    1b44:	0065      	lsls	r5, r4, #1
    1b46:	b091      	sub	sp, #68	; 0x44
    1b48:	086d      	lsrs	r5, r5, #1
    1b4a:	9300      	str	r3, [sp, #0]
    1b4c:	9401      	str	r4, [sp, #4]
    1b4e:	0007      	movs	r7, r0
    1b50:	000e      	movs	r6, r1
    1b52:	4680      	mov	r8, r0
    1b54:	4689      	mov	r9, r1
    1b56:	46a2      	mov	sl, r4
    1b58:	432b      	orrs	r3, r5
    1b5a:	d031      	beq.n	1bc0 <__ieee754_pow+0x8c>
    1b5c:	4b67      	ldr	r3, [pc, #412]	; (1cfc <__ieee754_pow+0x1c8>)
    1b5e:	0074      	lsls	r4, r6, #1
    1b60:	0864      	lsrs	r4, r4, #1
    1b62:	429c      	cmp	r4, r3
    1b64:	dc27      	bgt.n	1bb6 <__ieee754_pow+0x82>
    1b66:	d024      	beq.n	1bb2 <__ieee754_pow+0x7e>
    1b68:	429d      	cmp	r5, r3
    1b6a:	dc24      	bgt.n	1bb6 <__ieee754_pow+0x82>
    1b6c:	4b63      	ldr	r3, [pc, #396]	; (1cfc <__ieee754_pow+0x1c8>)
    1b6e:	429d      	cmp	r5, r3
    1b70:	d100      	bne.n	1b74 <__ieee754_pow+0x40>
    1b72:	e081      	b.n	1c78 <__ieee754_pow+0x144>
    1b74:	2300      	movs	r3, #0
    1b76:	469b      	mov	fp, r3
    1b78:	464b      	mov	r3, r9
    1b7a:	2b00      	cmp	r3, #0
    1b7c:	da00      	bge.n	1b80 <__ieee754_pow+0x4c>
    1b7e:	e07f      	b.n	1c80 <__ieee754_pow+0x14c>
    1b80:	2a00      	cmp	r2, #0
    1b82:	d12c      	bne.n	1bde <__ieee754_pow+0xaa>
    1b84:	4b5d      	ldr	r3, [pc, #372]	; (1cfc <__ieee754_pow+0x1c8>)
    1b86:	429d      	cmp	r5, r3
    1b88:	d100      	bne.n	1b8c <__ieee754_pow+0x58>
    1b8a:	e097      	b.n	1cbc <__ieee754_pow+0x188>
    1b8c:	4b5c      	ldr	r3, [pc, #368]	; (1d00 <__ieee754_pow+0x1cc>)
    1b8e:	429d      	cmp	r5, r3
    1b90:	d066      	beq.n	1c60 <__ieee754_pow+0x12c>
    1b92:	2380      	movs	r3, #128	; 0x80
    1b94:	05db      	lsls	r3, r3, #23
    1b96:	459a      	cmp	sl, r3
    1b98:	d100      	bne.n	1b9c <__ieee754_pow+0x68>
    1b9a:	e3b9      	b.n	2310 <STACK_SIZE+0x310>
    1b9c:	4b59      	ldr	r3, [pc, #356]	; (1d04 <__ieee754_pow+0x1d0>)
    1b9e:	459a      	cmp	sl, r3
    1ba0:	d11d      	bne.n	1bde <__ieee754_pow+0xaa>
    1ba2:	464b      	mov	r3, r9
    1ba4:	2b00      	cmp	r3, #0
    1ba6:	db1a      	blt.n	1bde <__ieee754_pow+0xaa>
    1ba8:	0038      	movs	r0, r7
    1baa:	0031      	movs	r1, r6
    1bac:	f000 fcf8 	bl	25a0 <__ieee754_sqrt>
    1bb0:	e008      	b.n	1bc4 <__ieee754_pow+0x90>
    1bb2:	2800      	cmp	r0, #0
    1bb4:	d00d      	beq.n	1bd2 <__ieee754_pow+0x9e>
    1bb6:	4b54      	ldr	r3, [pc, #336]	; (1d08 <__ieee754_pow+0x1d4>)
    1bb8:	469c      	mov	ip, r3
    1bba:	4464      	add	r4, ip
    1bbc:	4327      	orrs	r7, r4
    1bbe:	d10a      	bne.n	1bd6 <__ieee754_pow+0xa2>
    1bc0:	2000      	movs	r0, #0
    1bc2:	494f      	ldr	r1, [pc, #316]	; (1d00 <__ieee754_pow+0x1cc>)
    1bc4:	b011      	add	sp, #68	; 0x44
    1bc6:	bc3c      	pop	{r2, r3, r4, r5}
    1bc8:	4690      	mov	r8, r2
    1bca:	4699      	mov	r9, r3
    1bcc:	46a2      	mov	sl, r4
    1bce:	46ab      	mov	fp, r5
    1bd0:	bdf0      	pop	{r4, r5, r6, r7, pc}
    1bd2:	42a5      	cmp	r5, r4
    1bd4:	ddca      	ble.n	1b6c <__ieee754_pow+0x38>
    1bd6:	484d      	ldr	r0, [pc, #308]	; (1d0c <__ieee754_pow+0x1d8>)
    1bd8:	f000 fdd2 	bl	2780 <nan>
    1bdc:	e7f2      	b.n	1bc4 <__ieee754_pow+0x90>
    1bde:	0038      	movs	r0, r7
    1be0:	0031      	movs	r1, r6
    1be2:	f000 fdbd 	bl	2760 <fabs>
    1be6:	4643      	mov	r3, r8
    1be8:	2b00      	cmp	r3, #0
    1bea:	d11d      	bne.n	1c28 <__ieee754_pow+0xf4>
    1bec:	2c00      	cmp	r4, #0
    1bee:	d004      	beq.n	1bfa <__ieee754_pow+0xc6>
    1bf0:	4a43      	ldr	r2, [pc, #268]	; (1d00 <__ieee754_pow+0x1cc>)
    1bf2:	00b3      	lsls	r3, r6, #2
    1bf4:	089b      	lsrs	r3, r3, #2
    1bf6:	4293      	cmp	r3, r2
    1bf8:	d116      	bne.n	1c28 <__ieee754_pow+0xf4>
    1bfa:	4653      	mov	r3, sl
    1bfc:	2b00      	cmp	r3, #0
    1bfe:	da00      	bge.n	1c02 <__ieee754_pow+0xce>
    1c00:	e3c5      	b.n	238e <STACK_SIZE+0x38e>
    1c02:	464b      	mov	r3, r9
    1c04:	2b00      	cmp	r3, #0
    1c06:	dadd      	bge.n	1bc4 <__ieee754_pow+0x90>
    1c08:	4b3f      	ldr	r3, [pc, #252]	; (1d08 <__ieee754_pow+0x1d4>)
    1c0a:	469c      	mov	ip, r3
    1c0c:	465b      	mov	r3, fp
    1c0e:	4464      	add	r4, ip
    1c10:	431c      	orrs	r4, r3
    1c12:	d101      	bne.n	1c18 <__ieee754_pow+0xe4>
    1c14:	f000 fc53 	bl	24be <STACK_SIZE+0x4be>
    1c18:	465b      	mov	r3, fp
    1c1a:	2b01      	cmp	r3, #1
    1c1c:	d1d2      	bne.n	1bc4 <__ieee754_pow+0x90>
    1c1e:	2480      	movs	r4, #128	; 0x80
    1c20:	0624      	lsls	r4, r4, #24
    1c22:	190b      	adds	r3, r1, r4
    1c24:	0019      	movs	r1, r3
    1c26:	e7cd      	b.n	1bc4 <__ieee754_pow+0x90>
    1c28:	0ff3      	lsrs	r3, r6, #31
    1c2a:	3b01      	subs	r3, #1
    1c2c:	4698      	mov	r8, r3
    1c2e:	465b      	mov	r3, fp
    1c30:	4642      	mov	r2, r8
    1c32:	4313      	orrs	r3, r2
    1c34:	d057      	beq.n	1ce6 <__ieee754_pow+0x1b2>
    1c36:	4b36      	ldr	r3, [pc, #216]	; (1d10 <__ieee754_pow+0x1dc>)
    1c38:	429d      	cmp	r5, r3
    1c3a:	dd77      	ble.n	1d2c <__ieee754_pow+0x1f8>
    1c3c:	4b35      	ldr	r3, [pc, #212]	; (1d14 <__ieee754_pow+0x1e0>)
    1c3e:	429d      	cmp	r5, r3
    1c40:	dc00      	bgt.n	1c44 <__ieee754_pow+0x110>
    1c42:	e3b1      	b.n	23a8 <STACK_SIZE+0x3a8>
    1c44:	4b34      	ldr	r3, [pc, #208]	; (1d18 <__ieee754_pow+0x1e4>)
    1c46:	429c      	cmp	r4, r3
    1c48:	dc00      	bgt.n	1c4c <__ieee754_pow+0x118>
    1c4a:	e3a8      	b.n	239e <STACK_SIZE+0x39e>
    1c4c:	4653      	mov	r3, sl
    1c4e:	2b00      	cmp	r3, #0
    1c50:	dd43      	ble.n	1cda <__ieee754_pow+0x1a6>
    1c52:	4a32      	ldr	r2, [pc, #200]	; (1d1c <__ieee754_pow+0x1e8>)
    1c54:	4b32      	ldr	r3, [pc, #200]	; (1d20 <__ieee754_pow+0x1ec>)
    1c56:	0010      	movs	r0, r2
    1c58:	0019      	movs	r1, r3
    1c5a:	f002 fb4d 	bl	42f8 <__aeabi_dmul>
    1c5e:	e7b1      	b.n	1bc4 <__ieee754_pow+0x90>
    1c60:	4653      	mov	r3, sl
    1c62:	0038      	movs	r0, r7
    1c64:	0031      	movs	r1, r6
    1c66:	2b00      	cmp	r3, #0
    1c68:	daac      	bge.n	1bc4 <__ieee754_pow+0x90>
    1c6a:	003a      	movs	r2, r7
    1c6c:	0033      	movs	r3, r6
    1c6e:	2000      	movs	r0, #0
    1c70:	4923      	ldr	r1, [pc, #140]	; (1d00 <__ieee754_pow+0x1cc>)
    1c72:	f001 ff0d 	bl	3a90 <__aeabi_ddiv>
    1c76:	e7a5      	b.n	1bc4 <__ieee754_pow+0x90>
    1c78:	2a00      	cmp	r2, #0
    1c7a:	d100      	bne.n	1c7e <__ieee754_pow+0x14a>
    1c7c:	e77a      	b.n	1b74 <__ieee754_pow+0x40>
    1c7e:	e79a      	b.n	1bb6 <__ieee754_pow+0x82>
    1c80:	4b28      	ldr	r3, [pc, #160]	; (1d24 <__ieee754_pow+0x1f0>)
    1c82:	429d      	cmp	r5, r3
    1c84:	dc2c      	bgt.n	1ce0 <__ieee754_pow+0x1ac>
    1c86:	4b24      	ldr	r3, [pc, #144]	; (1d18 <__ieee754_pow+0x1e4>)
    1c88:	429d      	cmp	r5, r3
    1c8a:	dc00      	bgt.n	1c8e <__ieee754_pow+0x15a>
    1c8c:	e778      	b.n	1b80 <__ieee754_pow+0x4c>
    1c8e:	4926      	ldr	r1, [pc, #152]	; (1d28 <__ieee754_pow+0x1f4>)
    1c90:	152b      	asrs	r3, r5, #20
    1c92:	468c      	mov	ip, r1
    1c94:	4463      	add	r3, ip
    1c96:	2b14      	cmp	r3, #20
    1c98:	dc01      	bgt.n	1c9e <__ieee754_pow+0x16a>
    1c9a:	f000 fbf3 	bl	2484 <STACK_SIZE+0x484>
    1c9e:	2134      	movs	r1, #52	; 0x34
    1ca0:	1acb      	subs	r3, r1, r3
    1ca2:	9900      	ldr	r1, [sp, #0]
    1ca4:	40d9      	lsrs	r1, r3
    1ca6:	0008      	movs	r0, r1
    1ca8:	4098      	lsls	r0, r3
    1caa:	4282      	cmp	r2, r0
    1cac:	d000      	beq.n	1cb0 <__ieee754_pow+0x17c>
    1cae:	e767      	b.n	1b80 <__ieee754_pow+0x4c>
    1cb0:	2301      	movs	r3, #1
    1cb2:	4019      	ands	r1, r3
    1cb4:	3301      	adds	r3, #1
    1cb6:	1a5b      	subs	r3, r3, r1
    1cb8:	469b      	mov	fp, r3
    1cba:	e761      	b.n	1b80 <__ieee754_pow+0x4c>
    1cbc:	4b12      	ldr	r3, [pc, #72]	; (1d08 <__ieee754_pow+0x1d4>)
    1cbe:	18e3      	adds	r3, r4, r3
    1cc0:	431f      	orrs	r7, r3
    1cc2:	d100      	bne.n	1cc6 <__ieee754_pow+0x192>
    1cc4:	e77c      	b.n	1bc0 <__ieee754_pow+0x8c>
    1cc6:	4b14      	ldr	r3, [pc, #80]	; (1d18 <__ieee754_pow+0x1e4>)
    1cc8:	429c      	cmp	r4, r3
    1cca:	dc00      	bgt.n	1cce <__ieee754_pow+0x19a>
    1ccc:	e327      	b.n	231e <STACK_SIZE+0x31e>
    1cce:	9800      	ldr	r0, [sp, #0]
    1cd0:	9901      	ldr	r1, [sp, #4]
    1cd2:	4653      	mov	r3, sl
    1cd4:	2b00      	cmp	r3, #0
    1cd6:	db00      	blt.n	1cda <__ieee754_pow+0x1a6>
    1cd8:	e774      	b.n	1bc4 <__ieee754_pow+0x90>
    1cda:	2000      	movs	r0, #0
    1cdc:	2100      	movs	r1, #0
    1cde:	e771      	b.n	1bc4 <__ieee754_pow+0x90>
    1ce0:	2302      	movs	r3, #2
    1ce2:	469b      	mov	fp, r3
    1ce4:	e74c      	b.n	1b80 <__ieee754_pow+0x4c>
    1ce6:	003a      	movs	r2, r7
    1ce8:	0033      	movs	r3, r6
    1cea:	0038      	movs	r0, r7
    1cec:	0031      	movs	r1, r6
    1cee:	f002 fd83 	bl	47f8 <__aeabi_dsub>
    1cf2:	0002      	movs	r2, r0
    1cf4:	000b      	movs	r3, r1
    1cf6:	f001 fecb 	bl	3a90 <__aeabi_ddiv>
    1cfa:	e763      	b.n	1bc4 <__ieee754_pow+0x90>
    1cfc:	7ff00000 	.word	0x7ff00000
    1d00:	3ff00000 	.word	0x3ff00000
    1d04:	3fe00000 	.word	0x3fe00000
    1d08:	c0100000 	.word	0xc0100000
    1d0c:	0000a1bc 	.word	0x0000a1bc
    1d10:	41e00000 	.word	0x41e00000
    1d14:	43f00000 	.word	0x43f00000
    1d18:	3fefffff 	.word	0x3fefffff
    1d1c:	8800759c 	.word	0x8800759c
    1d20:	7e37e43c 	.word	0x7e37e43c
    1d24:	433fffff 	.word	0x433fffff
    1d28:	fffffc01 	.word	0xfffffc01
    1d2c:	4be9      	ldr	r3, [pc, #932]	; (20d4 <STACK_SIZE+0xd4>)
    1d2e:	2200      	movs	r2, #0
    1d30:	429c      	cmp	r4, r3
    1d32:	dc06      	bgt.n	1d42 <__ieee754_pow+0x20e>
    1d34:	2200      	movs	r2, #0
    1d36:	4be8      	ldr	r3, [pc, #928]	; (20d8 <STACK_SIZE+0xd8>)
    1d38:	f002 fade 	bl	42f8 <__aeabi_dmul>
    1d3c:	2235      	movs	r2, #53	; 0x35
    1d3e:	000c      	movs	r4, r1
    1d40:	4252      	negs	r2, r2
    1d42:	4de6      	ldr	r5, [pc, #920]	; (20dc <STACK_SIZE+0xdc>)
    1d44:	1523      	asrs	r3, r4, #20
    1d46:	46ac      	mov	ip, r5
    1d48:	4463      	add	r3, ip
    1d4a:	4699      	mov	r9, r3
    1d4c:	0324      	lsls	r4, r4, #12
    1d4e:	4de4      	ldr	r5, [pc, #912]	; (20e0 <STACK_SIZE+0xe0>)
    1d50:	4be4      	ldr	r3, [pc, #912]	; (20e4 <STACK_SIZE+0xe4>)
    1d52:	0b24      	lsrs	r4, r4, #12
    1d54:	4491      	add	r9, r2
    1d56:	4325      	orrs	r5, r4
    1d58:	429c      	cmp	r4, r3
    1d5a:	dd09      	ble.n	1d70 <__ieee754_pow+0x23c>
    1d5c:	4be2      	ldr	r3, [pc, #904]	; (20e8 <STACK_SIZE+0xe8>)
    1d5e:	429c      	cmp	r4, r3
    1d60:	dc00      	bgt.n	1d64 <__ieee754_pow+0x230>
    1d62:	e3b6      	b.n	24d2 <STACK_SIZE+0x4d2>
    1d64:	2301      	movs	r3, #1
    1d66:	469c      	mov	ip, r3
    1d68:	4be0      	ldr	r3, [pc, #896]	; (20ec <STACK_SIZE+0xec>)
    1d6a:	44e1      	add	r9, ip
    1d6c:	469c      	mov	ip, r3
    1d6e:	4465      	add	r5, ip
    1d70:	2300      	movs	r3, #0
    1d72:	2400      	movs	r4, #0
    1d74:	2200      	movs	r2, #0
    1d76:	9308      	str	r3, [sp, #32]
    1d78:	9409      	str	r4, [sp, #36]	; 0x24
    1d7a:	930c      	str	r3, [sp, #48]	; 0x30
    1d7c:	940d      	str	r4, [sp, #52]	; 0x34
    1d7e:	2400      	movs	r4, #0
    1d80:	4bd7      	ldr	r3, [pc, #860]	; (20e0 <STACK_SIZE+0xe0>)
    1d82:	9206      	str	r2, [sp, #24]
    1d84:	9307      	str	r3, [sp, #28]
    1d86:	9a06      	ldr	r2, [sp, #24]
    1d88:	9b07      	ldr	r3, [sp, #28]
    1d8a:	0029      	movs	r1, r5
    1d8c:	900a      	str	r0, [sp, #40]	; 0x28
    1d8e:	910b      	str	r1, [sp, #44]	; 0x2c
    1d90:	f002 fd32 	bl	47f8 <__aeabi_dsub>
    1d94:	9a06      	ldr	r2, [sp, #24]
    1d96:	9b07      	ldr	r3, [sp, #28]
    1d98:	0006      	movs	r6, r0
    1d9a:	000f      	movs	r7, r1
    1d9c:	980a      	ldr	r0, [sp, #40]	; 0x28
    1d9e:	990b      	ldr	r1, [sp, #44]	; 0x2c
    1da0:	f001 fb66 	bl	3470 <__aeabi_dadd>
    1da4:	0002      	movs	r2, r0
    1da6:	000b      	movs	r3, r1
    1da8:	2000      	movs	r0, #0
    1daa:	49cd      	ldr	r1, [pc, #820]	; (20e0 <STACK_SIZE+0xe0>)
    1dac:	f001 fe70 	bl	3a90 <__aeabi_ddiv>
    1db0:	000a      	movs	r2, r1
    1db2:	0001      	movs	r1, r0
    1db4:	0013      	movs	r3, r2
    1db6:	910e      	str	r1, [sp, #56]	; 0x38
    1db8:	920f      	str	r2, [sp, #60]	; 0x3c
    1dba:	0002      	movs	r2, r0
    1dbc:	0039      	movs	r1, r7
    1dbe:	0030      	movs	r0, r6
    1dc0:	f002 fa9a 	bl	42f8 <__aeabi_dmul>
    1dc4:	000a      	movs	r2, r1
    1dc6:	0001      	movs	r1, r0
    1dc8:	2080      	movs	r0, #128	; 0x80
    1dca:	9104      	str	r1, [sp, #16]
    1dcc:	9205      	str	r2, [sp, #20]
    1dce:	0013      	movs	r3, r2
    1dd0:	2200      	movs	r2, #0
    1dd2:	1069      	asrs	r1, r5, #1
    1dd4:	2580      	movs	r5, #128	; 0x80
    1dd6:	0300      	lsls	r0, r0, #12
    1dd8:	4684      	mov	ip, r0
    1dda:	9202      	str	r2, [sp, #8]
    1ddc:	9303      	str	r3, [sp, #12]
    1dde:	2200      	movs	r2, #0
    1de0:	05ad      	lsls	r5, r5, #22
    1de2:	430d      	orrs	r5, r1
    1de4:	4465      	add	r5, ip
    1de6:	192b      	adds	r3, r5, r4
    1de8:	9802      	ldr	r0, [sp, #8]
    1dea:	9903      	ldr	r1, [sp, #12]
    1dec:	0014      	movs	r4, r2
    1dee:	001d      	movs	r5, r3
    1df0:	f002 fa82 	bl	42f8 <__aeabi_dmul>
    1df4:	0002      	movs	r2, r0
    1df6:	000b      	movs	r3, r1
    1df8:	0030      	movs	r0, r6
    1dfa:	0039      	movs	r1, r7
    1dfc:	f002 fcfc 	bl	47f8 <__aeabi_dsub>
    1e00:	9a06      	ldr	r2, [sp, #24]
    1e02:	9b07      	ldr	r3, [sp, #28]
    1e04:	0006      	movs	r6, r0
    1e06:	000f      	movs	r7, r1
    1e08:	0020      	movs	r0, r4
    1e0a:	0029      	movs	r1, r5
    1e0c:	f002 fcf4 	bl	47f8 <__aeabi_dsub>
    1e10:	0002      	movs	r2, r0
    1e12:	000b      	movs	r3, r1
    1e14:	980a      	ldr	r0, [sp, #40]	; 0x28
    1e16:	990b      	ldr	r1, [sp, #44]	; 0x2c
    1e18:	f002 fcee 	bl	47f8 <__aeabi_dsub>
    1e1c:	9a02      	ldr	r2, [sp, #8]
    1e1e:	9b03      	ldr	r3, [sp, #12]
    1e20:	f002 fa6a 	bl	42f8 <__aeabi_dmul>
    1e24:	0002      	movs	r2, r0
    1e26:	000b      	movs	r3, r1
    1e28:	0030      	movs	r0, r6
    1e2a:	0039      	movs	r1, r7
    1e2c:	f002 fce4 	bl	47f8 <__aeabi_dsub>
    1e30:	9a0e      	ldr	r2, [sp, #56]	; 0x38
    1e32:	9b0f      	ldr	r3, [sp, #60]	; 0x3c
    1e34:	f002 fa60 	bl	42f8 <__aeabi_dmul>
    1e38:	9d04      	ldr	r5, [sp, #16]
    1e3a:	9e05      	ldr	r6, [sp, #20]
    1e3c:	9006      	str	r0, [sp, #24]
    1e3e:	9107      	str	r1, [sp, #28]
    1e40:	002a      	movs	r2, r5
    1e42:	0033      	movs	r3, r6
    1e44:	0028      	movs	r0, r5
    1e46:	0031      	movs	r1, r6
    1e48:	f002 fa56 	bl	42f8 <__aeabi_dmul>
    1e4c:	0006      	movs	r6, r0
    1e4e:	000f      	movs	r7, r1
    1e50:	4aa7      	ldr	r2, [pc, #668]	; (20f0 <STACK_SIZE+0xf0>)
    1e52:	4ba8      	ldr	r3, [pc, #672]	; (20f4 <STACK_SIZE+0xf4>)
    1e54:	f002 fa50 	bl	42f8 <__aeabi_dmul>
    1e58:	4aa7      	ldr	r2, [pc, #668]	; (20f8 <STACK_SIZE+0xf8>)
    1e5a:	4ba8      	ldr	r3, [pc, #672]	; (20fc <STACK_SIZE+0xfc>)
    1e5c:	f001 fb08 	bl	3470 <__aeabi_dadd>
    1e60:	0032      	movs	r2, r6
    1e62:	003b      	movs	r3, r7
    1e64:	f002 fa48 	bl	42f8 <__aeabi_dmul>
    1e68:	4aa5      	ldr	r2, [pc, #660]	; (2100 <STACK_SIZE+0x100>)
    1e6a:	4ba6      	ldr	r3, [pc, #664]	; (2104 <STACK_SIZE+0x104>)
    1e6c:	f001 fb00 	bl	3470 <__aeabi_dadd>
    1e70:	0032      	movs	r2, r6
    1e72:	003b      	movs	r3, r7
    1e74:	f002 fa40 	bl	42f8 <__aeabi_dmul>
    1e78:	4aa3      	ldr	r2, [pc, #652]	; (2108 <STACK_SIZE+0x108>)
    1e7a:	4ba4      	ldr	r3, [pc, #656]	; (210c <STACK_SIZE+0x10c>)
    1e7c:	f001 faf8 	bl	3470 <__aeabi_dadd>
    1e80:	0032      	movs	r2, r6
    1e82:	003b      	movs	r3, r7
    1e84:	f002 fa38 	bl	42f8 <__aeabi_dmul>
    1e88:	4aa1      	ldr	r2, [pc, #644]	; (2110 <STACK_SIZE+0x110>)
    1e8a:	4ba2      	ldr	r3, [pc, #648]	; (2114 <STACK_SIZE+0x114>)
    1e8c:	f001 faf0 	bl	3470 <__aeabi_dadd>
    1e90:	0032      	movs	r2, r6
    1e92:	003b      	movs	r3, r7
    1e94:	f002 fa30 	bl	42f8 <__aeabi_dmul>
    1e98:	4a9f      	ldr	r2, [pc, #636]	; (2118 <STACK_SIZE+0x118>)
    1e9a:	4ba0      	ldr	r3, [pc, #640]	; (211c <STACK_SIZE+0x11c>)
    1e9c:	f001 fae8 	bl	3470 <__aeabi_dadd>
    1ea0:	0032      	movs	r2, r6
    1ea2:	0004      	movs	r4, r0
    1ea4:	000d      	movs	r5, r1
    1ea6:	003b      	movs	r3, r7
    1ea8:	0030      	movs	r0, r6
    1eaa:	0039      	movs	r1, r7
    1eac:	f002 fa24 	bl	42f8 <__aeabi_dmul>
    1eb0:	0002      	movs	r2, r0
    1eb2:	000b      	movs	r3, r1
    1eb4:	0020      	movs	r0, r4
    1eb6:	0029      	movs	r1, r5
    1eb8:	f002 fa1e 	bl	42f8 <__aeabi_dmul>
    1ebc:	9e02      	ldr	r6, [sp, #8]
    1ebe:	9f03      	ldr	r7, [sp, #12]
    1ec0:	0004      	movs	r4, r0
    1ec2:	000d      	movs	r5, r1
    1ec4:	9804      	ldr	r0, [sp, #16]
    1ec6:	9905      	ldr	r1, [sp, #20]
    1ec8:	0032      	movs	r2, r6
    1eca:	003b      	movs	r3, r7
    1ecc:	f001 fad0 	bl	3470 <__aeabi_dadd>
    1ed0:	9a06      	ldr	r2, [sp, #24]
    1ed2:	9b07      	ldr	r3, [sp, #28]
    1ed4:	f002 fa10 	bl	42f8 <__aeabi_dmul>
    1ed8:	0022      	movs	r2, r4
    1eda:	002b      	movs	r3, r5
    1edc:	f001 fac8 	bl	3470 <__aeabi_dadd>
    1ee0:	0032      	movs	r2, r6
    1ee2:	900a      	str	r0, [sp, #40]	; 0x28
    1ee4:	910b      	str	r1, [sp, #44]	; 0x2c
    1ee6:	003b      	movs	r3, r7
    1ee8:	0030      	movs	r0, r6
    1eea:	0039      	movs	r1, r7
    1eec:	9602      	str	r6, [sp, #8]
    1eee:	9703      	str	r7, [sp, #12]
    1ef0:	f002 fa02 	bl	42f8 <__aeabi_dmul>
    1ef4:	2200      	movs	r2, #0
    1ef6:	4b8a      	ldr	r3, [pc, #552]	; (2120 <STACK_SIZE+0x120>)
    1ef8:	0004      	movs	r4, r0
    1efa:	000d      	movs	r5, r1
    1efc:	f001 fab8 	bl	3470 <__aeabi_dadd>
    1f00:	9a0a      	ldr	r2, [sp, #40]	; 0x28
    1f02:	9b0b      	ldr	r3, [sp, #44]	; 0x2c
    1f04:	f001 fab4 	bl	3470 <__aeabi_dadd>
    1f08:	2600      	movs	r6, #0
    1f0a:	000f      	movs	r7, r1
    1f0c:	0032      	movs	r2, r6
    1f0e:	000b      	movs	r3, r1
    1f10:	9802      	ldr	r0, [sp, #8]
    1f12:	9903      	ldr	r1, [sp, #12]
    1f14:	f002 f9f0 	bl	42f8 <__aeabi_dmul>
    1f18:	2200      	movs	r2, #0
    1f1a:	9002      	str	r0, [sp, #8]
    1f1c:	9103      	str	r1, [sp, #12]
    1f1e:	4b80      	ldr	r3, [pc, #512]	; (2120 <STACK_SIZE+0x120>)
    1f20:	0030      	movs	r0, r6
    1f22:	0039      	movs	r1, r7
    1f24:	f002 fc68 	bl	47f8 <__aeabi_dsub>
    1f28:	0022      	movs	r2, r4
    1f2a:	002b      	movs	r3, r5
    1f2c:	f002 fc64 	bl	47f8 <__aeabi_dsub>
    1f30:	0002      	movs	r2, r0
    1f32:	000b      	movs	r3, r1
    1f34:	980a      	ldr	r0, [sp, #40]	; 0x28
    1f36:	990b      	ldr	r1, [sp, #44]	; 0x2c
    1f38:	f002 fc5e 	bl	47f8 <__aeabi_dsub>
    1f3c:	9a04      	ldr	r2, [sp, #16]
    1f3e:	9b05      	ldr	r3, [sp, #20]
    1f40:	f002 f9da 	bl	42f8 <__aeabi_dmul>
    1f44:	0032      	movs	r2, r6
    1f46:	0004      	movs	r4, r0
    1f48:	000d      	movs	r5, r1
    1f4a:	9806      	ldr	r0, [sp, #24]
    1f4c:	9907      	ldr	r1, [sp, #28]
    1f4e:	003b      	movs	r3, r7
    1f50:	f002 f9d2 	bl	42f8 <__aeabi_dmul>
    1f54:	0002      	movs	r2, r0
    1f56:	000b      	movs	r3, r1
    1f58:	0020      	movs	r0, r4
    1f5a:	0029      	movs	r1, r5
    1f5c:	f001 fa88 	bl	3470 <__aeabi_dadd>
    1f60:	0004      	movs	r4, r0
    1f62:	000d      	movs	r5, r1
    1f64:	0002      	movs	r2, r0
    1f66:	000b      	movs	r3, r1
    1f68:	9802      	ldr	r0, [sp, #8]
    1f6a:	9903      	ldr	r1, [sp, #12]
    1f6c:	f001 fa80 	bl	3470 <__aeabi_dadd>
    1f70:	2600      	movs	r6, #0
    1f72:	22e0      	movs	r2, #224	; 0xe0
    1f74:	4b6b      	ldr	r3, [pc, #428]	; (2124 <STACK_SIZE+0x124>)
    1f76:	0612      	lsls	r2, r2, #24
    1f78:	0030      	movs	r0, r6
    1f7a:	000f      	movs	r7, r1
    1f7c:	f002 f9bc 	bl	42f8 <__aeabi_dmul>
    1f80:	9a02      	ldr	r2, [sp, #8]
    1f82:	9b03      	ldr	r3, [sp, #12]
    1f84:	9004      	str	r0, [sp, #16]
    1f86:	9105      	str	r1, [sp, #20]
    1f88:	0030      	movs	r0, r6
    1f8a:	0039      	movs	r1, r7
    1f8c:	f002 fc34 	bl	47f8 <__aeabi_dsub>
    1f90:	0002      	movs	r2, r0
    1f92:	000b      	movs	r3, r1
    1f94:	0020      	movs	r0, r4
    1f96:	0029      	movs	r1, r5
    1f98:	f002 fc2e 	bl	47f8 <__aeabi_dsub>
    1f9c:	4a62      	ldr	r2, [pc, #392]	; (2128 <STACK_SIZE+0x128>)
    1f9e:	4b61      	ldr	r3, [pc, #388]	; (2124 <STACK_SIZE+0x124>)
    1fa0:	f002 f9aa 	bl	42f8 <__aeabi_dmul>
    1fa4:	4a61      	ldr	r2, [pc, #388]	; (212c <STACK_SIZE+0x12c>)
    1fa6:	0004      	movs	r4, r0
    1fa8:	000d      	movs	r5, r1
    1faa:	4b61      	ldr	r3, [pc, #388]	; (2130 <STACK_SIZE+0x130>)
    1fac:	0030      	movs	r0, r6
    1fae:	0039      	movs	r1, r7
    1fb0:	f002 f9a2 	bl	42f8 <__aeabi_dmul>
    1fb4:	0002      	movs	r2, r0
    1fb6:	000b      	movs	r3, r1
    1fb8:	0020      	movs	r0, r4
    1fba:	0029      	movs	r1, r5
    1fbc:	f001 fa58 	bl	3470 <__aeabi_dadd>
    1fc0:	9a0c      	ldr	r2, [sp, #48]	; 0x30
    1fc2:	9b0d      	ldr	r3, [sp, #52]	; 0x34
    1fc4:	f001 fa54 	bl	3470 <__aeabi_dadd>
    1fc8:	0006      	movs	r6, r0
    1fca:	4648      	mov	r0, r9
    1fcc:	000f      	movs	r7, r1
    1fce:	f002 ff7d 	bl	4ecc <__aeabi_i2d>
    1fd2:	0004      	movs	r4, r0
    1fd4:	000d      	movs	r5, r1
    1fd6:	9804      	ldr	r0, [sp, #16]
    1fd8:	9905      	ldr	r1, [sp, #20]
    1fda:	0032      	movs	r2, r6
    1fdc:	003b      	movs	r3, r7
    1fde:	f001 fa47 	bl	3470 <__aeabi_dadd>
    1fe2:	9a08      	ldr	r2, [sp, #32]
    1fe4:	9b09      	ldr	r3, [sp, #36]	; 0x24
    1fe6:	f001 fa43 	bl	3470 <__aeabi_dadd>
    1fea:	0022      	movs	r2, r4
    1fec:	002b      	movs	r3, r5
    1fee:	f001 fa3f 	bl	3470 <__aeabi_dadd>
    1ff2:	2000      	movs	r0, #0
    1ff4:	0022      	movs	r2, r4
    1ff6:	002b      	movs	r3, r5
    1ff8:	9002      	str	r0, [sp, #8]
    1ffa:	9103      	str	r1, [sp, #12]
    1ffc:	f002 fbfc 	bl	47f8 <__aeabi_dsub>
    2000:	9a08      	ldr	r2, [sp, #32]
    2002:	9b09      	ldr	r3, [sp, #36]	; 0x24
    2004:	f002 fbf8 	bl	47f8 <__aeabi_dsub>
    2008:	9a04      	ldr	r2, [sp, #16]
    200a:	9b05      	ldr	r3, [sp, #20]
    200c:	f002 fbf4 	bl	47f8 <__aeabi_dsub>
    2010:	0002      	movs	r2, r0
    2012:	000b      	movs	r3, r1
    2014:	0030      	movs	r0, r6
    2016:	0039      	movs	r1, r7
    2018:	f002 fbee 	bl	47f8 <__aeabi_dsub>
    201c:	9004      	str	r0, [sp, #16]
    201e:	9105      	str	r1, [sp, #20]
    2020:	465b      	mov	r3, fp
    2022:	4642      	mov	r2, r8
    2024:	3b01      	subs	r3, #1
    2026:	4313      	orrs	r3, r2
    2028:	d100      	bne.n	202c <STACK_SIZE+0x2c>
    202a:	e1ab      	b.n	2384 <STACK_SIZE+0x384>
    202c:	2300      	movs	r3, #0
    202e:	4c2c      	ldr	r4, [pc, #176]	; (20e0 <STACK_SIZE+0xe0>)
    2030:	9306      	str	r3, [sp, #24]
    2032:	9407      	str	r4, [sp, #28]
    2034:	9800      	ldr	r0, [sp, #0]
    2036:	9901      	ldr	r1, [sp, #4]
    2038:	2600      	movs	r6, #0
    203a:	000b      	movs	r3, r1
    203c:	0032      	movs	r2, r6
    203e:	000f      	movs	r7, r1
    2040:	f002 fbda 	bl	47f8 <__aeabi_dsub>
    2044:	9a02      	ldr	r2, [sp, #8]
    2046:	9b03      	ldr	r3, [sp, #12]
    2048:	f002 f956 	bl	42f8 <__aeabi_dmul>
    204c:	9a00      	ldr	r2, [sp, #0]
    204e:	9b01      	ldr	r3, [sp, #4]
    2050:	0004      	movs	r4, r0
    2052:	000d      	movs	r5, r1
    2054:	9804      	ldr	r0, [sp, #16]
    2056:	9905      	ldr	r1, [sp, #20]
    2058:	f002 f94e 	bl	42f8 <__aeabi_dmul>
    205c:	0002      	movs	r2, r0
    205e:	000b      	movs	r3, r1
    2060:	0020      	movs	r0, r4
    2062:	0029      	movs	r1, r5
    2064:	f001 fa04 	bl	3470 <__aeabi_dadd>
    2068:	0004      	movs	r4, r0
    206a:	000d      	movs	r5, r1
    206c:	9802      	ldr	r0, [sp, #8]
    206e:	9903      	ldr	r1, [sp, #12]
    2070:	0032      	movs	r2, r6
    2072:	003b      	movs	r3, r7
    2074:	9400      	str	r4, [sp, #0]
    2076:	9501      	str	r5, [sp, #4]
    2078:	f002 f93e 	bl	42f8 <__aeabi_dmul>
    207c:	0002      	movs	r2, r0
    207e:	000b      	movs	r3, r1
    2080:	0006      	movs	r6, r0
    2082:	000f      	movs	r7, r1
    2084:	0020      	movs	r0, r4
    2086:	0029      	movs	r1, r5
    2088:	f001 f9f2 	bl	3470 <__aeabi_dadd>
    208c:	4b29      	ldr	r3, [pc, #164]	; (2134 <STACK_SIZE+0x134>)
    208e:	0004      	movs	r4, r0
    2090:	000d      	movs	r5, r1
    2092:	0002      	movs	r2, r0
    2094:	468b      	mov	fp, r1
    2096:	4299      	cmp	r1, r3
    2098:	dc00      	bgt.n	209c <STACK_SIZE+0x9c>
    209a:	e14f      	b.n	233c <STACK_SIZE+0x33c>
    209c:	4b26      	ldr	r3, [pc, #152]	; (2138 <STACK_SIZE+0x138>)
    209e:	18cb      	adds	r3, r1, r3
    20a0:	4303      	orrs	r3, r0
    20a2:	d000      	beq.n	20a6 <STACK_SIZE+0xa6>
    20a4:	e1e2      	b.n	246c <STACK_SIZE+0x46c>
    20a6:	9800      	ldr	r0, [sp, #0]
    20a8:	9901      	ldr	r1, [sp, #4]
    20aa:	4a24      	ldr	r2, [pc, #144]	; (213c <STACK_SIZE+0x13c>)
    20ac:	4b24      	ldr	r3, [pc, #144]	; (2140 <STACK_SIZE+0x140>)
    20ae:	f001 f9df 	bl	3470 <__aeabi_dadd>
    20b2:	0032      	movs	r2, r6
    20b4:	9002      	str	r0, [sp, #8]
    20b6:	9103      	str	r1, [sp, #12]
    20b8:	003b      	movs	r3, r7
    20ba:	0020      	movs	r0, r4
    20bc:	0029      	movs	r1, r5
    20be:	f002 fb9b 	bl	47f8 <__aeabi_dsub>
    20c2:	0002      	movs	r2, r0
    20c4:	000b      	movs	r3, r1
    20c6:	9802      	ldr	r0, [sp, #8]
    20c8:	9903      	ldr	r1, [sp, #12]
    20ca:	f000 fe11 	bl	2cf0 <__aeabi_dcmpgt>
    20ce:	46aa      	mov	sl, r5
    20d0:	e038      	b.n	2144 <STACK_SIZE+0x144>
    20d2:	46c0      	nop			; (mov r8, r8)
    20d4:	000fffff 	.word	0x000fffff
    20d8:	43400000 	.word	0x43400000
    20dc:	fffffc01 	.word	0xfffffc01
    20e0:	3ff00000 	.word	0x3ff00000
    20e4:	0003988e 	.word	0x0003988e
    20e8:	000bb679 	.word	0x000bb679
    20ec:	fff00000 	.word	0xfff00000
    20f0:	4a454eef 	.word	0x4a454eef
    20f4:	3fca7e28 	.word	0x3fca7e28
    20f8:	93c9db65 	.word	0x93c9db65
    20fc:	3fcd864a 	.word	0x3fcd864a
    2100:	a91d4101 	.word	0xa91d4101
    2104:	3fd17460 	.word	0x3fd17460
    2108:	518f264d 	.word	0x518f264d
    210c:	3fd55555 	.word	0x3fd55555
    2110:	db6fabff 	.word	0xdb6fabff
    2114:	3fdb6db6 	.word	0x3fdb6db6
    2118:	33333303 	.word	0x33333303
    211c:	3fe33333 	.word	0x3fe33333
    2120:	40080000 	.word	0x40080000
    2124:	3feec709 	.word	0x3feec709
    2128:	dc3a03fd 	.word	0xdc3a03fd
    212c:	145b01f5 	.word	0x145b01f5
    2130:	be3e2fe0 	.word	0xbe3e2fe0
    2134:	408fffff 	.word	0x408fffff
    2138:	bf700000 	.word	0xbf700000
    213c:	652b82fe 	.word	0x652b82fe
    2140:	3c971547 	.word	0x3c971547
    2144:	2800      	cmp	r0, #0
    2146:	d000      	beq.n	214a <STACK_SIZE+0x14a>
    2148:	e190      	b.n	246c <STACK_SIZE+0x46c>
    214a:	4aec      	ldr	r2, [pc, #944]	; (24fc <STACK_SIZE+0x4fc>)
    214c:	4653      	mov	r3, sl
    214e:	4694      	mov	ip, r2
    2150:	2280      	movs	r2, #128	; 0x80
    2152:	0352      	lsls	r2, r2, #13
    2154:	0011      	movs	r1, r2
    2156:	151b      	asrs	r3, r3, #20
    2158:	4463      	add	r3, ip
    215a:	4119      	asrs	r1, r3
    215c:	000b      	movs	r3, r1
    215e:	4690      	mov	r8, r2
    2160:	4ae7      	ldr	r2, [pc, #924]	; (2500 <STACK_SIZE+0x500>)
    2162:	445b      	add	r3, fp
    2164:	4694      	mov	ip, r2
    2166:	005c      	lsls	r4, r3, #1
    2168:	0d64      	lsrs	r4, r4, #21
    216a:	4de6      	ldr	r5, [pc, #920]	; (2504 <STACK_SIZE+0x504>)
    216c:	4464      	add	r4, ip
    216e:	4125      	asrs	r5, r4
    2170:	001a      	movs	r2, r3
    2172:	43aa      	bics	r2, r5
    2174:	0011      	movs	r1, r2
    2176:	4642      	mov	r2, r8
    2178:	031b      	lsls	r3, r3, #12
    217a:	0b1b      	lsrs	r3, r3, #12
    217c:	4313      	orrs	r3, r2
    217e:	2214      	movs	r2, #20
    2180:	1b14      	subs	r4, r2, r4
    2182:	4123      	asrs	r3, r4
    2184:	4699      	mov	r9, r3
    2186:	465b      	mov	r3, fp
    2188:	2000      	movs	r0, #0
    218a:	2b00      	cmp	r3, #0
    218c:	da00      	bge.n	2190 <STACK_SIZE+0x190>
    218e:	e1b0      	b.n	24f2 <STACK_SIZE+0x4f2>
    2190:	0002      	movs	r2, r0
    2192:	000b      	movs	r3, r1
    2194:	0030      	movs	r0, r6
    2196:	0039      	movs	r1, r7
    2198:	f002 fb2e 	bl	47f8 <__aeabi_dsub>
    219c:	000b      	movs	r3, r1
    219e:	0002      	movs	r2, r0
    21a0:	0006      	movs	r6, r0
    21a2:	000f      	movs	r7, r1
    21a4:	9800      	ldr	r0, [sp, #0]
    21a6:	9901      	ldr	r1, [sp, #4]
    21a8:	f001 f962 	bl	3470 <__aeabi_dadd>
    21ac:	464b      	mov	r3, r9
    21ae:	051b      	lsls	r3, r3, #20
    21b0:	000d      	movs	r5, r1
    21b2:	4698      	mov	r8, r3
    21b4:	2400      	movs	r4, #0
    21b6:	2200      	movs	r2, #0
    21b8:	4bd3      	ldr	r3, [pc, #844]	; (2508 <STACK_SIZE+0x508>)
    21ba:	0020      	movs	r0, r4
    21bc:	0029      	movs	r1, r5
    21be:	f002 f89b 	bl	42f8 <__aeabi_dmul>
    21c2:	0032      	movs	r2, r6
    21c4:	9002      	str	r0, [sp, #8]
    21c6:	9103      	str	r1, [sp, #12]
    21c8:	003b      	movs	r3, r7
    21ca:	0020      	movs	r0, r4
    21cc:	0029      	movs	r1, r5
    21ce:	f002 fb13 	bl	47f8 <__aeabi_dsub>
    21d2:	0002      	movs	r2, r0
    21d4:	000b      	movs	r3, r1
    21d6:	9800      	ldr	r0, [sp, #0]
    21d8:	9901      	ldr	r1, [sp, #4]
    21da:	f002 fb0d 	bl	47f8 <__aeabi_dsub>
    21de:	4acb      	ldr	r2, [pc, #812]	; (250c <STACK_SIZE+0x50c>)
    21e0:	4bcb      	ldr	r3, [pc, #812]	; (2510 <STACK_SIZE+0x510>)
    21e2:	f002 f889 	bl	42f8 <__aeabi_dmul>
    21e6:	4acb      	ldr	r2, [pc, #812]	; (2514 <STACK_SIZE+0x514>)
    21e8:	0006      	movs	r6, r0
    21ea:	000f      	movs	r7, r1
    21ec:	4bca      	ldr	r3, [pc, #808]	; (2518 <STACK_SIZE+0x518>)
    21ee:	0020      	movs	r0, r4
    21f0:	0029      	movs	r1, r5
    21f2:	f002 f881 	bl	42f8 <__aeabi_dmul>
    21f6:	0002      	movs	r2, r0
    21f8:	000b      	movs	r3, r1
    21fa:	0030      	movs	r0, r6
    21fc:	0039      	movs	r1, r7
    21fe:	f001 f937 	bl	3470 <__aeabi_dadd>
    2202:	0004      	movs	r4, r0
    2204:	000d      	movs	r5, r1
    2206:	0002      	movs	r2, r0
    2208:	000b      	movs	r3, r1
    220a:	9802      	ldr	r0, [sp, #8]
    220c:	9903      	ldr	r1, [sp, #12]
    220e:	f001 f92f 	bl	3470 <__aeabi_dadd>
    2212:	9a02      	ldr	r2, [sp, #8]
    2214:	9b03      	ldr	r3, [sp, #12]
    2216:	0006      	movs	r6, r0
    2218:	000f      	movs	r7, r1
    221a:	f002 faed 	bl	47f8 <__aeabi_dsub>
    221e:	0002      	movs	r2, r0
    2220:	000b      	movs	r3, r1
    2222:	0020      	movs	r0, r4
    2224:	0029      	movs	r1, r5
    2226:	f002 fae7 	bl	47f8 <__aeabi_dsub>
    222a:	0032      	movs	r2, r6
    222c:	9000      	str	r0, [sp, #0]
    222e:	9101      	str	r1, [sp, #4]
    2230:	003b      	movs	r3, r7
    2232:	0030      	movs	r0, r6
    2234:	0039      	movs	r1, r7
    2236:	f002 f85f 	bl	42f8 <__aeabi_dmul>
    223a:	0004      	movs	r4, r0
    223c:	000d      	movs	r5, r1
    223e:	4ab7      	ldr	r2, [pc, #732]	; (251c <STACK_SIZE+0x51c>)
    2240:	4bb7      	ldr	r3, [pc, #732]	; (2520 <STACK_SIZE+0x520>)
    2242:	f002 f859 	bl	42f8 <__aeabi_dmul>
    2246:	4ab7      	ldr	r2, [pc, #732]	; (2524 <STACK_SIZE+0x524>)
    2248:	4bb7      	ldr	r3, [pc, #732]	; (2528 <STACK_SIZE+0x528>)
    224a:	f002 fad5 	bl	47f8 <__aeabi_dsub>
    224e:	0022      	movs	r2, r4
    2250:	002b      	movs	r3, r5
    2252:	f002 f851 	bl	42f8 <__aeabi_dmul>
    2256:	4ab5      	ldr	r2, [pc, #724]	; (252c <STACK_SIZE+0x52c>)
    2258:	4bb5      	ldr	r3, [pc, #724]	; (2530 <STACK_SIZE+0x530>)
    225a:	f001 f909 	bl	3470 <__aeabi_dadd>
    225e:	0022      	movs	r2, r4
    2260:	002b      	movs	r3, r5
    2262:	f002 f849 	bl	42f8 <__aeabi_dmul>
    2266:	4ab3      	ldr	r2, [pc, #716]	; (2534 <STACK_SIZE+0x534>)
    2268:	4bb3      	ldr	r3, [pc, #716]	; (2538 <STACK_SIZE+0x538>)
    226a:	f002 fac5 	bl	47f8 <__aeabi_dsub>
    226e:	0022      	movs	r2, r4
    2270:	002b      	movs	r3, r5
    2272:	f002 f841 	bl	42f8 <__aeabi_dmul>
    2276:	4ab1      	ldr	r2, [pc, #708]	; (253c <STACK_SIZE+0x53c>)
    2278:	4bb1      	ldr	r3, [pc, #708]	; (2540 <STACK_SIZE+0x540>)
    227a:	f001 f8f9 	bl	3470 <__aeabi_dadd>
    227e:	0022      	movs	r2, r4
    2280:	002b      	movs	r3, r5
    2282:	f002 f839 	bl	42f8 <__aeabi_dmul>
    2286:	0002      	movs	r2, r0
    2288:	000b      	movs	r3, r1
    228a:	0030      	movs	r0, r6
    228c:	0039      	movs	r1, r7
    228e:	f002 fab3 	bl	47f8 <__aeabi_dsub>
    2292:	0004      	movs	r4, r0
    2294:	000d      	movs	r5, r1
    2296:	0002      	movs	r2, r0
    2298:	000b      	movs	r3, r1
    229a:	0030      	movs	r0, r6
    229c:	0039      	movs	r1, r7
    229e:	f002 f82b 	bl	42f8 <__aeabi_dmul>
    22a2:	2380      	movs	r3, #128	; 0x80
    22a4:	9002      	str	r0, [sp, #8]
    22a6:	9103      	str	r1, [sp, #12]
    22a8:	2200      	movs	r2, #0
    22aa:	05db      	lsls	r3, r3, #23
    22ac:	0020      	movs	r0, r4
    22ae:	0029      	movs	r1, r5
    22b0:	f002 faa2 	bl	47f8 <__aeabi_dsub>
    22b4:	0002      	movs	r2, r0
    22b6:	000b      	movs	r3, r1
    22b8:	9802      	ldr	r0, [sp, #8]
    22ba:	9903      	ldr	r1, [sp, #12]
    22bc:	f001 fbe8 	bl	3a90 <__aeabi_ddiv>
    22c0:	9a00      	ldr	r2, [sp, #0]
    22c2:	9b01      	ldr	r3, [sp, #4]
    22c4:	0004      	movs	r4, r0
    22c6:	000d      	movs	r5, r1
    22c8:	0030      	movs	r0, r6
    22ca:	0039      	movs	r1, r7
    22cc:	f002 f814 	bl	42f8 <__aeabi_dmul>
    22d0:	9a00      	ldr	r2, [sp, #0]
    22d2:	9b01      	ldr	r3, [sp, #4]
    22d4:	f001 f8cc 	bl	3470 <__aeabi_dadd>
    22d8:	0002      	movs	r2, r0
    22da:	000b      	movs	r3, r1
    22dc:	0020      	movs	r0, r4
    22de:	0029      	movs	r1, r5
    22e0:	f002 fa8a 	bl	47f8 <__aeabi_dsub>
    22e4:	0032      	movs	r2, r6
    22e6:	003b      	movs	r3, r7
    22e8:	f002 fa86 	bl	47f8 <__aeabi_dsub>
    22ec:	0002      	movs	r2, r0
    22ee:	000b      	movs	r3, r1
    22f0:	2000      	movs	r0, #0
    22f2:	4994      	ldr	r1, [pc, #592]	; (2544 <STACK_SIZE+0x544>)
    22f4:	f002 fa80 	bl	47f8 <__aeabi_dsub>
    22f8:	4643      	mov	r3, r8
    22fa:	185b      	adds	r3, r3, r1
    22fc:	151a      	asrs	r2, r3, #20
    22fe:	2a00      	cmp	r2, #0
    2300:	dc00      	bgt.n	2304 <STACK_SIZE+0x304>
    2302:	e149      	b.n	2598 <STACK_SIZE+0x598>
    2304:	0019      	movs	r1, r3
    2306:	9a06      	ldr	r2, [sp, #24]
    2308:	9b07      	ldr	r3, [sp, #28]
    230a:	f001 fff5 	bl	42f8 <__aeabi_dmul>
    230e:	e459      	b.n	1bc4 <__ieee754_pow+0x90>
    2310:	003a      	movs	r2, r7
    2312:	0033      	movs	r3, r6
    2314:	0038      	movs	r0, r7
    2316:	0031      	movs	r1, r6
    2318:	f001 ffee 	bl	42f8 <__aeabi_dmul>
    231c:	e452      	b.n	1bc4 <__ieee754_pow+0x90>
    231e:	4653      	mov	r3, sl
    2320:	2b00      	cmp	r3, #0
    2322:	db00      	blt.n	2326 <STACK_SIZE+0x326>
    2324:	e4d9      	b.n	1cda <__ieee754_pow+0x1a6>
    2326:	9c00      	ldr	r4, [sp, #0]
    2328:	9d01      	ldr	r5, [sp, #4]
    232a:	2280      	movs	r2, #128	; 0x80
    232c:	0612      	lsls	r2, r2, #24
    232e:	002b      	movs	r3, r5
    2330:	4694      	mov	ip, r2
    2332:	4463      	add	r3, ip
    2334:	0020      	movs	r0, r4
    2336:	0019      	movs	r1, r3
    2338:	f7ff fc44 	bl	1bc4 <__ieee754_pow+0x90>
    233c:	004b      	lsls	r3, r1, #1
    233e:	085b      	lsrs	r3, r3, #1
    2340:	469a      	mov	sl, r3
    2342:	4b81      	ldr	r3, [pc, #516]	; (2548 <STACK_SIZE+0x548>)
    2344:	459a      	cmp	sl, r3
    2346:	dc00      	bgt.n	234a <STACK_SIZE+0x34a>
    2348:	e0b1      	b.n	24ae <STACK_SIZE+0x4ae>
    234a:	4b80      	ldr	r3, [pc, #512]	; (254c <STACK_SIZE+0x54c>)
    234c:	445b      	add	r3, fp
    234e:	431a      	orrs	r2, r3
    2350:	d10c      	bne.n	236c <STACK_SIZE+0x36c>
    2352:	0032      	movs	r2, r6
    2354:	003b      	movs	r3, r7
    2356:	f002 fa4f 	bl	47f8 <__aeabi_dsub>
    235a:	0002      	movs	r2, r0
    235c:	000b      	movs	r3, r1
    235e:	9800      	ldr	r0, [sp, #0]
    2360:	9901      	ldr	r1, [sp, #4]
    2362:	f000 fcbb 	bl	2cdc <__aeabi_dcmple>
    2366:	2800      	cmp	r0, #0
    2368:	d100      	bne.n	236c <STACK_SIZE+0x36c>
    236a:	e6ee      	b.n	214a <STACK_SIZE+0x14a>
    236c:	9806      	ldr	r0, [sp, #24]
    236e:	9907      	ldr	r1, [sp, #28]
    2370:	4a77      	ldr	r2, [pc, #476]	; (2550 <STACK_SIZE+0x550>)
    2372:	4b78      	ldr	r3, [pc, #480]	; (2554 <STACK_SIZE+0x554>)
    2374:	f001 ffc0 	bl	42f8 <__aeabi_dmul>
    2378:	4a75      	ldr	r2, [pc, #468]	; (2550 <STACK_SIZE+0x550>)
    237a:	4b76      	ldr	r3, [pc, #472]	; (2554 <STACK_SIZE+0x554>)
    237c:	f001 ffbc 	bl	42f8 <__aeabi_dmul>
    2380:	f7ff fc20 	bl	1bc4 <__ieee754_pow+0x90>
    2384:	2300      	movs	r3, #0
    2386:	4c74      	ldr	r4, [pc, #464]	; (2558 <STACK_SIZE+0x558>)
    2388:	9306      	str	r3, [sp, #24]
    238a:	9407      	str	r4, [sp, #28]
    238c:	e652      	b.n	2034 <STACK_SIZE+0x34>
    238e:	0002      	movs	r2, r0
    2390:	000b      	movs	r3, r1
    2392:	2000      	movs	r0, #0
    2394:	496b      	ldr	r1, [pc, #428]	; (2544 <STACK_SIZE+0x544>)
    2396:	f001 fb7b 	bl	3a90 <__aeabi_ddiv>
    239a:	f7ff fc32 	bl	1c02 <__ieee754_pow+0xce>
    239e:	4653      	mov	r3, sl
    23a0:	2b00      	cmp	r3, #0
    23a2:	db00      	blt.n	23a6 <STACK_SIZE+0x3a6>
    23a4:	e499      	b.n	1cda <__ieee754_pow+0x1a6>
    23a6:	e454      	b.n	1c52 <__ieee754_pow+0x11e>
    23a8:	4b6c      	ldr	r3, [pc, #432]	; (255c <STACK_SIZE+0x55c>)
    23aa:	429c      	cmp	r4, r3
    23ac:	ddf7      	ble.n	239e <STACK_SIZE+0x39e>
    23ae:	4b65      	ldr	r3, [pc, #404]	; (2544 <STACK_SIZE+0x544>)
    23b0:	429c      	cmp	r4, r3
    23b2:	dd00      	ble.n	23b6 <STACK_SIZE+0x3b6>
    23b4:	e44a      	b.n	1c4c <__ieee754_pow+0x118>
    23b6:	2200      	movs	r2, #0
    23b8:	4b62      	ldr	r3, [pc, #392]	; (2544 <STACK_SIZE+0x544>)
    23ba:	f002 fa1d 	bl	47f8 <__aeabi_dsub>
    23be:	22c0      	movs	r2, #192	; 0xc0
    23c0:	4b67      	ldr	r3, [pc, #412]	; (2560 <STACK_SIZE+0x560>)
    23c2:	05d2      	lsls	r2, r2, #23
    23c4:	0004      	movs	r4, r0
    23c6:	000d      	movs	r5, r1
    23c8:	f001 ff96 	bl	42f8 <__aeabi_dmul>
    23cc:	4a65      	ldr	r2, [pc, #404]	; (2564 <STACK_SIZE+0x564>)
    23ce:	0006      	movs	r6, r0
    23d0:	000f      	movs	r7, r1
    23d2:	4b65      	ldr	r3, [pc, #404]	; (2568 <STACK_SIZE+0x568>)
    23d4:	0020      	movs	r0, r4
    23d6:	0029      	movs	r1, r5
    23d8:	f001 ff8e 	bl	42f8 <__aeabi_dmul>
    23dc:	2200      	movs	r2, #0
    23de:	9002      	str	r0, [sp, #8]
    23e0:	9103      	str	r1, [sp, #12]
    23e2:	4b62      	ldr	r3, [pc, #392]	; (256c <STACK_SIZE+0x56c>)
    23e4:	0020      	movs	r0, r4
    23e6:	0029      	movs	r1, r5
    23e8:	f001 ff86 	bl	42f8 <__aeabi_dmul>
    23ec:	0002      	movs	r2, r0
    23ee:	000b      	movs	r3, r1
    23f0:	485f      	ldr	r0, [pc, #380]	; (2570 <STACK_SIZE+0x570>)
    23f2:	4960      	ldr	r1, [pc, #384]	; (2574 <STACK_SIZE+0x574>)
    23f4:	f002 fa00 	bl	47f8 <__aeabi_dsub>
    23f8:	0022      	movs	r2, r4
    23fa:	002b      	movs	r3, r5
    23fc:	f001 ff7c 	bl	42f8 <__aeabi_dmul>
    2400:	0002      	movs	r2, r0
    2402:	000b      	movs	r3, r1
    2404:	2000      	movs	r0, #0
    2406:	495c      	ldr	r1, [pc, #368]	; (2578 <STACK_SIZE+0x578>)
    2408:	f002 f9f6 	bl	47f8 <__aeabi_dsub>
    240c:	0022      	movs	r2, r4
    240e:	9004      	str	r0, [sp, #16]
    2410:	9105      	str	r1, [sp, #20]
    2412:	002b      	movs	r3, r5
    2414:	0020      	movs	r0, r4
    2416:	0029      	movs	r1, r5
    2418:	f001 ff6e 	bl	42f8 <__aeabi_dmul>
    241c:	0002      	movs	r2, r0
    241e:	000b      	movs	r3, r1
    2420:	9804      	ldr	r0, [sp, #16]
    2422:	9905      	ldr	r1, [sp, #20]
    2424:	f001 ff68 	bl	42f8 <__aeabi_dmul>
    2428:	4a54      	ldr	r2, [pc, #336]	; (257c <STACK_SIZE+0x57c>)
    242a:	4b4d      	ldr	r3, [pc, #308]	; (2560 <STACK_SIZE+0x560>)
    242c:	f001 ff64 	bl	42f8 <__aeabi_dmul>
    2430:	0002      	movs	r2, r0
    2432:	000b      	movs	r3, r1
    2434:	9802      	ldr	r0, [sp, #8]
    2436:	9903      	ldr	r1, [sp, #12]
    2438:	f002 f9de 	bl	47f8 <__aeabi_dsub>
    243c:	0002      	movs	r2, r0
    243e:	000b      	movs	r3, r1
    2440:	0004      	movs	r4, r0
    2442:	000d      	movs	r5, r1
    2444:	0030      	movs	r0, r6
    2446:	0039      	movs	r1, r7
    2448:	f001 f812 	bl	3470 <__aeabi_dadd>
    244c:	2000      	movs	r0, #0
    244e:	0032      	movs	r2, r6
    2450:	003b      	movs	r3, r7
    2452:	9002      	str	r0, [sp, #8]
    2454:	9103      	str	r1, [sp, #12]
    2456:	f002 f9cf 	bl	47f8 <__aeabi_dsub>
    245a:	0002      	movs	r2, r0
    245c:	000b      	movs	r3, r1
    245e:	0020      	movs	r0, r4
    2460:	0029      	movs	r1, r5
    2462:	f002 f9c9 	bl	47f8 <__aeabi_dsub>
    2466:	9004      	str	r0, [sp, #16]
    2468:	9105      	str	r1, [sp, #20]
    246a:	e5d9      	b.n	2020 <STACK_SIZE+0x20>
    246c:	4a44      	ldr	r2, [pc, #272]	; (2580 <STACK_SIZE+0x580>)
    246e:	4b45      	ldr	r3, [pc, #276]	; (2584 <STACK_SIZE+0x584>)
    2470:	9806      	ldr	r0, [sp, #24]
    2472:	9907      	ldr	r1, [sp, #28]
    2474:	f001 ff40 	bl	42f8 <__aeabi_dmul>
    2478:	4a41      	ldr	r2, [pc, #260]	; (2580 <STACK_SIZE+0x580>)
    247a:	4b42      	ldr	r3, [pc, #264]	; (2584 <STACK_SIZE+0x584>)
    247c:	f001 ff3c 	bl	42f8 <__aeabi_dmul>
    2480:	f7ff fba0 	bl	1bc4 <__ieee754_pow+0x90>
    2484:	2a00      	cmp	r2, #0
    2486:	d001      	beq.n	248c <STACK_SIZE+0x48c>
    2488:	f7ff fba9 	bl	1bde <__ieee754_pow+0xaa>
    248c:	3214      	adds	r2, #20
    248e:	1ad3      	subs	r3, r2, r3
    2490:	002a      	movs	r2, r5
    2492:	411a      	asrs	r2, r3
    2494:	0011      	movs	r1, r2
    2496:	4099      	lsls	r1, r3
    2498:	428d      	cmp	r5, r1
    249a:	d001      	beq.n	24a0 <STACK_SIZE+0x4a0>
    249c:	f7ff fb76 	bl	1b8c <__ieee754_pow+0x58>
    24a0:	2301      	movs	r3, #1
    24a2:	401a      	ands	r2, r3
    24a4:	18db      	adds	r3, r3, r3
    24a6:	1a9b      	subs	r3, r3, r2
    24a8:	469b      	mov	fp, r3
    24aa:	f7ff fb6f 	bl	1b8c <__ieee754_pow+0x58>
    24ae:	2200      	movs	r2, #0
    24b0:	4b31      	ldr	r3, [pc, #196]	; (2578 <STACK_SIZE+0x578>)
    24b2:	4690      	mov	r8, r2
    24b4:	4691      	mov	r9, r2
    24b6:	459a      	cmp	sl, r3
    24b8:	dc00      	bgt.n	24bc <STACK_SIZE+0x4bc>
    24ba:	e67b      	b.n	21b4 <STACK_SIZE+0x1b4>
    24bc:	e645      	b.n	214a <STACK_SIZE+0x14a>
    24be:	0002      	movs	r2, r0
    24c0:	000b      	movs	r3, r1
    24c2:	f002 f999 	bl	47f8 <__aeabi_dsub>
    24c6:	0002      	movs	r2, r0
    24c8:	000b      	movs	r3, r1
    24ca:	f001 fae1 	bl	3a90 <__aeabi_ddiv>
    24ce:	f7ff fb79 	bl	1bc4 <__ieee754_pow+0x90>
    24d2:	2380      	movs	r3, #128	; 0x80
    24d4:	4c2c      	ldr	r4, [pc, #176]	; (2588 <STACK_SIZE+0x588>)
    24d6:	05db      	lsls	r3, r3, #23
    24d8:	9308      	str	r3, [sp, #32]
    24da:	9409      	str	r4, [sp, #36]	; 0x24
    24dc:	4b2b      	ldr	r3, [pc, #172]	; (258c <STACK_SIZE+0x58c>)
    24de:	4c2c      	ldr	r4, [pc, #176]	; (2590 <STACK_SIZE+0x590>)
    24e0:	2200      	movs	r2, #0
    24e2:	930c      	str	r3, [sp, #48]	; 0x30
    24e4:	940d      	str	r4, [sp, #52]	; 0x34
    24e6:	2480      	movs	r4, #128	; 0x80
    24e8:	4b2a      	ldr	r3, [pc, #168]	; (2594 <STACK_SIZE+0x594>)
    24ea:	02e4      	lsls	r4, r4, #11
    24ec:	9206      	str	r2, [sp, #24]
    24ee:	9307      	str	r3, [sp, #28]
    24f0:	e449      	b.n	1d86 <__ieee754_pow+0x252>
    24f2:	464b      	mov	r3, r9
    24f4:	425b      	negs	r3, r3
    24f6:	4699      	mov	r9, r3
    24f8:	e64a      	b.n	2190 <STACK_SIZE+0x190>
    24fa:	46c0      	nop			; (mov r8, r8)
    24fc:	fffffc02 	.word	0xfffffc02
    2500:	fffffc01 	.word	0xfffffc01
    2504:	000fffff 	.word	0x000fffff
    2508:	3fe62e43 	.word	0x3fe62e43
    250c:	fefa39ef 	.word	0xfefa39ef
    2510:	3fe62e42 	.word	0x3fe62e42
    2514:	0ca86c39 	.word	0x0ca86c39
    2518:	be205c61 	.word	0xbe205c61
    251c:	72bea4d0 	.word	0x72bea4d0
    2520:	3e663769 	.word	0x3e663769
    2524:	c5d26bf1 	.word	0xc5d26bf1
    2528:	3ebbbd41 	.word	0x3ebbbd41
    252c:	af25de2c 	.word	0xaf25de2c
    2530:	3f11566a 	.word	0x3f11566a
    2534:	16bebd93 	.word	0x16bebd93
    2538:	3f66c16c 	.word	0x3f66c16c
    253c:	5555553e 	.word	0x5555553e
    2540:	3fc55555 	.word	0x3fc55555
    2544:	3ff00000 	.word	0x3ff00000
    2548:	4090cbff 	.word	0x4090cbff
    254c:	3f6f3400 	.word	0x3f6f3400
    2550:	c2f8f359 	.word	0xc2f8f359
    2554:	01a56e1f 	.word	0x01a56e1f
    2558:	bff00000 	.word	0xbff00000
    255c:	3feffffe 	.word	0x3feffffe
    2560:	3ff71547 	.word	0x3ff71547
    2564:	f85ddf44 	.word	0xf85ddf44
    2568:	3e54ae0b 	.word	0x3e54ae0b
    256c:	3fd00000 	.word	0x3fd00000
    2570:	55555555 	.word	0x55555555
    2574:	3fd55555 	.word	0x3fd55555
    2578:	3fe00000 	.word	0x3fe00000
    257c:	652b82fe 	.word	0x652b82fe
    2580:	8800759c 	.word	0x8800759c
    2584:	7e37e43c 	.word	0x7e37e43c
    2588:	3fe2b803 	.word	0x3fe2b803
    258c:	43cfd006 	.word	0x43cfd006
    2590:	3e4cfdeb 	.word	0x3e4cfdeb
    2594:	3ff80000 	.word	0x3ff80000
    2598:	464a      	mov	r2, r9
    259a:	f000 f999 	bl	28d0 <scalbn>
    259e:	e6b2      	b.n	2306 <STACK_SIZE+0x306>

000025a0 <__ieee754_sqrt>:
    25a0:	4b6c      	ldr	r3, [pc, #432]	; (2754 <__ieee754_sqrt+0x1b4>)
    25a2:	b5f0      	push	{r4, r5, r6, r7, lr}
    25a4:	000a      	movs	r2, r1
    25a6:	4646      	mov	r6, r8
    25a8:	000d      	movs	r5, r1
    25aa:	46d6      	mov	lr, sl
    25ac:	464f      	mov	r7, r9
    25ae:	0019      	movs	r1, r3
    25b0:	b5c0      	push	{r6, r7, lr}
    25b2:	0004      	movs	r4, r0
    25b4:	0006      	movs	r6, r0
    25b6:	4029      	ands	r1, r5
    25b8:	4299      	cmp	r1, r3
    25ba:	d100      	bne.n	25be <__ieee754_sqrt+0x1e>
    25bc:	e0a7      	b.n	270e <__ieee754_sqrt+0x16e>
    25be:	2d00      	cmp	r5, #0
    25c0:	dc00      	bgt.n	25c4 <__ieee754_sqrt+0x24>
    25c2:	e081      	b.n	26c8 <__ieee754_sqrt+0x128>
    25c4:	152f      	asrs	r7, r5, #20
    25c6:	d100      	bne.n	25ca <__ieee754_sqrt+0x2a>
    25c8:	e08e      	b.n	26e8 <__ieee754_sqrt+0x148>
    25ca:	4b63      	ldr	r3, [pc, #396]	; (2758 <__ieee754_sqrt+0x1b8>)
    25cc:	0312      	lsls	r2, r2, #12
    25ce:	469c      	mov	ip, r3
    25d0:	2380      	movs	r3, #128	; 0x80
    25d2:	0b12      	lsrs	r2, r2, #12
    25d4:	035b      	lsls	r3, r3, #13
    25d6:	4467      	add	r7, ip
    25d8:	431a      	orrs	r2, r3
    25da:	07fb      	lsls	r3, r7, #31
    25dc:	d468      	bmi.n	26b0 <__ieee754_sqrt+0x110>
    25de:	107b      	asrs	r3, r7, #1
    25e0:	469c      	mov	ip, r3
    25e2:	0fe3      	lsrs	r3, r4, #31
    25e4:	189b      	adds	r3, r3, r2
    25e6:	189b      	adds	r3, r3, r2
    25e8:	2280      	movs	r2, #128	; 0x80
    25ea:	2116      	movs	r1, #22
    25ec:	2600      	movs	r6, #0
    25ee:	2500      	movs	r5, #0
    25f0:	0064      	lsls	r4, r4, #1
    25f2:	0392      	lsls	r2, r2, #14
    25f4:	18a8      	adds	r0, r5, r2
    25f6:	4298      	cmp	r0, r3
    25f8:	dc02      	bgt.n	2600 <__ieee754_sqrt+0x60>
    25fa:	1885      	adds	r5, r0, r2
    25fc:	1a1b      	subs	r3, r3, r0
    25fe:	18b6      	adds	r6, r6, r2
    2600:	0fe0      	lsrs	r0, r4, #31
    2602:	005b      	lsls	r3, r3, #1
    2604:	3901      	subs	r1, #1
    2606:	181b      	adds	r3, r3, r0
    2608:	0064      	lsls	r4, r4, #1
    260a:	0852      	lsrs	r2, r2, #1
    260c:	2900      	cmp	r1, #0
    260e:	d1f1      	bne.n	25f4 <__ieee754_sqrt+0x54>
    2610:	2200      	movs	r2, #0
    2612:	4692      	mov	sl, r2
    2614:	4690      	mov	r8, r2
    2616:	2280      	movs	r2, #128	; 0x80
    2618:	2020      	movs	r0, #32
    261a:	0612      	lsls	r2, r2, #24
    261c:	e009      	b.n	2632 <__ieee754_sqrt+0x92>
    261e:	42ab      	cmp	r3, r5
    2620:	d038      	beq.n	2694 <__ieee754_sqrt+0xf4>
    2622:	0fe1      	lsrs	r1, r4, #31
    2624:	18c9      	adds	r1, r1, r3
    2626:	3801      	subs	r0, #1
    2628:	18cb      	adds	r3, r1, r3
    262a:	0064      	lsls	r4, r4, #1
    262c:	0852      	lsrs	r2, r2, #1
    262e:	2800      	cmp	r0, #0
    2630:	d018      	beq.n	2664 <__ieee754_sqrt+0xc4>
    2632:	4641      	mov	r1, r8
    2634:	1851      	adds	r1, r2, r1
    2636:	42ab      	cmp	r3, r5
    2638:	ddf1      	ble.n	261e <__ieee754_sqrt+0x7e>
    263a:	188f      	adds	r7, r1, r2
    263c:	46b8      	mov	r8, r7
    263e:	46a9      	mov	r9, r5
    2640:	2900      	cmp	r1, #0
    2642:	db30      	blt.n	26a6 <__ieee754_sqrt+0x106>
    2644:	1b5b      	subs	r3, r3, r5
    2646:	428c      	cmp	r4, r1
    2648:	41ad      	sbcs	r5, r5
    264a:	426d      	negs	r5, r5
    264c:	1b5b      	subs	r3, r3, r5
    264e:	1a64      	subs	r4, r4, r1
    2650:	0fe1      	lsrs	r1, r4, #31
    2652:	18c9      	adds	r1, r1, r3
    2654:	3801      	subs	r0, #1
    2656:	4492      	add	sl, r2
    2658:	464d      	mov	r5, r9
    265a:	18cb      	adds	r3, r1, r3
    265c:	0064      	lsls	r4, r4, #1
    265e:	0852      	lsrs	r2, r2, #1
    2660:	2800      	cmp	r0, #0
    2662:	d1e6      	bne.n	2632 <__ieee754_sqrt+0x92>
    2664:	4323      	orrs	r3, r4
    2666:	d128      	bne.n	26ba <__ieee754_sqrt+0x11a>
    2668:	4653      	mov	r3, sl
    266a:	085b      	lsrs	r3, r3, #1
    266c:	493b      	ldr	r1, [pc, #236]	; (275c <__ieee754_sqrt+0x1bc>)
    266e:	1072      	asrs	r2, r6, #1
    2670:	4688      	mov	r8, r1
    2672:	4442      	add	r2, r8
    2674:	07f1      	lsls	r1, r6, #31
    2676:	d502      	bpl.n	267e <__ieee754_sqrt+0xde>
    2678:	2180      	movs	r1, #128	; 0x80
    267a:	0609      	lsls	r1, r1, #24
    267c:	430b      	orrs	r3, r1
    267e:	4661      	mov	r1, ip
    2680:	001e      	movs	r6, r3
    2682:	050f      	lsls	r7, r1, #20
    2684:	18bd      	adds	r5, r7, r2
    2686:	0030      	movs	r0, r6
    2688:	0029      	movs	r1, r5
    268a:	bc1c      	pop	{r2, r3, r4}
    268c:	4690      	mov	r8, r2
    268e:	4699      	mov	r9, r3
    2690:	46a2      	mov	sl, r4
    2692:	bdf0      	pop	{r4, r5, r6, r7, pc}
    2694:	42a1      	cmp	r1, r4
    2696:	d8c4      	bhi.n	2622 <__ieee754_sqrt+0x82>
    2698:	188f      	adds	r7, r1, r2
    269a:	46b8      	mov	r8, r7
    269c:	2900      	cmp	r1, #0
    269e:	db42      	blt.n	2726 <__ieee754_sqrt+0x186>
    26a0:	4699      	mov	r9, r3
    26a2:	2300      	movs	r3, #0
    26a4:	e7d3      	b.n	264e <__ieee754_sqrt+0xae>
    26a6:	2f00      	cmp	r7, #0
    26a8:	db2f      	blt.n	270a <__ieee754_sqrt+0x16a>
    26aa:	1c6f      	adds	r7, r5, #1
    26ac:	46b9      	mov	r9, r7
    26ae:	e7c9      	b.n	2644 <__ieee754_sqrt+0xa4>
    26b0:	0fe1      	lsrs	r1, r4, #31
    26b2:	0052      	lsls	r2, r2, #1
    26b4:	188a      	adds	r2, r1, r2
    26b6:	0064      	lsls	r4, r4, #1
    26b8:	e791      	b.n	25de <__ieee754_sqrt+0x3e>
    26ba:	4653      	mov	r3, sl
    26bc:	3301      	adds	r3, #1
    26be:	d035      	beq.n	272c <__ieee754_sqrt+0x18c>
    26c0:	4653      	mov	r3, sl
    26c2:	3301      	adds	r3, #1
    26c4:	085b      	lsrs	r3, r3, #1
    26c6:	e7d1      	b.n	266c <__ieee754_sqrt+0xcc>
    26c8:	006b      	lsls	r3, r5, #1
    26ca:	085b      	lsrs	r3, r3, #1
    26cc:	4303      	orrs	r3, r0
    26ce:	d0da      	beq.n	2686 <__ieee754_sqrt+0xe6>
    26d0:	2700      	movs	r7, #0
    26d2:	2d00      	cmp	r5, #0
    26d4:	d132      	bne.n	273c <__ieee754_sqrt+0x19c>
    26d6:	0ae2      	lsrs	r2, r4, #11
    26d8:	3f15      	subs	r7, #21
    26da:	0564      	lsls	r4, r4, #21
    26dc:	2a00      	cmp	r2, #0
    26de:	d0fa      	beq.n	26d6 <__ieee754_sqrt+0x136>
    26e0:	2380      	movs	r3, #128	; 0x80
    26e2:	035b      	lsls	r3, r3, #13
    26e4:	421a      	tst	r2, r3
    26e6:	d124      	bne.n	2732 <__ieee754_sqrt+0x192>
    26e8:	2080      	movs	r0, #128	; 0x80
    26ea:	2300      	movs	r3, #0
    26ec:	0340      	lsls	r0, r0, #13
    26ee:	e000      	b.n	26f2 <__ieee754_sqrt+0x152>
    26f0:	000b      	movs	r3, r1
    26f2:	0052      	lsls	r2, r2, #1
    26f4:	1c59      	adds	r1, r3, #1
    26f6:	4202      	tst	r2, r0
    26f8:	d0fa      	beq.n	26f0 <__ieee754_sqrt+0x150>
    26fa:	2020      	movs	r0, #32
    26fc:	1a40      	subs	r0, r0, r1
    26fe:	1aff      	subs	r7, r7, r3
    2700:	0023      	movs	r3, r4
    2702:	40c3      	lsrs	r3, r0
    2704:	408c      	lsls	r4, r1
    2706:	431a      	orrs	r2, r3
    2708:	e75f      	b.n	25ca <__ieee754_sqrt+0x2a>
    270a:	46a9      	mov	r9, r5
    270c:	e79a      	b.n	2644 <__ieee754_sqrt+0xa4>
    270e:	002b      	movs	r3, r5
    2710:	0002      	movs	r2, r0
    2712:	0029      	movs	r1, r5
    2714:	f001 fdf0 	bl	42f8 <__aeabi_dmul>
    2718:	0032      	movs	r2, r6
    271a:	002b      	movs	r3, r5
    271c:	f000 fea8 	bl	3470 <__aeabi_dadd>
    2720:	0006      	movs	r6, r0
    2722:	000d      	movs	r5, r1
    2724:	e7af      	b.n	2686 <__ieee754_sqrt+0xe6>
    2726:	2f00      	cmp	r7, #0
    2728:	dabf      	bge.n	26aa <__ieee754_sqrt+0x10a>
    272a:	e7b9      	b.n	26a0 <__ieee754_sqrt+0x100>
    272c:	3601      	adds	r6, #1
    272e:	2300      	movs	r3, #0
    2730:	e79c      	b.n	266c <__ieee754_sqrt+0xcc>
    2732:	2301      	movs	r3, #1
    2734:	2100      	movs	r1, #0
    2736:	2020      	movs	r0, #32
    2738:	425b      	negs	r3, r3
    273a:	e7e0      	b.n	26fe <__ieee754_sqrt+0x15e>
    273c:	002b      	movs	r3, r5
    273e:	0002      	movs	r2, r0
    2740:	0029      	movs	r1, r5
    2742:	f002 f859 	bl	47f8 <__aeabi_dsub>
    2746:	0002      	movs	r2, r0
    2748:	000b      	movs	r3, r1
    274a:	f001 f9a1 	bl	3a90 <__aeabi_ddiv>
    274e:	0006      	movs	r6, r0
    2750:	000d      	movs	r5, r1
    2752:	e798      	b.n	2686 <__ieee754_sqrt+0xe6>
    2754:	7ff00000 	.word	0x7ff00000
    2758:	fffffc01 	.word	0xfffffc01
    275c:	3fe00000 	.word	0x3fe00000

00002760 <fabs>:
    2760:	0049      	lsls	r1, r1, #1
    2762:	084b      	lsrs	r3, r1, #1
    2764:	0019      	movs	r1, r3
    2766:	4770      	bx	lr

00002768 <finite>:
    2768:	4b03      	ldr	r3, [pc, #12]	; (2778 <finite+0x10>)
    276a:	0048      	lsls	r0, r1, #1
    276c:	469c      	mov	ip, r3
    276e:	0840      	lsrs	r0, r0, #1
    2770:	4460      	add	r0, ip
    2772:	0fc0      	lsrs	r0, r0, #31
    2774:	4770      	bx	lr
    2776:	46c0      	nop			; (mov r8, r8)
    2778:	80100000 	.word	0x80100000

0000277c <matherr>:
    277c:	2000      	movs	r0, #0
    277e:	4770      	bx	lr

00002780 <nan>:
    2780:	2000      	movs	r0, #0
    2782:	4901      	ldr	r1, [pc, #4]	; (2788 <nan+0x8>)
    2784:	4770      	bx	lr
    2786:	46c0      	nop			; (mov r8, r8)
    2788:	7ff80000 	.word	0x7ff80000

0000278c <rint>:
    278c:	b5f0      	push	{r4, r5, r6, r7, lr}
    278e:	46c6      	mov	lr, r8
    2790:	b500      	push	{lr}
    2792:	0fcb      	lsrs	r3, r1, #31
    2794:	4698      	mov	r8, r3
    2796:	4c4a      	ldr	r4, [pc, #296]	; (28c0 <rint+0x134>)
    2798:	004b      	lsls	r3, r1, #1
    279a:	0d5b      	lsrs	r3, r3, #21
    279c:	191e      	adds	r6, r3, r4
    279e:	b082      	sub	sp, #8
    27a0:	0007      	movs	r7, r0
    27a2:	000a      	movs	r2, r1
    27a4:	2e13      	cmp	r6, #19
    27a6:	dc35      	bgt.n	2814 <rint+0x88>
    27a8:	2e00      	cmp	r6, #0
    27aa:	db57      	blt.n	285c <rint+0xd0>
    27ac:	4b45      	ldr	r3, [pc, #276]	; (28c4 <rint+0x138>)
    27ae:	0004      	movs	r4, r0
    27b0:	4133      	asrs	r3, r6
    27b2:	001f      	movs	r7, r3
    27b4:	400f      	ands	r7, r1
    27b6:	4307      	orrs	r7, r0
    27b8:	000d      	movs	r5, r1
    27ba:	2f00      	cmp	r7, #0
    27bc:	d024      	beq.n	2808 <rint+0x7c>
    27be:	085b      	lsrs	r3, r3, #1
    27c0:	001c      	movs	r4, r3
    27c2:	400c      	ands	r4, r1
    27c4:	4320      	orrs	r0, r4
    27c6:	2700      	movs	r7, #0
    27c8:	2800      	cmp	r0, #0
    27ca:	d007      	beq.n	27dc <rint+0x50>
    27cc:	2e13      	cmp	r6, #19
    27ce:	d100      	bne.n	27d2 <rint+0x46>
    27d0:	e073      	b.n	28ba <rint+0x12e>
    27d2:	2280      	movs	r2, #128	; 0x80
    27d4:	02d2      	lsls	r2, r2, #11
    27d6:	4132      	asrs	r2, r6
    27d8:	4399      	bics	r1, r3
    27da:	430a      	orrs	r2, r1
    27dc:	4643      	mov	r3, r8
    27de:	00de      	lsls	r6, r3, #3
    27e0:	4b39      	ldr	r3, [pc, #228]	; (28c8 <rint+0x13c>)
    27e2:	0011      	movs	r1, r2
    27e4:	199e      	adds	r6, r3, r6
    27e6:	6834      	ldr	r4, [r6, #0]
    27e8:	6875      	ldr	r5, [r6, #4]
    27ea:	0038      	movs	r0, r7
    27ec:	0022      	movs	r2, r4
    27ee:	002b      	movs	r3, r5
    27f0:	f000 fe3e 	bl	3470 <__aeabi_dadd>
    27f4:	9000      	str	r0, [sp, #0]
    27f6:	9101      	str	r1, [sp, #4]
    27f8:	9800      	ldr	r0, [sp, #0]
    27fa:	9901      	ldr	r1, [sp, #4]
    27fc:	0022      	movs	r2, r4
    27fe:	002b      	movs	r3, r5
    2800:	f001 fffa 	bl	47f8 <__aeabi_dsub>
    2804:	0004      	movs	r4, r0
    2806:	000d      	movs	r5, r1
    2808:	0020      	movs	r0, r4
    280a:	0029      	movs	r1, r5
    280c:	b002      	add	sp, #8
    280e:	bc04      	pop	{r2}
    2810:	4690      	mov	r8, r2
    2812:	bdf0      	pop	{r4, r5, r6, r7, pc}
    2814:	2e33      	cmp	r6, #51	; 0x33
    2816:	dd0c      	ble.n	2832 <rint+0xa6>
    2818:	2380      	movs	r3, #128	; 0x80
    281a:	0004      	movs	r4, r0
    281c:	00db      	lsls	r3, r3, #3
    281e:	000d      	movs	r5, r1
    2820:	429e      	cmp	r6, r3
    2822:	d1f1      	bne.n	2808 <rint+0x7c>
    2824:	0002      	movs	r2, r0
    2826:	000b      	movs	r3, r1
    2828:	f000 fe22 	bl	3470 <__aeabi_dadd>
    282c:	0004      	movs	r4, r0
    282e:	000d      	movs	r5, r1
    2830:	e7ea      	b.n	2808 <rint+0x7c>
    2832:	4c26      	ldr	r4, [pc, #152]	; (28cc <rint+0x140>)
    2834:	000d      	movs	r5, r1
    2836:	46a4      	mov	ip, r4
    2838:	2401      	movs	r4, #1
    283a:	4463      	add	r3, ip
    283c:	4264      	negs	r4, r4
    283e:	40dc      	lsrs	r4, r3
    2840:	46a4      	mov	ip, r4
    2842:	4661      	mov	r1, ip
    2844:	0004      	movs	r4, r0
    2846:	4201      	tst	r1, r0
    2848:	d0de      	beq.n	2808 <rint+0x7c>
    284a:	0849      	lsrs	r1, r1, #1
    284c:	4201      	tst	r1, r0
    284e:	d0c5      	beq.n	27dc <rint+0x50>
    2850:	2780      	movs	r7, #128	; 0x80
    2852:	05ff      	lsls	r7, r7, #23
    2854:	411f      	asrs	r7, r3
    2856:	4388      	bics	r0, r1
    2858:	4307      	orrs	r7, r0
    285a:	e7bf      	b.n	27dc <rint+0x50>
    285c:	004b      	lsls	r3, r1, #1
    285e:	085b      	lsrs	r3, r3, #1
    2860:	4303      	orrs	r3, r0
    2862:	0004      	movs	r4, r0
    2864:	000d      	movs	r5, r1
    2866:	2b00      	cmp	r3, #0
    2868:	d0ce      	beq.n	2808 <rint+0x7c>
    286a:	030b      	lsls	r3, r1, #12
    286c:	0b1b      	lsrs	r3, r3, #12
    286e:	4303      	orrs	r3, r0
    2870:	001a      	movs	r2, r3
    2872:	425b      	negs	r3, r3
    2874:	4313      	orrs	r3, r2
    2876:	2280      	movs	r2, #128	; 0x80
    2878:	0b1b      	lsrs	r3, r3, #12
    287a:	0312      	lsls	r2, r2, #12
    287c:	4013      	ands	r3, r2
    287e:	0c4a      	lsrs	r2, r1, #17
    2880:	0452      	lsls	r2, r2, #17
    2882:	4313      	orrs	r3, r2
    2884:	0019      	movs	r1, r3
    2886:	4643      	mov	r3, r8
    2888:	00da      	lsls	r2, r3, #3
    288a:	4b0f      	ldr	r3, [pc, #60]	; (28c8 <rint+0x13c>)
    288c:	189b      	adds	r3, r3, r2
    288e:	681c      	ldr	r4, [r3, #0]
    2890:	685d      	ldr	r5, [r3, #4]
    2892:	0022      	movs	r2, r4
    2894:	002b      	movs	r3, r5
    2896:	f000 fdeb 	bl	3470 <__aeabi_dadd>
    289a:	9000      	str	r0, [sp, #0]
    289c:	9101      	str	r1, [sp, #4]
    289e:	9800      	ldr	r0, [sp, #0]
    28a0:	9901      	ldr	r1, [sp, #4]
    28a2:	0022      	movs	r2, r4
    28a4:	002b      	movs	r3, r5
    28a6:	f001 ffa7 	bl	47f8 <__aeabi_dsub>
    28aa:	4642      	mov	r2, r8
    28ac:	004b      	lsls	r3, r1, #1
    28ae:	085b      	lsrs	r3, r3, #1
    28b0:	07d6      	lsls	r6, r2, #31
    28b2:	4333      	orrs	r3, r6
    28b4:	0004      	movs	r4, r0
    28b6:	001d      	movs	r5, r3
    28b8:	e7a6      	b.n	2808 <rint+0x7c>
    28ba:	2780      	movs	r7, #128	; 0x80
    28bc:	063f      	lsls	r7, r7, #24
    28be:	e788      	b.n	27d2 <rint+0x46>
    28c0:	fffffc01 	.word	0xfffffc01
    28c4:	000fffff 	.word	0x000fffff
    28c8:	0000a210 	.word	0x0000a210
    28cc:	fffffbed 	.word	0xfffffbed

000028d0 <scalbn>:
    28d0:	004b      	lsls	r3, r1, #1
    28d2:	b570      	push	{r4, r5, r6, lr}
    28d4:	0d5b      	lsrs	r3, r3, #21
    28d6:	0014      	movs	r4, r2
    28d8:	000a      	movs	r2, r1
    28da:	2b00      	cmp	r3, #0
    28dc:	d11a      	bne.n	2914 <scalbn+0x44>
    28de:	004b      	lsls	r3, r1, #1
    28e0:	085b      	lsrs	r3, r3, #1
    28e2:	4303      	orrs	r3, r0
    28e4:	d015      	beq.n	2912 <scalbn+0x42>
    28e6:	2200      	movs	r2, #0
    28e8:	4b22      	ldr	r3, [pc, #136]	; (2974 <scalbn+0xa4>)
    28ea:	f001 fd05 	bl	42f8 <__aeabi_dmul>
    28ee:	4b22      	ldr	r3, [pc, #136]	; (2978 <scalbn+0xa8>)
    28f0:	000a      	movs	r2, r1
    28f2:	429c      	cmp	r4, r3
    28f4:	db22      	blt.n	293c <scalbn+0x6c>
    28f6:	004b      	lsls	r3, r1, #1
    28f8:	0d5b      	lsrs	r3, r3, #21
    28fa:	3b36      	subs	r3, #54	; 0x36
    28fc:	4d1f      	ldr	r5, [pc, #124]	; (297c <scalbn+0xac>)
    28fe:	18e3      	adds	r3, r4, r3
    2900:	42ab      	cmp	r3, r5
    2902:	dc20      	bgt.n	2946 <scalbn+0x76>
    2904:	2b00      	cmp	r3, #0
    2906:	dd0d      	ble.n	2924 <scalbn+0x54>
    2908:	4c1d      	ldr	r4, [pc, #116]	; (2980 <scalbn+0xb0>)
    290a:	051b      	lsls	r3, r3, #20
    290c:	4022      	ands	r2, r4
    290e:	431a      	orrs	r2, r3
    2910:	0011      	movs	r1, r2
    2912:	bd70      	pop	{r4, r5, r6, pc}
    2914:	4d1b      	ldr	r5, [pc, #108]	; (2984 <scalbn+0xb4>)
    2916:	42ab      	cmp	r3, r5
    2918:	d1f0      	bne.n	28fc <scalbn+0x2c>
    291a:	0002      	movs	r2, r0
    291c:	000b      	movs	r3, r1
    291e:	f000 fda7 	bl	3470 <__aeabi_dadd>
    2922:	e7f6      	b.n	2912 <scalbn+0x42>
    2924:	001d      	movs	r5, r3
    2926:	3535      	adds	r5, #53	; 0x35
    2928:	da18      	bge.n	295c <scalbn+0x8c>
    292a:	4b17      	ldr	r3, [pc, #92]	; (2988 <scalbn+0xb8>)
    292c:	0002      	movs	r2, r0
    292e:	429c      	cmp	r4, r3
    2930:	dc0a      	bgt.n	2948 <scalbn+0x78>
    2932:	000b      	movs	r3, r1
    2934:	4815      	ldr	r0, [pc, #84]	; (298c <scalbn+0xbc>)
    2936:	4916      	ldr	r1, [pc, #88]	; (2990 <scalbn+0xc0>)
    2938:	f000 f832 	bl	29a0 <copysign>
    293c:	4a13      	ldr	r2, [pc, #76]	; (298c <scalbn+0xbc>)
    293e:	4b14      	ldr	r3, [pc, #80]	; (2990 <scalbn+0xc0>)
    2940:	f001 fcda 	bl	42f8 <__aeabi_dmul>
    2944:	e7e5      	b.n	2912 <scalbn+0x42>
    2946:	0002      	movs	r2, r0
    2948:	000b      	movs	r3, r1
    294a:	4812      	ldr	r0, [pc, #72]	; (2994 <scalbn+0xc4>)
    294c:	4912      	ldr	r1, [pc, #72]	; (2998 <scalbn+0xc8>)
    294e:	f000 f827 	bl	29a0 <copysign>
    2952:	4a10      	ldr	r2, [pc, #64]	; (2994 <scalbn+0xc4>)
    2954:	4b10      	ldr	r3, [pc, #64]	; (2998 <scalbn+0xc8>)
    2956:	f001 fccf 	bl	42f8 <__aeabi_dmul>
    295a:	e7da      	b.n	2912 <scalbn+0x42>
    295c:	4c08      	ldr	r4, [pc, #32]	; (2980 <scalbn+0xb0>)
    295e:	3336      	adds	r3, #54	; 0x36
    2960:	4022      	ands	r2, r4
    2962:	051b      	lsls	r3, r3, #20
    2964:	4313      	orrs	r3, r2
    2966:	0019      	movs	r1, r3
    2968:	2200      	movs	r2, #0
    296a:	4b0c      	ldr	r3, [pc, #48]	; (299c <scalbn+0xcc>)
    296c:	f001 fcc4 	bl	42f8 <__aeabi_dmul>
    2970:	e7cf      	b.n	2912 <scalbn+0x42>
    2972:	46c0      	nop			; (mov r8, r8)
    2974:	43500000 	.word	0x43500000
    2978:	ffff3cb0 	.word	0xffff3cb0
    297c:	000007fe 	.word	0x000007fe
    2980:	800fffff 	.word	0x800fffff
    2984:	000007ff 	.word	0x000007ff
    2988:	0000c350 	.word	0x0000c350
    298c:	c2f8f359 	.word	0xc2f8f359
    2990:	01a56e1f 	.word	0x01a56e1f
    2994:	8800759c 	.word	0x8800759c
    2998:	7e37e43c 	.word	0x7e37e43c
    299c:	3c900000 	.word	0x3c900000

000029a0 <copysign>:
    29a0:	b530      	push	{r4, r5, lr}
    29a2:	004a      	lsls	r2, r1, #1
    29a4:	0fdb      	lsrs	r3, r3, #31
    29a6:	07db      	lsls	r3, r3, #31
    29a8:	0852      	lsrs	r2, r2, #1
    29aa:	431a      	orrs	r2, r3
    29ac:	0011      	movs	r1, r2
    29ae:	bd30      	pop	{r4, r5, pc}

000029b0 <__udivsi3>:
    29b0:	2200      	movs	r2, #0
    29b2:	0843      	lsrs	r3, r0, #1
    29b4:	428b      	cmp	r3, r1
    29b6:	d374      	bcc.n	2aa2 <__udivsi3+0xf2>
    29b8:	0903      	lsrs	r3, r0, #4
    29ba:	428b      	cmp	r3, r1
    29bc:	d35f      	bcc.n	2a7e <__udivsi3+0xce>
    29be:	0a03      	lsrs	r3, r0, #8
    29c0:	428b      	cmp	r3, r1
    29c2:	d344      	bcc.n	2a4e <__udivsi3+0x9e>
    29c4:	0b03      	lsrs	r3, r0, #12
    29c6:	428b      	cmp	r3, r1
    29c8:	d328      	bcc.n	2a1c <__udivsi3+0x6c>
    29ca:	0c03      	lsrs	r3, r0, #16
    29cc:	428b      	cmp	r3, r1
    29ce:	d30d      	bcc.n	29ec <__udivsi3+0x3c>
    29d0:	22ff      	movs	r2, #255	; 0xff
    29d2:	0209      	lsls	r1, r1, #8
    29d4:	ba12      	rev	r2, r2
    29d6:	0c03      	lsrs	r3, r0, #16
    29d8:	428b      	cmp	r3, r1
    29da:	d302      	bcc.n	29e2 <__udivsi3+0x32>
    29dc:	1212      	asrs	r2, r2, #8
    29de:	0209      	lsls	r1, r1, #8
    29e0:	d065      	beq.n	2aae <__udivsi3+0xfe>
    29e2:	0b03      	lsrs	r3, r0, #12
    29e4:	428b      	cmp	r3, r1
    29e6:	d319      	bcc.n	2a1c <__udivsi3+0x6c>
    29e8:	e000      	b.n	29ec <__udivsi3+0x3c>
    29ea:	0a09      	lsrs	r1, r1, #8
    29ec:	0bc3      	lsrs	r3, r0, #15
    29ee:	428b      	cmp	r3, r1
    29f0:	d301      	bcc.n	29f6 <__udivsi3+0x46>
    29f2:	03cb      	lsls	r3, r1, #15
    29f4:	1ac0      	subs	r0, r0, r3
    29f6:	4152      	adcs	r2, r2
    29f8:	0b83      	lsrs	r3, r0, #14
    29fa:	428b      	cmp	r3, r1
    29fc:	d301      	bcc.n	2a02 <__udivsi3+0x52>
    29fe:	038b      	lsls	r3, r1, #14
    2a00:	1ac0      	subs	r0, r0, r3
    2a02:	4152      	adcs	r2, r2
    2a04:	0b43      	lsrs	r3, r0, #13
    2a06:	428b      	cmp	r3, r1
    2a08:	d301      	bcc.n	2a0e <__udivsi3+0x5e>
    2a0a:	034b      	lsls	r3, r1, #13
    2a0c:	1ac0      	subs	r0, r0, r3
    2a0e:	4152      	adcs	r2, r2
    2a10:	0b03      	lsrs	r3, r0, #12
    2a12:	428b      	cmp	r3, r1
    2a14:	d301      	bcc.n	2a1a <__udivsi3+0x6a>
    2a16:	030b      	lsls	r3, r1, #12
    2a18:	1ac0      	subs	r0, r0, r3
    2a1a:	4152      	adcs	r2, r2
    2a1c:	0ac3      	lsrs	r3, r0, #11
    2a1e:	428b      	cmp	r3, r1
    2a20:	d301      	bcc.n	2a26 <__udivsi3+0x76>
    2a22:	02cb      	lsls	r3, r1, #11
    2a24:	1ac0      	subs	r0, r0, r3
    2a26:	4152      	adcs	r2, r2
    2a28:	0a83      	lsrs	r3, r0, #10
    2a2a:	428b      	cmp	r3, r1
    2a2c:	d301      	bcc.n	2a32 <__udivsi3+0x82>
    2a2e:	028b      	lsls	r3, r1, #10
    2a30:	1ac0      	subs	r0, r0, r3
    2a32:	4152      	adcs	r2, r2
    2a34:	0a43      	lsrs	r3, r0, #9
    2a36:	428b      	cmp	r3, r1
    2a38:	d301      	bcc.n	2a3e <__udivsi3+0x8e>
    2a3a:	024b      	lsls	r3, r1, #9
    2a3c:	1ac0      	subs	r0, r0, r3
    2a3e:	4152      	adcs	r2, r2
    2a40:	0a03      	lsrs	r3, r0, #8
    2a42:	428b      	cmp	r3, r1
    2a44:	d301      	bcc.n	2a4a <__udivsi3+0x9a>
    2a46:	020b      	lsls	r3, r1, #8
    2a48:	1ac0      	subs	r0, r0, r3
    2a4a:	4152      	adcs	r2, r2
    2a4c:	d2cd      	bcs.n	29ea <__udivsi3+0x3a>
    2a4e:	09c3      	lsrs	r3, r0, #7
    2a50:	428b      	cmp	r3, r1
    2a52:	d301      	bcc.n	2a58 <__udivsi3+0xa8>
    2a54:	01cb      	lsls	r3, r1, #7
    2a56:	1ac0      	subs	r0, r0, r3
    2a58:	4152      	adcs	r2, r2
    2a5a:	0983      	lsrs	r3, r0, #6
    2a5c:	428b      	cmp	r3, r1
    2a5e:	d301      	bcc.n	2a64 <__udivsi3+0xb4>
    2a60:	018b      	lsls	r3, r1, #6
    2a62:	1ac0      	subs	r0, r0, r3
    2a64:	4152      	adcs	r2, r2
    2a66:	0943      	lsrs	r3, r0, #5
    2a68:	428b      	cmp	r3, r1
    2a6a:	d301      	bcc.n	2a70 <__udivsi3+0xc0>
    2a6c:	014b      	lsls	r3, r1, #5
    2a6e:	1ac0      	subs	r0, r0, r3
    2a70:	4152      	adcs	r2, r2
    2a72:	0903      	lsrs	r3, r0, #4
    2a74:	428b      	cmp	r3, r1
    2a76:	d301      	bcc.n	2a7c <__udivsi3+0xcc>
    2a78:	010b      	lsls	r3, r1, #4
    2a7a:	1ac0      	subs	r0, r0, r3
    2a7c:	4152      	adcs	r2, r2
    2a7e:	08c3      	lsrs	r3, r0, #3
    2a80:	428b      	cmp	r3, r1
    2a82:	d301      	bcc.n	2a88 <__udivsi3+0xd8>
    2a84:	00cb      	lsls	r3, r1, #3
    2a86:	1ac0      	subs	r0, r0, r3
    2a88:	4152      	adcs	r2, r2
    2a8a:	0883      	lsrs	r3, r0, #2
    2a8c:	428b      	cmp	r3, r1
    2a8e:	d301      	bcc.n	2a94 <__udivsi3+0xe4>
    2a90:	008b      	lsls	r3, r1, #2
    2a92:	1ac0      	subs	r0, r0, r3
    2a94:	4152      	adcs	r2, r2
    2a96:	0843      	lsrs	r3, r0, #1
    2a98:	428b      	cmp	r3, r1
    2a9a:	d301      	bcc.n	2aa0 <__udivsi3+0xf0>
    2a9c:	004b      	lsls	r3, r1, #1
    2a9e:	1ac0      	subs	r0, r0, r3
    2aa0:	4152      	adcs	r2, r2
    2aa2:	1a41      	subs	r1, r0, r1
    2aa4:	d200      	bcs.n	2aa8 <__udivsi3+0xf8>
    2aa6:	4601      	mov	r1, r0
    2aa8:	4152      	adcs	r2, r2
    2aaa:	4610      	mov	r0, r2
    2aac:	4770      	bx	lr
    2aae:	e7ff      	b.n	2ab0 <__udivsi3+0x100>
    2ab0:	b501      	push	{r0, lr}
    2ab2:	2000      	movs	r0, #0
    2ab4:	f000 f8f0 	bl	2c98 <__aeabi_idiv0>
    2ab8:	bd02      	pop	{r1, pc}
    2aba:	46c0      	nop			; (mov r8, r8)

00002abc <__aeabi_uidivmod>:
    2abc:	2900      	cmp	r1, #0
    2abe:	d0f7      	beq.n	2ab0 <__udivsi3+0x100>
    2ac0:	e776      	b.n	29b0 <__udivsi3>
    2ac2:	4770      	bx	lr

00002ac4 <__divsi3>:
    2ac4:	4603      	mov	r3, r0
    2ac6:	430b      	orrs	r3, r1
    2ac8:	d47f      	bmi.n	2bca <__divsi3+0x106>
    2aca:	2200      	movs	r2, #0
    2acc:	0843      	lsrs	r3, r0, #1
    2ace:	428b      	cmp	r3, r1
    2ad0:	d374      	bcc.n	2bbc <__divsi3+0xf8>
    2ad2:	0903      	lsrs	r3, r0, #4
    2ad4:	428b      	cmp	r3, r1
    2ad6:	d35f      	bcc.n	2b98 <__divsi3+0xd4>
    2ad8:	0a03      	lsrs	r3, r0, #8
    2ada:	428b      	cmp	r3, r1
    2adc:	d344      	bcc.n	2b68 <__divsi3+0xa4>
    2ade:	0b03      	lsrs	r3, r0, #12
    2ae0:	428b      	cmp	r3, r1
    2ae2:	d328      	bcc.n	2b36 <__divsi3+0x72>
    2ae4:	0c03      	lsrs	r3, r0, #16
    2ae6:	428b      	cmp	r3, r1
    2ae8:	d30d      	bcc.n	2b06 <__divsi3+0x42>
    2aea:	22ff      	movs	r2, #255	; 0xff
    2aec:	0209      	lsls	r1, r1, #8
    2aee:	ba12      	rev	r2, r2
    2af0:	0c03      	lsrs	r3, r0, #16
    2af2:	428b      	cmp	r3, r1
    2af4:	d302      	bcc.n	2afc <__divsi3+0x38>
    2af6:	1212      	asrs	r2, r2, #8
    2af8:	0209      	lsls	r1, r1, #8
    2afa:	d065      	beq.n	2bc8 <__divsi3+0x104>
    2afc:	0b03      	lsrs	r3, r0, #12
    2afe:	428b      	cmp	r3, r1
    2b00:	d319      	bcc.n	2b36 <__divsi3+0x72>
    2b02:	e000      	b.n	2b06 <__divsi3+0x42>
    2b04:	0a09      	lsrs	r1, r1, #8
    2b06:	0bc3      	lsrs	r3, r0, #15
    2b08:	428b      	cmp	r3, r1
    2b0a:	d301      	bcc.n	2b10 <__divsi3+0x4c>
    2b0c:	03cb      	lsls	r3, r1, #15
    2b0e:	1ac0      	subs	r0, r0, r3
    2b10:	4152      	adcs	r2, r2
    2b12:	0b83      	lsrs	r3, r0, #14
    2b14:	428b      	cmp	r3, r1
    2b16:	d301      	bcc.n	2b1c <__divsi3+0x58>
    2b18:	038b      	lsls	r3, r1, #14
    2b1a:	1ac0      	subs	r0, r0, r3
    2b1c:	4152      	adcs	r2, r2
    2b1e:	0b43      	lsrs	r3, r0, #13
    2b20:	428b      	cmp	r3, r1
    2b22:	d301      	bcc.n	2b28 <__divsi3+0x64>
    2b24:	034b      	lsls	r3, r1, #13
    2b26:	1ac0      	subs	r0, r0, r3
    2b28:	4152      	adcs	r2, r2
    2b2a:	0b03      	lsrs	r3, r0, #12
    2b2c:	428b      	cmp	r3, r1
    2b2e:	d301      	bcc.n	2b34 <__divsi3+0x70>
    2b30:	030b      	lsls	r3, r1, #12
    2b32:	1ac0      	subs	r0, r0, r3
    2b34:	4152      	adcs	r2, r2
    2b36:	0ac3      	lsrs	r3, r0, #11
    2b38:	428b      	cmp	r3, r1
    2b3a:	d301      	bcc.n	2b40 <__divsi3+0x7c>
    2b3c:	02cb      	lsls	r3, r1, #11
    2b3e:	1ac0      	subs	r0, r0, r3
    2b40:	4152      	adcs	r2, r2
    2b42:	0a83      	lsrs	r3, r0, #10
    2b44:	428b      	cmp	r3, r1
    2b46:	d301      	bcc.n	2b4c <__divsi3+0x88>
    2b48:	028b      	lsls	r3, r1, #10
    2b4a:	1ac0      	subs	r0, r0, r3
    2b4c:	4152      	adcs	r2, r2
    2b4e:	0a43      	lsrs	r3, r0, #9
    2b50:	428b      	cmp	r3, r1
    2b52:	d301      	bcc.n	2b58 <__divsi3+0x94>
    2b54:	024b      	lsls	r3, r1, #9
    2b56:	1ac0      	subs	r0, r0, r3
    2b58:	4152      	adcs	r2, r2
    2b5a:	0a03      	lsrs	r3, r0, #8
    2b5c:	428b      	cmp	r3, r1
    2b5e:	d301      	bcc.n	2b64 <__divsi3+0xa0>
    2b60:	020b      	lsls	r3, r1, #8
    2b62:	1ac0      	subs	r0, r0, r3
    2b64:	4152      	adcs	r2, r2
    2b66:	d2cd      	bcs.n	2b04 <__divsi3+0x40>
    2b68:	09c3      	lsrs	r3, r0, #7
    2b6a:	428b      	cmp	r3, r1
    2b6c:	d301      	bcc.n	2b72 <__divsi3+0xae>
    2b6e:	01cb      	lsls	r3, r1, #7
    2b70:	1ac0      	subs	r0, r0, r3
    2b72:	4152      	adcs	r2, r2
    2b74:	0983      	lsrs	r3, r0, #6
    2b76:	428b      	cmp	r3, r1
    2b78:	d301      	bcc.n	2b7e <__divsi3+0xba>
    2b7a:	018b      	lsls	r3, r1, #6
    2b7c:	1ac0      	subs	r0, r0, r3
    2b7e:	4152      	adcs	r2, r2
    2b80:	0943      	lsrs	r3, r0, #5
    2b82:	428b      	cmp	r3, r1
    2b84:	d301      	bcc.n	2b8a <__divsi3+0xc6>
    2b86:	014b      	lsls	r3, r1, #5
    2b88:	1ac0      	subs	r0, r0, r3
    2b8a:	4152      	adcs	r2, r2
    2b8c:	0903      	lsrs	r3, r0, #4
    2b8e:	428b      	cmp	r3, r1
    2b90:	d301      	bcc.n	2b96 <__divsi3+0xd2>
    2b92:	010b      	lsls	r3, r1, #4
    2b94:	1ac0      	subs	r0, r0, r3
    2b96:	4152      	adcs	r2, r2
    2b98:	08c3      	lsrs	r3, r0, #3
    2b9a:	428b      	cmp	r3, r1
    2b9c:	d301      	bcc.n	2ba2 <__divsi3+0xde>
    2b9e:	00cb      	lsls	r3, r1, #3
    2ba0:	1ac0      	subs	r0, r0, r3
    2ba2:	4152      	adcs	r2, r2
    2ba4:	0883      	lsrs	r3, r0, #2
    2ba6:	428b      	cmp	r3, r1
    2ba8:	d301      	bcc.n	2bae <__divsi3+0xea>
    2baa:	008b      	lsls	r3, r1, #2
    2bac:	1ac0      	subs	r0, r0, r3
    2bae:	4152      	adcs	r2, r2
    2bb0:	0843      	lsrs	r3, r0, #1
    2bb2:	428b      	cmp	r3, r1
    2bb4:	d301      	bcc.n	2bba <__divsi3+0xf6>
    2bb6:	004b      	lsls	r3, r1, #1
    2bb8:	1ac0      	subs	r0, r0, r3
    2bba:	4152      	adcs	r2, r2
    2bbc:	1a41      	subs	r1, r0, r1
    2bbe:	d200      	bcs.n	2bc2 <__divsi3+0xfe>
    2bc0:	4601      	mov	r1, r0
    2bc2:	4152      	adcs	r2, r2
    2bc4:	4610      	mov	r0, r2
    2bc6:	4770      	bx	lr
    2bc8:	e05d      	b.n	2c86 <__divsi3+0x1c2>
    2bca:	0fca      	lsrs	r2, r1, #31
    2bcc:	d000      	beq.n	2bd0 <__divsi3+0x10c>
    2bce:	4249      	negs	r1, r1
    2bd0:	1003      	asrs	r3, r0, #32
    2bd2:	d300      	bcc.n	2bd6 <__divsi3+0x112>
    2bd4:	4240      	negs	r0, r0
    2bd6:	4053      	eors	r3, r2
    2bd8:	2200      	movs	r2, #0
    2bda:	469c      	mov	ip, r3
    2bdc:	0903      	lsrs	r3, r0, #4
    2bde:	428b      	cmp	r3, r1
    2be0:	d32d      	bcc.n	2c3e <__divsi3+0x17a>
    2be2:	0a03      	lsrs	r3, r0, #8
    2be4:	428b      	cmp	r3, r1
    2be6:	d312      	bcc.n	2c0e <__divsi3+0x14a>
    2be8:	22fc      	movs	r2, #252	; 0xfc
    2bea:	0189      	lsls	r1, r1, #6
    2bec:	ba12      	rev	r2, r2
    2bee:	0a03      	lsrs	r3, r0, #8
    2bf0:	428b      	cmp	r3, r1
    2bf2:	d30c      	bcc.n	2c0e <__divsi3+0x14a>
    2bf4:	0189      	lsls	r1, r1, #6
    2bf6:	1192      	asrs	r2, r2, #6
    2bf8:	428b      	cmp	r3, r1
    2bfa:	d308      	bcc.n	2c0e <__divsi3+0x14a>
    2bfc:	0189      	lsls	r1, r1, #6
    2bfe:	1192      	asrs	r2, r2, #6
    2c00:	428b      	cmp	r3, r1
    2c02:	d304      	bcc.n	2c0e <__divsi3+0x14a>
    2c04:	0189      	lsls	r1, r1, #6
    2c06:	d03a      	beq.n	2c7e <__divsi3+0x1ba>
    2c08:	1192      	asrs	r2, r2, #6
    2c0a:	e000      	b.n	2c0e <__divsi3+0x14a>
    2c0c:	0989      	lsrs	r1, r1, #6
    2c0e:	09c3      	lsrs	r3, r0, #7
    2c10:	428b      	cmp	r3, r1
    2c12:	d301      	bcc.n	2c18 <__divsi3+0x154>
    2c14:	01cb      	lsls	r3, r1, #7
    2c16:	1ac0      	subs	r0, r0, r3
    2c18:	4152      	adcs	r2, r2
    2c1a:	0983      	lsrs	r3, r0, #6
    2c1c:	428b      	cmp	r3, r1
    2c1e:	d301      	bcc.n	2c24 <__divsi3+0x160>
    2c20:	018b      	lsls	r3, r1, #6
    2c22:	1ac0      	subs	r0, r0, r3
    2c24:	4152      	adcs	r2, r2
    2c26:	0943      	lsrs	r3, r0, #5
    2c28:	428b      	cmp	r3, r1
    2c2a:	d301      	bcc.n	2c30 <__divsi3+0x16c>
    2c2c:	014b      	lsls	r3, r1, #5
    2c2e:	1ac0      	subs	r0, r0, r3
    2c30:	4152      	adcs	r2, r2
    2c32:	0903      	lsrs	r3, r0, #4
    2c34:	428b      	cmp	r3, r1
    2c36:	d301      	bcc.n	2c3c <__divsi3+0x178>
    2c38:	010b      	lsls	r3, r1, #4
    2c3a:	1ac0      	subs	r0, r0, r3
    2c3c:	4152      	adcs	r2, r2
    2c3e:	08c3      	lsrs	r3, r0, #3
    2c40:	428b      	cmp	r3, r1
    2c42:	d301      	bcc.n	2c48 <__divsi3+0x184>
    2c44:	00cb      	lsls	r3, r1, #3
    2c46:	1ac0      	subs	r0, r0, r3
    2c48:	4152      	adcs	r2, r2
    2c4a:	0883      	lsrs	r3, r0, #2
    2c4c:	428b      	cmp	r3, r1
    2c4e:	d301      	bcc.n	2c54 <__divsi3+0x190>
    2c50:	008b      	lsls	r3, r1, #2
    2c52:	1ac0      	subs	r0, r0, r3
    2c54:	4152      	adcs	r2, r2
    2c56:	d2d9      	bcs.n	2c0c <__divsi3+0x148>
    2c58:	0843      	lsrs	r3, r0, #1
    2c5a:	428b      	cmp	r3, r1
    2c5c:	d301      	bcc.n	2c62 <__divsi3+0x19e>
    2c5e:	004b      	lsls	r3, r1, #1
    2c60:	1ac0      	subs	r0, r0, r3
    2c62:	4152      	adcs	r2, r2
    2c64:	1a41      	subs	r1, r0, r1
    2c66:	d200      	bcs.n	2c6a <__divsi3+0x1a6>
    2c68:	4601      	mov	r1, r0
    2c6a:	4663      	mov	r3, ip
    2c6c:	4152      	adcs	r2, r2
    2c6e:	105b      	asrs	r3, r3, #1
    2c70:	4610      	mov	r0, r2
    2c72:	d301      	bcc.n	2c78 <__divsi3+0x1b4>
    2c74:	4240      	negs	r0, r0
    2c76:	2b00      	cmp	r3, #0
    2c78:	d500      	bpl.n	2c7c <__divsi3+0x1b8>
    2c7a:	4249      	negs	r1, r1
    2c7c:	4770      	bx	lr
    2c7e:	4663      	mov	r3, ip
    2c80:	105b      	asrs	r3, r3, #1
    2c82:	d300      	bcc.n	2c86 <__divsi3+0x1c2>
    2c84:	4240      	negs	r0, r0
    2c86:	b501      	push	{r0, lr}
    2c88:	2000      	movs	r0, #0
    2c8a:	f000 f805 	bl	2c98 <__aeabi_idiv0>
    2c8e:	bd02      	pop	{r1, pc}

00002c90 <__aeabi_idivmod>:
    2c90:	2900      	cmp	r1, #0
    2c92:	d0f8      	beq.n	2c86 <__divsi3+0x1c2>
    2c94:	e716      	b.n	2ac4 <__divsi3>
    2c96:	4770      	bx	lr

00002c98 <__aeabi_idiv0>:
    2c98:	4770      	bx	lr
    2c9a:	46c0      	nop			; (mov r8, r8)

00002c9c <__aeabi_cdrcmple>:
    2c9c:	4684      	mov	ip, r0
    2c9e:	1c10      	adds	r0, r2, #0
    2ca0:	4662      	mov	r2, ip
    2ca2:	468c      	mov	ip, r1
    2ca4:	1c19      	adds	r1, r3, #0
    2ca6:	4663      	mov	r3, ip
    2ca8:	e000      	b.n	2cac <__aeabi_cdcmpeq>
    2caa:	46c0      	nop			; (mov r8, r8)

00002cac <__aeabi_cdcmpeq>:
    2cac:	b51f      	push	{r0, r1, r2, r3, r4, lr}
    2cae:	f001 fac1 	bl	4234 <__ledf2>
    2cb2:	2800      	cmp	r0, #0
    2cb4:	d401      	bmi.n	2cba <__aeabi_cdcmpeq+0xe>
    2cb6:	2100      	movs	r1, #0
    2cb8:	42c8      	cmn	r0, r1
    2cba:	bd1f      	pop	{r0, r1, r2, r3, r4, pc}

00002cbc <__aeabi_dcmpeq>:
    2cbc:	b510      	push	{r4, lr}
    2cbe:	f001 fa1b 	bl	40f8 <__eqdf2>
    2cc2:	4240      	negs	r0, r0
    2cc4:	3001      	adds	r0, #1
    2cc6:	bd10      	pop	{r4, pc}

00002cc8 <__aeabi_dcmplt>:
    2cc8:	b510      	push	{r4, lr}
    2cca:	f001 fab3 	bl	4234 <__ledf2>
    2cce:	2800      	cmp	r0, #0
    2cd0:	db01      	blt.n	2cd6 <__aeabi_dcmplt+0xe>
    2cd2:	2000      	movs	r0, #0
    2cd4:	bd10      	pop	{r4, pc}
    2cd6:	2001      	movs	r0, #1
    2cd8:	bd10      	pop	{r4, pc}
    2cda:	46c0      	nop			; (mov r8, r8)

00002cdc <__aeabi_dcmple>:
    2cdc:	b510      	push	{r4, lr}
    2cde:	f001 faa9 	bl	4234 <__ledf2>
    2ce2:	2800      	cmp	r0, #0
    2ce4:	dd01      	ble.n	2cea <__aeabi_dcmple+0xe>
    2ce6:	2000      	movs	r0, #0
    2ce8:	bd10      	pop	{r4, pc}
    2cea:	2001      	movs	r0, #1
    2cec:	bd10      	pop	{r4, pc}
    2cee:	46c0      	nop			; (mov r8, r8)

00002cf0 <__aeabi_dcmpgt>:
    2cf0:	b510      	push	{r4, lr}
    2cf2:	f001 fa3b 	bl	416c <__gedf2>
    2cf6:	2800      	cmp	r0, #0
    2cf8:	dc01      	bgt.n	2cfe <__aeabi_dcmpgt+0xe>
    2cfa:	2000      	movs	r0, #0
    2cfc:	bd10      	pop	{r4, pc}
    2cfe:	2001      	movs	r0, #1
    2d00:	bd10      	pop	{r4, pc}
    2d02:	46c0      	nop			; (mov r8, r8)

00002d04 <__aeabi_dcmpge>:
    2d04:	b510      	push	{r4, lr}
    2d06:	f001 fa31 	bl	416c <__gedf2>
    2d0a:	2800      	cmp	r0, #0
    2d0c:	da01      	bge.n	2d12 <__aeabi_dcmpge+0xe>
    2d0e:	2000      	movs	r0, #0
    2d10:	bd10      	pop	{r4, pc}
    2d12:	2001      	movs	r0, #1
    2d14:	bd10      	pop	{r4, pc}
    2d16:	46c0      	nop			; (mov r8, r8)

00002d18 <__aeabi_uldivmod>:
    2d18:	2b00      	cmp	r3, #0
    2d1a:	d111      	bne.n	2d40 <__aeabi_uldivmod+0x28>
    2d1c:	2a00      	cmp	r2, #0
    2d1e:	d10f      	bne.n	2d40 <__aeabi_uldivmod+0x28>
    2d20:	2900      	cmp	r1, #0
    2d22:	d100      	bne.n	2d26 <__aeabi_uldivmod+0xe>
    2d24:	2800      	cmp	r0, #0
    2d26:	d002      	beq.n	2d2e <__aeabi_uldivmod+0x16>
    2d28:	2100      	movs	r1, #0
    2d2a:	43c9      	mvns	r1, r1
    2d2c:	1c08      	adds	r0, r1, #0
    2d2e:	b407      	push	{r0, r1, r2}
    2d30:	4802      	ldr	r0, [pc, #8]	; (2d3c <__aeabi_uldivmod+0x24>)
    2d32:	a102      	add	r1, pc, #8	; (adr r1, 2d3c <__aeabi_uldivmod+0x24>)
    2d34:	1840      	adds	r0, r0, r1
    2d36:	9002      	str	r0, [sp, #8]
    2d38:	bd03      	pop	{r0, r1, pc}
    2d3a:	46c0      	nop			; (mov r8, r8)
    2d3c:	ffffff5d 	.word	0xffffff5d
    2d40:	b403      	push	{r0, r1}
    2d42:	4668      	mov	r0, sp
    2d44:	b501      	push	{r0, lr}
    2d46:	9802      	ldr	r0, [sp, #8]
    2d48:	f000 f824 	bl	2d94 <__udivmoddi4>
    2d4c:	9b01      	ldr	r3, [sp, #4]
    2d4e:	469e      	mov	lr, r3
    2d50:	b002      	add	sp, #8
    2d52:	bc0c      	pop	{r2, r3}
    2d54:	4770      	bx	lr
    2d56:	46c0      	nop			; (mov r8, r8)

00002d58 <__aeabi_d2uiz>:
    2d58:	b570      	push	{r4, r5, r6, lr}
    2d5a:	2200      	movs	r2, #0
    2d5c:	4b0c      	ldr	r3, [pc, #48]	; (2d90 <__aeabi_d2uiz+0x38>)
    2d5e:	0004      	movs	r4, r0
    2d60:	000d      	movs	r5, r1
    2d62:	f7ff ffcf 	bl	2d04 <__aeabi_dcmpge>
    2d66:	2800      	cmp	r0, #0
    2d68:	d104      	bne.n	2d74 <__aeabi_d2uiz+0x1c>
    2d6a:	0020      	movs	r0, r4
    2d6c:	0029      	movs	r1, r5
    2d6e:	f002 f879 	bl	4e64 <__aeabi_d2iz>
    2d72:	bd70      	pop	{r4, r5, r6, pc}
    2d74:	4b06      	ldr	r3, [pc, #24]	; (2d90 <__aeabi_d2uiz+0x38>)
    2d76:	2200      	movs	r2, #0
    2d78:	0020      	movs	r0, r4
    2d7a:	0029      	movs	r1, r5
    2d7c:	f001 fd3c 	bl	47f8 <__aeabi_dsub>
    2d80:	f002 f870 	bl	4e64 <__aeabi_d2iz>
    2d84:	2380      	movs	r3, #128	; 0x80
    2d86:	061b      	lsls	r3, r3, #24
    2d88:	469c      	mov	ip, r3
    2d8a:	4460      	add	r0, ip
    2d8c:	e7f1      	b.n	2d72 <__aeabi_d2uiz+0x1a>
    2d8e:	46c0      	nop			; (mov r8, r8)
    2d90:	41e00000 	.word	0x41e00000

00002d94 <__udivmoddi4>:
    2d94:	b5f0      	push	{r4, r5, r6, r7, lr}
    2d96:	4657      	mov	r7, sl
    2d98:	464e      	mov	r6, r9
    2d9a:	4645      	mov	r5, r8
    2d9c:	46de      	mov	lr, fp
    2d9e:	b5e0      	push	{r5, r6, r7, lr}
    2da0:	0004      	movs	r4, r0
    2da2:	b083      	sub	sp, #12
    2da4:	000d      	movs	r5, r1
    2da6:	4692      	mov	sl, r2
    2da8:	4699      	mov	r9, r3
    2daa:	428b      	cmp	r3, r1
    2dac:	d82f      	bhi.n	2e0e <__udivmoddi4+0x7a>
    2dae:	d02c      	beq.n	2e0a <__udivmoddi4+0x76>
    2db0:	4649      	mov	r1, r9
    2db2:	4650      	mov	r0, sl
    2db4:	f002 f9fe 	bl	51b4 <__clzdi2>
    2db8:	0029      	movs	r1, r5
    2dba:	0006      	movs	r6, r0
    2dbc:	0020      	movs	r0, r4
    2dbe:	f002 f9f9 	bl	51b4 <__clzdi2>
    2dc2:	1a33      	subs	r3, r6, r0
    2dc4:	4698      	mov	r8, r3
    2dc6:	3b20      	subs	r3, #32
    2dc8:	469b      	mov	fp, r3
    2dca:	d500      	bpl.n	2dce <__udivmoddi4+0x3a>
    2dcc:	e074      	b.n	2eb8 <__udivmoddi4+0x124>
    2dce:	4653      	mov	r3, sl
    2dd0:	465a      	mov	r2, fp
    2dd2:	4093      	lsls	r3, r2
    2dd4:	001f      	movs	r7, r3
    2dd6:	4653      	mov	r3, sl
    2dd8:	4642      	mov	r2, r8
    2dda:	4093      	lsls	r3, r2
    2ddc:	001e      	movs	r6, r3
    2dde:	42af      	cmp	r7, r5
    2de0:	d829      	bhi.n	2e36 <__udivmoddi4+0xa2>
    2de2:	d026      	beq.n	2e32 <__udivmoddi4+0x9e>
    2de4:	465b      	mov	r3, fp
    2de6:	1ba4      	subs	r4, r4, r6
    2de8:	41bd      	sbcs	r5, r7
    2dea:	2b00      	cmp	r3, #0
    2dec:	da00      	bge.n	2df0 <__udivmoddi4+0x5c>
    2dee:	e079      	b.n	2ee4 <__udivmoddi4+0x150>
    2df0:	2200      	movs	r2, #0
    2df2:	2300      	movs	r3, #0
    2df4:	9200      	str	r2, [sp, #0]
    2df6:	9301      	str	r3, [sp, #4]
    2df8:	2301      	movs	r3, #1
    2dfa:	465a      	mov	r2, fp
    2dfc:	4093      	lsls	r3, r2
    2dfe:	9301      	str	r3, [sp, #4]
    2e00:	2301      	movs	r3, #1
    2e02:	4642      	mov	r2, r8
    2e04:	4093      	lsls	r3, r2
    2e06:	9300      	str	r3, [sp, #0]
    2e08:	e019      	b.n	2e3e <__udivmoddi4+0xaa>
    2e0a:	4282      	cmp	r2, r0
    2e0c:	d9d0      	bls.n	2db0 <__udivmoddi4+0x1c>
    2e0e:	2200      	movs	r2, #0
    2e10:	2300      	movs	r3, #0
    2e12:	9200      	str	r2, [sp, #0]
    2e14:	9301      	str	r3, [sp, #4]
    2e16:	9b0c      	ldr	r3, [sp, #48]	; 0x30
    2e18:	2b00      	cmp	r3, #0
    2e1a:	d001      	beq.n	2e20 <__udivmoddi4+0x8c>
    2e1c:	601c      	str	r4, [r3, #0]
    2e1e:	605d      	str	r5, [r3, #4]
    2e20:	9800      	ldr	r0, [sp, #0]
    2e22:	9901      	ldr	r1, [sp, #4]
    2e24:	b003      	add	sp, #12
    2e26:	bc3c      	pop	{r2, r3, r4, r5}
    2e28:	4690      	mov	r8, r2
    2e2a:	4699      	mov	r9, r3
    2e2c:	46a2      	mov	sl, r4
    2e2e:	46ab      	mov	fp, r5
    2e30:	bdf0      	pop	{r4, r5, r6, r7, pc}
    2e32:	42a3      	cmp	r3, r4
    2e34:	d9d6      	bls.n	2de4 <__udivmoddi4+0x50>
    2e36:	2200      	movs	r2, #0
    2e38:	2300      	movs	r3, #0
    2e3a:	9200      	str	r2, [sp, #0]
    2e3c:	9301      	str	r3, [sp, #4]
    2e3e:	4643      	mov	r3, r8
    2e40:	2b00      	cmp	r3, #0
    2e42:	d0e8      	beq.n	2e16 <__udivmoddi4+0x82>
    2e44:	07fb      	lsls	r3, r7, #31
    2e46:	0872      	lsrs	r2, r6, #1
    2e48:	431a      	orrs	r2, r3
    2e4a:	4646      	mov	r6, r8
    2e4c:	087b      	lsrs	r3, r7, #1
    2e4e:	e00e      	b.n	2e6e <__udivmoddi4+0xda>
    2e50:	42ab      	cmp	r3, r5
    2e52:	d101      	bne.n	2e58 <__udivmoddi4+0xc4>
    2e54:	42a2      	cmp	r2, r4
    2e56:	d80c      	bhi.n	2e72 <__udivmoddi4+0xde>
    2e58:	1aa4      	subs	r4, r4, r2
    2e5a:	419d      	sbcs	r5, r3
    2e5c:	2001      	movs	r0, #1
    2e5e:	1924      	adds	r4, r4, r4
    2e60:	416d      	adcs	r5, r5
    2e62:	2100      	movs	r1, #0
    2e64:	3e01      	subs	r6, #1
    2e66:	1824      	adds	r4, r4, r0
    2e68:	414d      	adcs	r5, r1
    2e6a:	2e00      	cmp	r6, #0
    2e6c:	d006      	beq.n	2e7c <__udivmoddi4+0xe8>
    2e6e:	42ab      	cmp	r3, r5
    2e70:	d9ee      	bls.n	2e50 <__udivmoddi4+0xbc>
    2e72:	3e01      	subs	r6, #1
    2e74:	1924      	adds	r4, r4, r4
    2e76:	416d      	adcs	r5, r5
    2e78:	2e00      	cmp	r6, #0
    2e7a:	d1f8      	bne.n	2e6e <__udivmoddi4+0xda>
    2e7c:	465b      	mov	r3, fp
    2e7e:	9800      	ldr	r0, [sp, #0]
    2e80:	9901      	ldr	r1, [sp, #4]
    2e82:	1900      	adds	r0, r0, r4
    2e84:	4169      	adcs	r1, r5
    2e86:	2b00      	cmp	r3, #0
    2e88:	db22      	blt.n	2ed0 <__udivmoddi4+0x13c>
    2e8a:	002b      	movs	r3, r5
    2e8c:	465a      	mov	r2, fp
    2e8e:	40d3      	lsrs	r3, r2
    2e90:	002a      	movs	r2, r5
    2e92:	4644      	mov	r4, r8
    2e94:	40e2      	lsrs	r2, r4
    2e96:	001c      	movs	r4, r3
    2e98:	465b      	mov	r3, fp
    2e9a:	0015      	movs	r5, r2
    2e9c:	2b00      	cmp	r3, #0
    2e9e:	db2c      	blt.n	2efa <__udivmoddi4+0x166>
    2ea0:	0026      	movs	r6, r4
    2ea2:	409e      	lsls	r6, r3
    2ea4:	0033      	movs	r3, r6
    2ea6:	0026      	movs	r6, r4
    2ea8:	4647      	mov	r7, r8
    2eaa:	40be      	lsls	r6, r7
    2eac:	0032      	movs	r2, r6
    2eae:	1a80      	subs	r0, r0, r2
    2eb0:	4199      	sbcs	r1, r3
    2eb2:	9000      	str	r0, [sp, #0]
    2eb4:	9101      	str	r1, [sp, #4]
    2eb6:	e7ae      	b.n	2e16 <__udivmoddi4+0x82>
    2eb8:	4642      	mov	r2, r8
    2eba:	2320      	movs	r3, #32
    2ebc:	1a9b      	subs	r3, r3, r2
    2ebe:	4652      	mov	r2, sl
    2ec0:	40da      	lsrs	r2, r3
    2ec2:	4641      	mov	r1, r8
    2ec4:	0013      	movs	r3, r2
    2ec6:	464a      	mov	r2, r9
    2ec8:	408a      	lsls	r2, r1
    2eca:	0017      	movs	r7, r2
    2ecc:	431f      	orrs	r7, r3
    2ece:	e782      	b.n	2dd6 <__udivmoddi4+0x42>
    2ed0:	4642      	mov	r2, r8
    2ed2:	2320      	movs	r3, #32
    2ed4:	1a9b      	subs	r3, r3, r2
    2ed6:	002a      	movs	r2, r5
    2ed8:	4646      	mov	r6, r8
    2eda:	409a      	lsls	r2, r3
    2edc:	0023      	movs	r3, r4
    2ede:	40f3      	lsrs	r3, r6
    2ee0:	4313      	orrs	r3, r2
    2ee2:	e7d5      	b.n	2e90 <__udivmoddi4+0xfc>
    2ee4:	4642      	mov	r2, r8
    2ee6:	2320      	movs	r3, #32
    2ee8:	2100      	movs	r1, #0
    2eea:	1a9b      	subs	r3, r3, r2
    2eec:	2200      	movs	r2, #0
    2eee:	9100      	str	r1, [sp, #0]
    2ef0:	9201      	str	r2, [sp, #4]
    2ef2:	2201      	movs	r2, #1
    2ef4:	40da      	lsrs	r2, r3
    2ef6:	9201      	str	r2, [sp, #4]
    2ef8:	e782      	b.n	2e00 <__udivmoddi4+0x6c>
    2efa:	4642      	mov	r2, r8
    2efc:	2320      	movs	r3, #32
    2efe:	0026      	movs	r6, r4
    2f00:	1a9b      	subs	r3, r3, r2
    2f02:	40de      	lsrs	r6, r3
    2f04:	002f      	movs	r7, r5
    2f06:	46b4      	mov	ip, r6
    2f08:	4097      	lsls	r7, r2
    2f0a:	4666      	mov	r6, ip
    2f0c:	003b      	movs	r3, r7
    2f0e:	4333      	orrs	r3, r6
    2f10:	e7c9      	b.n	2ea6 <__udivmoddi4+0x112>
    2f12:	46c0      	nop			; (mov r8, r8)

00002f14 <__aeabi_fdiv>:
    2f14:	b5f0      	push	{r4, r5, r6, r7, lr}
    2f16:	4657      	mov	r7, sl
    2f18:	464e      	mov	r6, r9
    2f1a:	46de      	mov	lr, fp
    2f1c:	4645      	mov	r5, r8
    2f1e:	b5e0      	push	{r5, r6, r7, lr}
    2f20:	0244      	lsls	r4, r0, #9
    2f22:	0043      	lsls	r3, r0, #1
    2f24:	0fc6      	lsrs	r6, r0, #31
    2f26:	b083      	sub	sp, #12
    2f28:	1c0f      	adds	r7, r1, #0
    2f2a:	0a64      	lsrs	r4, r4, #9
    2f2c:	0e1b      	lsrs	r3, r3, #24
    2f2e:	46b2      	mov	sl, r6
    2f30:	d053      	beq.n	2fda <__aeabi_fdiv+0xc6>
    2f32:	2bff      	cmp	r3, #255	; 0xff
    2f34:	d027      	beq.n	2f86 <__aeabi_fdiv+0x72>
    2f36:	2280      	movs	r2, #128	; 0x80
    2f38:	00e4      	lsls	r4, r4, #3
    2f3a:	04d2      	lsls	r2, r2, #19
    2f3c:	4314      	orrs	r4, r2
    2f3e:	227f      	movs	r2, #127	; 0x7f
    2f40:	4252      	negs	r2, r2
    2f42:	4690      	mov	r8, r2
    2f44:	4498      	add	r8, r3
    2f46:	2300      	movs	r3, #0
    2f48:	4699      	mov	r9, r3
    2f4a:	469b      	mov	fp, r3
    2f4c:	027d      	lsls	r5, r7, #9
    2f4e:	0078      	lsls	r0, r7, #1
    2f50:	0ffb      	lsrs	r3, r7, #31
    2f52:	0a6d      	lsrs	r5, r5, #9
    2f54:	0e00      	lsrs	r0, r0, #24
    2f56:	9300      	str	r3, [sp, #0]
    2f58:	d024      	beq.n	2fa4 <__aeabi_fdiv+0x90>
    2f5a:	28ff      	cmp	r0, #255	; 0xff
    2f5c:	d046      	beq.n	2fec <__aeabi_fdiv+0xd8>
    2f5e:	2380      	movs	r3, #128	; 0x80
    2f60:	2100      	movs	r1, #0
    2f62:	00ed      	lsls	r5, r5, #3
    2f64:	04db      	lsls	r3, r3, #19
    2f66:	431d      	orrs	r5, r3
    2f68:	387f      	subs	r0, #127	; 0x7f
    2f6a:	4647      	mov	r7, r8
    2f6c:	1a38      	subs	r0, r7, r0
    2f6e:	464f      	mov	r7, r9
    2f70:	430f      	orrs	r7, r1
    2f72:	00bf      	lsls	r7, r7, #2
    2f74:	46b9      	mov	r9, r7
    2f76:	0033      	movs	r3, r6
    2f78:	9a00      	ldr	r2, [sp, #0]
    2f7a:	4f87      	ldr	r7, [pc, #540]	; (3198 <__aeabi_fdiv+0x284>)
    2f7c:	4053      	eors	r3, r2
    2f7e:	464a      	mov	r2, r9
    2f80:	58ba      	ldr	r2, [r7, r2]
    2f82:	9301      	str	r3, [sp, #4]
    2f84:	4697      	mov	pc, r2
    2f86:	2c00      	cmp	r4, #0
    2f88:	d14e      	bne.n	3028 <__aeabi_fdiv+0x114>
    2f8a:	2308      	movs	r3, #8
    2f8c:	4699      	mov	r9, r3
    2f8e:	33f7      	adds	r3, #247	; 0xf7
    2f90:	4698      	mov	r8, r3
    2f92:	3bfd      	subs	r3, #253	; 0xfd
    2f94:	469b      	mov	fp, r3
    2f96:	027d      	lsls	r5, r7, #9
    2f98:	0078      	lsls	r0, r7, #1
    2f9a:	0ffb      	lsrs	r3, r7, #31
    2f9c:	0a6d      	lsrs	r5, r5, #9
    2f9e:	0e00      	lsrs	r0, r0, #24
    2fa0:	9300      	str	r3, [sp, #0]
    2fa2:	d1da      	bne.n	2f5a <__aeabi_fdiv+0x46>
    2fa4:	2d00      	cmp	r5, #0
    2fa6:	d126      	bne.n	2ff6 <__aeabi_fdiv+0xe2>
    2fa8:	2000      	movs	r0, #0
    2faa:	2101      	movs	r1, #1
    2fac:	0033      	movs	r3, r6
    2fae:	9a00      	ldr	r2, [sp, #0]
    2fb0:	4f7a      	ldr	r7, [pc, #488]	; (319c <__aeabi_fdiv+0x288>)
    2fb2:	4053      	eors	r3, r2
    2fb4:	4642      	mov	r2, r8
    2fb6:	1a10      	subs	r0, r2, r0
    2fb8:	464a      	mov	r2, r9
    2fba:	430a      	orrs	r2, r1
    2fbc:	0092      	lsls	r2, r2, #2
    2fbe:	58ba      	ldr	r2, [r7, r2]
    2fc0:	001d      	movs	r5, r3
    2fc2:	4697      	mov	pc, r2
    2fc4:	9b00      	ldr	r3, [sp, #0]
    2fc6:	002c      	movs	r4, r5
    2fc8:	469a      	mov	sl, r3
    2fca:	468b      	mov	fp, r1
    2fcc:	465b      	mov	r3, fp
    2fce:	2b02      	cmp	r3, #2
    2fd0:	d131      	bne.n	3036 <__aeabi_fdiv+0x122>
    2fd2:	4653      	mov	r3, sl
    2fd4:	21ff      	movs	r1, #255	; 0xff
    2fd6:	2400      	movs	r4, #0
    2fd8:	e038      	b.n	304c <__aeabi_fdiv+0x138>
    2fda:	2c00      	cmp	r4, #0
    2fdc:	d117      	bne.n	300e <__aeabi_fdiv+0xfa>
    2fde:	2304      	movs	r3, #4
    2fe0:	4699      	mov	r9, r3
    2fe2:	2300      	movs	r3, #0
    2fe4:	4698      	mov	r8, r3
    2fe6:	3301      	adds	r3, #1
    2fe8:	469b      	mov	fp, r3
    2fea:	e7af      	b.n	2f4c <__aeabi_fdiv+0x38>
    2fec:	20ff      	movs	r0, #255	; 0xff
    2fee:	2d00      	cmp	r5, #0
    2ff0:	d10b      	bne.n	300a <__aeabi_fdiv+0xf6>
    2ff2:	2102      	movs	r1, #2
    2ff4:	e7da      	b.n	2fac <__aeabi_fdiv+0x98>
    2ff6:	0028      	movs	r0, r5
    2ff8:	f002 f8be 	bl	5178 <__clzsi2>
    2ffc:	1f43      	subs	r3, r0, #5
    2ffe:	409d      	lsls	r5, r3
    3000:	2376      	movs	r3, #118	; 0x76
    3002:	425b      	negs	r3, r3
    3004:	1a18      	subs	r0, r3, r0
    3006:	2100      	movs	r1, #0
    3008:	e7af      	b.n	2f6a <__aeabi_fdiv+0x56>
    300a:	2103      	movs	r1, #3
    300c:	e7ad      	b.n	2f6a <__aeabi_fdiv+0x56>
    300e:	0020      	movs	r0, r4
    3010:	f002 f8b2 	bl	5178 <__clzsi2>
    3014:	1f43      	subs	r3, r0, #5
    3016:	409c      	lsls	r4, r3
    3018:	2376      	movs	r3, #118	; 0x76
    301a:	425b      	negs	r3, r3
    301c:	1a1b      	subs	r3, r3, r0
    301e:	4698      	mov	r8, r3
    3020:	2300      	movs	r3, #0
    3022:	4699      	mov	r9, r3
    3024:	469b      	mov	fp, r3
    3026:	e791      	b.n	2f4c <__aeabi_fdiv+0x38>
    3028:	230c      	movs	r3, #12
    302a:	4699      	mov	r9, r3
    302c:	33f3      	adds	r3, #243	; 0xf3
    302e:	4698      	mov	r8, r3
    3030:	3bfc      	subs	r3, #252	; 0xfc
    3032:	469b      	mov	fp, r3
    3034:	e78a      	b.n	2f4c <__aeabi_fdiv+0x38>
    3036:	2b03      	cmp	r3, #3
    3038:	d100      	bne.n	303c <__aeabi_fdiv+0x128>
    303a:	e0a5      	b.n	3188 <__aeabi_fdiv+0x274>
    303c:	4655      	mov	r5, sl
    303e:	2b01      	cmp	r3, #1
    3040:	d000      	beq.n	3044 <__aeabi_fdiv+0x130>
    3042:	e081      	b.n	3148 <__aeabi_fdiv+0x234>
    3044:	2301      	movs	r3, #1
    3046:	2100      	movs	r1, #0
    3048:	2400      	movs	r4, #0
    304a:	402b      	ands	r3, r5
    304c:	0264      	lsls	r4, r4, #9
    304e:	05c9      	lsls	r1, r1, #23
    3050:	0a60      	lsrs	r0, r4, #9
    3052:	07db      	lsls	r3, r3, #31
    3054:	4308      	orrs	r0, r1
    3056:	4318      	orrs	r0, r3
    3058:	b003      	add	sp, #12
    305a:	bc3c      	pop	{r2, r3, r4, r5}
    305c:	4690      	mov	r8, r2
    305e:	4699      	mov	r9, r3
    3060:	46a2      	mov	sl, r4
    3062:	46ab      	mov	fp, r5
    3064:	bdf0      	pop	{r4, r5, r6, r7, pc}
    3066:	2480      	movs	r4, #128	; 0x80
    3068:	2300      	movs	r3, #0
    306a:	03e4      	lsls	r4, r4, #15
    306c:	21ff      	movs	r1, #255	; 0xff
    306e:	e7ed      	b.n	304c <__aeabi_fdiv+0x138>
    3070:	21ff      	movs	r1, #255	; 0xff
    3072:	2400      	movs	r4, #0
    3074:	e7ea      	b.n	304c <__aeabi_fdiv+0x138>
    3076:	2301      	movs	r3, #1
    3078:	1a59      	subs	r1, r3, r1
    307a:	291b      	cmp	r1, #27
    307c:	dd66      	ble.n	314c <__aeabi_fdiv+0x238>
    307e:	9a01      	ldr	r2, [sp, #4]
    3080:	4013      	ands	r3, r2
    3082:	2100      	movs	r1, #0
    3084:	2400      	movs	r4, #0
    3086:	e7e1      	b.n	304c <__aeabi_fdiv+0x138>
    3088:	2380      	movs	r3, #128	; 0x80
    308a:	03db      	lsls	r3, r3, #15
    308c:	421c      	tst	r4, r3
    308e:	d038      	beq.n	3102 <__aeabi_fdiv+0x1ee>
    3090:	421d      	tst	r5, r3
    3092:	d051      	beq.n	3138 <__aeabi_fdiv+0x224>
    3094:	431c      	orrs	r4, r3
    3096:	0264      	lsls	r4, r4, #9
    3098:	0a64      	lsrs	r4, r4, #9
    309a:	0033      	movs	r3, r6
    309c:	21ff      	movs	r1, #255	; 0xff
    309e:	e7d5      	b.n	304c <__aeabi_fdiv+0x138>
    30a0:	0163      	lsls	r3, r4, #5
    30a2:	016c      	lsls	r4, r5, #5
    30a4:	42a3      	cmp	r3, r4
    30a6:	d23b      	bcs.n	3120 <__aeabi_fdiv+0x20c>
    30a8:	261b      	movs	r6, #27
    30aa:	2100      	movs	r1, #0
    30ac:	3801      	subs	r0, #1
    30ae:	2501      	movs	r5, #1
    30b0:	001f      	movs	r7, r3
    30b2:	0049      	lsls	r1, r1, #1
    30b4:	005b      	lsls	r3, r3, #1
    30b6:	2f00      	cmp	r7, #0
    30b8:	db01      	blt.n	30be <__aeabi_fdiv+0x1aa>
    30ba:	429c      	cmp	r4, r3
    30bc:	d801      	bhi.n	30c2 <__aeabi_fdiv+0x1ae>
    30be:	1b1b      	subs	r3, r3, r4
    30c0:	4329      	orrs	r1, r5
    30c2:	3e01      	subs	r6, #1
    30c4:	2e00      	cmp	r6, #0
    30c6:	d1f3      	bne.n	30b0 <__aeabi_fdiv+0x19c>
    30c8:	001c      	movs	r4, r3
    30ca:	1e63      	subs	r3, r4, #1
    30cc:	419c      	sbcs	r4, r3
    30ce:	430c      	orrs	r4, r1
    30d0:	0001      	movs	r1, r0
    30d2:	317f      	adds	r1, #127	; 0x7f
    30d4:	2900      	cmp	r1, #0
    30d6:	ddce      	ble.n	3076 <__aeabi_fdiv+0x162>
    30d8:	0763      	lsls	r3, r4, #29
    30da:	d004      	beq.n	30e6 <__aeabi_fdiv+0x1d2>
    30dc:	230f      	movs	r3, #15
    30de:	4023      	ands	r3, r4
    30e0:	2b04      	cmp	r3, #4
    30e2:	d000      	beq.n	30e6 <__aeabi_fdiv+0x1d2>
    30e4:	3404      	adds	r4, #4
    30e6:	0123      	lsls	r3, r4, #4
    30e8:	d503      	bpl.n	30f2 <__aeabi_fdiv+0x1de>
    30ea:	0001      	movs	r1, r0
    30ec:	4b2c      	ldr	r3, [pc, #176]	; (31a0 <__aeabi_fdiv+0x28c>)
    30ee:	3180      	adds	r1, #128	; 0x80
    30f0:	401c      	ands	r4, r3
    30f2:	29fe      	cmp	r1, #254	; 0xfe
    30f4:	dd0d      	ble.n	3112 <__aeabi_fdiv+0x1fe>
    30f6:	2301      	movs	r3, #1
    30f8:	9a01      	ldr	r2, [sp, #4]
    30fa:	21ff      	movs	r1, #255	; 0xff
    30fc:	4013      	ands	r3, r2
    30fe:	2400      	movs	r4, #0
    3100:	e7a4      	b.n	304c <__aeabi_fdiv+0x138>
    3102:	2380      	movs	r3, #128	; 0x80
    3104:	03db      	lsls	r3, r3, #15
    3106:	431c      	orrs	r4, r3
    3108:	0264      	lsls	r4, r4, #9
    310a:	0a64      	lsrs	r4, r4, #9
    310c:	0033      	movs	r3, r6
    310e:	21ff      	movs	r1, #255	; 0xff
    3110:	e79c      	b.n	304c <__aeabi_fdiv+0x138>
    3112:	2301      	movs	r3, #1
    3114:	9a01      	ldr	r2, [sp, #4]
    3116:	01a4      	lsls	r4, r4, #6
    3118:	0a64      	lsrs	r4, r4, #9
    311a:	b2c9      	uxtb	r1, r1
    311c:	4013      	ands	r3, r2
    311e:	e795      	b.n	304c <__aeabi_fdiv+0x138>
    3120:	1b1b      	subs	r3, r3, r4
    3122:	261a      	movs	r6, #26
    3124:	2101      	movs	r1, #1
    3126:	e7c2      	b.n	30ae <__aeabi_fdiv+0x19a>
    3128:	9b00      	ldr	r3, [sp, #0]
    312a:	468b      	mov	fp, r1
    312c:	469a      	mov	sl, r3
    312e:	2400      	movs	r4, #0
    3130:	e74c      	b.n	2fcc <__aeabi_fdiv+0xb8>
    3132:	0263      	lsls	r3, r4, #9
    3134:	d5e5      	bpl.n	3102 <__aeabi_fdiv+0x1ee>
    3136:	2500      	movs	r5, #0
    3138:	2480      	movs	r4, #128	; 0x80
    313a:	03e4      	lsls	r4, r4, #15
    313c:	432c      	orrs	r4, r5
    313e:	0264      	lsls	r4, r4, #9
    3140:	0a64      	lsrs	r4, r4, #9
    3142:	9b00      	ldr	r3, [sp, #0]
    3144:	21ff      	movs	r1, #255	; 0xff
    3146:	e781      	b.n	304c <__aeabi_fdiv+0x138>
    3148:	9501      	str	r5, [sp, #4]
    314a:	e7c1      	b.n	30d0 <__aeabi_fdiv+0x1bc>
    314c:	0023      	movs	r3, r4
    314e:	2020      	movs	r0, #32
    3150:	40cb      	lsrs	r3, r1
    3152:	1a41      	subs	r1, r0, r1
    3154:	408c      	lsls	r4, r1
    3156:	1e61      	subs	r1, r4, #1
    3158:	418c      	sbcs	r4, r1
    315a:	431c      	orrs	r4, r3
    315c:	0763      	lsls	r3, r4, #29
    315e:	d004      	beq.n	316a <__aeabi_fdiv+0x256>
    3160:	230f      	movs	r3, #15
    3162:	4023      	ands	r3, r4
    3164:	2b04      	cmp	r3, #4
    3166:	d000      	beq.n	316a <__aeabi_fdiv+0x256>
    3168:	3404      	adds	r4, #4
    316a:	0163      	lsls	r3, r4, #5
    316c:	d505      	bpl.n	317a <__aeabi_fdiv+0x266>
    316e:	2301      	movs	r3, #1
    3170:	9a01      	ldr	r2, [sp, #4]
    3172:	2101      	movs	r1, #1
    3174:	4013      	ands	r3, r2
    3176:	2400      	movs	r4, #0
    3178:	e768      	b.n	304c <__aeabi_fdiv+0x138>
    317a:	2301      	movs	r3, #1
    317c:	9a01      	ldr	r2, [sp, #4]
    317e:	01a4      	lsls	r4, r4, #6
    3180:	0a64      	lsrs	r4, r4, #9
    3182:	4013      	ands	r3, r2
    3184:	2100      	movs	r1, #0
    3186:	e761      	b.n	304c <__aeabi_fdiv+0x138>
    3188:	2380      	movs	r3, #128	; 0x80
    318a:	03db      	lsls	r3, r3, #15
    318c:	431c      	orrs	r4, r3
    318e:	0264      	lsls	r4, r4, #9
    3190:	0a64      	lsrs	r4, r4, #9
    3192:	4653      	mov	r3, sl
    3194:	21ff      	movs	r1, #255	; 0xff
    3196:	e759      	b.n	304c <__aeabi_fdiv+0x138>
    3198:	0000a220 	.word	0x0000a220
    319c:	0000a260 	.word	0x0000a260
    31a0:	f7ffffff 	.word	0xf7ffffff

000031a4 <__aeabi_fmul>:
    31a4:	b5f8      	push	{r3, r4, r5, r6, r7, lr}
    31a6:	4657      	mov	r7, sl
    31a8:	464e      	mov	r6, r9
    31aa:	4645      	mov	r5, r8
    31ac:	46de      	mov	lr, fp
    31ae:	b5e0      	push	{r5, r6, r7, lr}
    31b0:	0247      	lsls	r7, r0, #9
    31b2:	0046      	lsls	r6, r0, #1
    31b4:	4688      	mov	r8, r1
    31b6:	0a7f      	lsrs	r7, r7, #9
    31b8:	0e36      	lsrs	r6, r6, #24
    31ba:	0fc4      	lsrs	r4, r0, #31
    31bc:	2e00      	cmp	r6, #0
    31be:	d047      	beq.n	3250 <__aeabi_fmul+0xac>
    31c0:	2eff      	cmp	r6, #255	; 0xff
    31c2:	d024      	beq.n	320e <__aeabi_fmul+0x6a>
    31c4:	00fb      	lsls	r3, r7, #3
    31c6:	2780      	movs	r7, #128	; 0x80
    31c8:	04ff      	lsls	r7, r7, #19
    31ca:	431f      	orrs	r7, r3
    31cc:	2300      	movs	r3, #0
    31ce:	4699      	mov	r9, r3
    31d0:	469a      	mov	sl, r3
    31d2:	3e7f      	subs	r6, #127	; 0x7f
    31d4:	4643      	mov	r3, r8
    31d6:	025d      	lsls	r5, r3, #9
    31d8:	0058      	lsls	r0, r3, #1
    31da:	0fdb      	lsrs	r3, r3, #31
    31dc:	0a6d      	lsrs	r5, r5, #9
    31de:	0e00      	lsrs	r0, r0, #24
    31e0:	4698      	mov	r8, r3
    31e2:	d043      	beq.n	326c <__aeabi_fmul+0xc8>
    31e4:	28ff      	cmp	r0, #255	; 0xff
    31e6:	d03b      	beq.n	3260 <__aeabi_fmul+0xbc>
    31e8:	00eb      	lsls	r3, r5, #3
    31ea:	2580      	movs	r5, #128	; 0x80
    31ec:	2200      	movs	r2, #0
    31ee:	04ed      	lsls	r5, r5, #19
    31f0:	431d      	orrs	r5, r3
    31f2:	387f      	subs	r0, #127	; 0x7f
    31f4:	1836      	adds	r6, r6, r0
    31f6:	1c73      	adds	r3, r6, #1
    31f8:	4641      	mov	r1, r8
    31fa:	469b      	mov	fp, r3
    31fc:	464b      	mov	r3, r9
    31fe:	4061      	eors	r1, r4
    3200:	4313      	orrs	r3, r2
    3202:	2b0f      	cmp	r3, #15
    3204:	d864      	bhi.n	32d0 <__aeabi_fmul+0x12c>
    3206:	4875      	ldr	r0, [pc, #468]	; (33dc <__aeabi_fmul+0x238>)
    3208:	009b      	lsls	r3, r3, #2
    320a:	58c3      	ldr	r3, [r0, r3]
    320c:	469f      	mov	pc, r3
    320e:	2f00      	cmp	r7, #0
    3210:	d142      	bne.n	3298 <__aeabi_fmul+0xf4>
    3212:	2308      	movs	r3, #8
    3214:	4699      	mov	r9, r3
    3216:	3b06      	subs	r3, #6
    3218:	26ff      	movs	r6, #255	; 0xff
    321a:	469a      	mov	sl, r3
    321c:	e7da      	b.n	31d4 <__aeabi_fmul+0x30>
    321e:	4641      	mov	r1, r8
    3220:	2a02      	cmp	r2, #2
    3222:	d028      	beq.n	3276 <__aeabi_fmul+0xd2>
    3224:	2a03      	cmp	r2, #3
    3226:	d100      	bne.n	322a <__aeabi_fmul+0x86>
    3228:	e0ce      	b.n	33c8 <__aeabi_fmul+0x224>
    322a:	2a01      	cmp	r2, #1
    322c:	d000      	beq.n	3230 <__aeabi_fmul+0x8c>
    322e:	e0ac      	b.n	338a <__aeabi_fmul+0x1e6>
    3230:	4011      	ands	r1, r2
    3232:	2000      	movs	r0, #0
    3234:	2200      	movs	r2, #0
    3236:	b2cc      	uxtb	r4, r1
    3238:	0240      	lsls	r0, r0, #9
    323a:	05d2      	lsls	r2, r2, #23
    323c:	0a40      	lsrs	r0, r0, #9
    323e:	07e4      	lsls	r4, r4, #31
    3240:	4310      	orrs	r0, r2
    3242:	4320      	orrs	r0, r4
    3244:	bc3c      	pop	{r2, r3, r4, r5}
    3246:	4690      	mov	r8, r2
    3248:	4699      	mov	r9, r3
    324a:	46a2      	mov	sl, r4
    324c:	46ab      	mov	fp, r5
    324e:	bdf8      	pop	{r3, r4, r5, r6, r7, pc}
    3250:	2f00      	cmp	r7, #0
    3252:	d115      	bne.n	3280 <__aeabi_fmul+0xdc>
    3254:	2304      	movs	r3, #4
    3256:	4699      	mov	r9, r3
    3258:	3b03      	subs	r3, #3
    325a:	2600      	movs	r6, #0
    325c:	469a      	mov	sl, r3
    325e:	e7b9      	b.n	31d4 <__aeabi_fmul+0x30>
    3260:	20ff      	movs	r0, #255	; 0xff
    3262:	2202      	movs	r2, #2
    3264:	2d00      	cmp	r5, #0
    3266:	d0c5      	beq.n	31f4 <__aeabi_fmul+0x50>
    3268:	2203      	movs	r2, #3
    326a:	e7c3      	b.n	31f4 <__aeabi_fmul+0x50>
    326c:	2d00      	cmp	r5, #0
    326e:	d119      	bne.n	32a4 <__aeabi_fmul+0x100>
    3270:	2000      	movs	r0, #0
    3272:	2201      	movs	r2, #1
    3274:	e7be      	b.n	31f4 <__aeabi_fmul+0x50>
    3276:	2401      	movs	r4, #1
    3278:	22ff      	movs	r2, #255	; 0xff
    327a:	400c      	ands	r4, r1
    327c:	2000      	movs	r0, #0
    327e:	e7db      	b.n	3238 <__aeabi_fmul+0x94>
    3280:	0038      	movs	r0, r7
    3282:	f001 ff79 	bl	5178 <__clzsi2>
    3286:	2676      	movs	r6, #118	; 0x76
    3288:	1f43      	subs	r3, r0, #5
    328a:	409f      	lsls	r7, r3
    328c:	2300      	movs	r3, #0
    328e:	4276      	negs	r6, r6
    3290:	1a36      	subs	r6, r6, r0
    3292:	4699      	mov	r9, r3
    3294:	469a      	mov	sl, r3
    3296:	e79d      	b.n	31d4 <__aeabi_fmul+0x30>
    3298:	230c      	movs	r3, #12
    329a:	4699      	mov	r9, r3
    329c:	3b09      	subs	r3, #9
    329e:	26ff      	movs	r6, #255	; 0xff
    32a0:	469a      	mov	sl, r3
    32a2:	e797      	b.n	31d4 <__aeabi_fmul+0x30>
    32a4:	0028      	movs	r0, r5
    32a6:	f001 ff67 	bl	5178 <__clzsi2>
    32aa:	1f43      	subs	r3, r0, #5
    32ac:	409d      	lsls	r5, r3
    32ae:	2376      	movs	r3, #118	; 0x76
    32b0:	425b      	negs	r3, r3
    32b2:	1a18      	subs	r0, r3, r0
    32b4:	2200      	movs	r2, #0
    32b6:	e79d      	b.n	31f4 <__aeabi_fmul+0x50>
    32b8:	2080      	movs	r0, #128	; 0x80
    32ba:	2400      	movs	r4, #0
    32bc:	03c0      	lsls	r0, r0, #15
    32be:	22ff      	movs	r2, #255	; 0xff
    32c0:	e7ba      	b.n	3238 <__aeabi_fmul+0x94>
    32c2:	003d      	movs	r5, r7
    32c4:	4652      	mov	r2, sl
    32c6:	e7ab      	b.n	3220 <__aeabi_fmul+0x7c>
    32c8:	003d      	movs	r5, r7
    32ca:	0021      	movs	r1, r4
    32cc:	4652      	mov	r2, sl
    32ce:	e7a7      	b.n	3220 <__aeabi_fmul+0x7c>
    32d0:	0c3b      	lsrs	r3, r7, #16
    32d2:	469c      	mov	ip, r3
    32d4:	042a      	lsls	r2, r5, #16
    32d6:	0c12      	lsrs	r2, r2, #16
    32d8:	0c2b      	lsrs	r3, r5, #16
    32da:	0014      	movs	r4, r2
    32dc:	4660      	mov	r0, ip
    32de:	4665      	mov	r5, ip
    32e0:	043f      	lsls	r7, r7, #16
    32e2:	0c3f      	lsrs	r7, r7, #16
    32e4:	437c      	muls	r4, r7
    32e6:	4342      	muls	r2, r0
    32e8:	435d      	muls	r5, r3
    32ea:	437b      	muls	r3, r7
    32ec:	0c27      	lsrs	r7, r4, #16
    32ee:	189b      	adds	r3, r3, r2
    32f0:	18ff      	adds	r7, r7, r3
    32f2:	42ba      	cmp	r2, r7
    32f4:	d903      	bls.n	32fe <__aeabi_fmul+0x15a>
    32f6:	2380      	movs	r3, #128	; 0x80
    32f8:	025b      	lsls	r3, r3, #9
    32fa:	469c      	mov	ip, r3
    32fc:	4465      	add	r5, ip
    32fe:	0424      	lsls	r4, r4, #16
    3300:	043a      	lsls	r2, r7, #16
    3302:	0c24      	lsrs	r4, r4, #16
    3304:	1912      	adds	r2, r2, r4
    3306:	0193      	lsls	r3, r2, #6
    3308:	1e5c      	subs	r4, r3, #1
    330a:	41a3      	sbcs	r3, r4
    330c:	0c3f      	lsrs	r7, r7, #16
    330e:	0e92      	lsrs	r2, r2, #26
    3310:	197d      	adds	r5, r7, r5
    3312:	431a      	orrs	r2, r3
    3314:	01ad      	lsls	r5, r5, #6
    3316:	4315      	orrs	r5, r2
    3318:	012b      	lsls	r3, r5, #4
    331a:	d504      	bpl.n	3326 <__aeabi_fmul+0x182>
    331c:	2301      	movs	r3, #1
    331e:	465e      	mov	r6, fp
    3320:	086a      	lsrs	r2, r5, #1
    3322:	401d      	ands	r5, r3
    3324:	4315      	orrs	r5, r2
    3326:	0032      	movs	r2, r6
    3328:	327f      	adds	r2, #127	; 0x7f
    332a:	2a00      	cmp	r2, #0
    332c:	dd25      	ble.n	337a <__aeabi_fmul+0x1d6>
    332e:	076b      	lsls	r3, r5, #29
    3330:	d004      	beq.n	333c <__aeabi_fmul+0x198>
    3332:	230f      	movs	r3, #15
    3334:	402b      	ands	r3, r5
    3336:	2b04      	cmp	r3, #4
    3338:	d000      	beq.n	333c <__aeabi_fmul+0x198>
    333a:	3504      	adds	r5, #4
    333c:	012b      	lsls	r3, r5, #4
    333e:	d503      	bpl.n	3348 <__aeabi_fmul+0x1a4>
    3340:	0032      	movs	r2, r6
    3342:	4b27      	ldr	r3, [pc, #156]	; (33e0 <__aeabi_fmul+0x23c>)
    3344:	3280      	adds	r2, #128	; 0x80
    3346:	401d      	ands	r5, r3
    3348:	2afe      	cmp	r2, #254	; 0xfe
    334a:	dc94      	bgt.n	3276 <__aeabi_fmul+0xd2>
    334c:	2401      	movs	r4, #1
    334e:	01a8      	lsls	r0, r5, #6
    3350:	0a40      	lsrs	r0, r0, #9
    3352:	b2d2      	uxtb	r2, r2
    3354:	400c      	ands	r4, r1
    3356:	e76f      	b.n	3238 <__aeabi_fmul+0x94>
    3358:	2080      	movs	r0, #128	; 0x80
    335a:	03c0      	lsls	r0, r0, #15
    335c:	4207      	tst	r7, r0
    335e:	d007      	beq.n	3370 <__aeabi_fmul+0x1cc>
    3360:	4205      	tst	r5, r0
    3362:	d105      	bne.n	3370 <__aeabi_fmul+0x1cc>
    3364:	4328      	orrs	r0, r5
    3366:	0240      	lsls	r0, r0, #9
    3368:	0a40      	lsrs	r0, r0, #9
    336a:	4644      	mov	r4, r8
    336c:	22ff      	movs	r2, #255	; 0xff
    336e:	e763      	b.n	3238 <__aeabi_fmul+0x94>
    3370:	4338      	orrs	r0, r7
    3372:	0240      	lsls	r0, r0, #9
    3374:	0a40      	lsrs	r0, r0, #9
    3376:	22ff      	movs	r2, #255	; 0xff
    3378:	e75e      	b.n	3238 <__aeabi_fmul+0x94>
    337a:	2401      	movs	r4, #1
    337c:	1aa3      	subs	r3, r4, r2
    337e:	2b1b      	cmp	r3, #27
    3380:	dd05      	ble.n	338e <__aeabi_fmul+0x1ea>
    3382:	400c      	ands	r4, r1
    3384:	2200      	movs	r2, #0
    3386:	2000      	movs	r0, #0
    3388:	e756      	b.n	3238 <__aeabi_fmul+0x94>
    338a:	465e      	mov	r6, fp
    338c:	e7cb      	b.n	3326 <__aeabi_fmul+0x182>
    338e:	002a      	movs	r2, r5
    3390:	2020      	movs	r0, #32
    3392:	40da      	lsrs	r2, r3
    3394:	1ac3      	subs	r3, r0, r3
    3396:	409d      	lsls	r5, r3
    3398:	002b      	movs	r3, r5
    339a:	1e5d      	subs	r5, r3, #1
    339c:	41ab      	sbcs	r3, r5
    339e:	4313      	orrs	r3, r2
    33a0:	075a      	lsls	r2, r3, #29
    33a2:	d004      	beq.n	33ae <__aeabi_fmul+0x20a>
    33a4:	220f      	movs	r2, #15
    33a6:	401a      	ands	r2, r3
    33a8:	2a04      	cmp	r2, #4
    33aa:	d000      	beq.n	33ae <__aeabi_fmul+0x20a>
    33ac:	3304      	adds	r3, #4
    33ae:	015a      	lsls	r2, r3, #5
    33b0:	d504      	bpl.n	33bc <__aeabi_fmul+0x218>
    33b2:	2401      	movs	r4, #1
    33b4:	2201      	movs	r2, #1
    33b6:	400c      	ands	r4, r1
    33b8:	2000      	movs	r0, #0
    33ba:	e73d      	b.n	3238 <__aeabi_fmul+0x94>
    33bc:	2401      	movs	r4, #1
    33be:	019b      	lsls	r3, r3, #6
    33c0:	0a58      	lsrs	r0, r3, #9
    33c2:	400c      	ands	r4, r1
    33c4:	2200      	movs	r2, #0
    33c6:	e737      	b.n	3238 <__aeabi_fmul+0x94>
    33c8:	2080      	movs	r0, #128	; 0x80
    33ca:	2401      	movs	r4, #1
    33cc:	03c0      	lsls	r0, r0, #15
    33ce:	4328      	orrs	r0, r5
    33d0:	0240      	lsls	r0, r0, #9
    33d2:	0a40      	lsrs	r0, r0, #9
    33d4:	400c      	ands	r4, r1
    33d6:	22ff      	movs	r2, #255	; 0xff
    33d8:	e72e      	b.n	3238 <__aeabi_fmul+0x94>
    33da:	46c0      	nop			; (mov r8, r8)
    33dc:	0000a2a0 	.word	0x0000a2a0
    33e0:	f7ffffff 	.word	0xf7ffffff

000033e4 <__aeabi_ui2f>:
    33e4:	b510      	push	{r4, lr}
    33e6:	1e04      	subs	r4, r0, #0
    33e8:	d027      	beq.n	343a <__aeabi_ui2f+0x56>
    33ea:	f001 fec5 	bl	5178 <__clzsi2>
    33ee:	239e      	movs	r3, #158	; 0x9e
    33f0:	1a1b      	subs	r3, r3, r0
    33f2:	2b96      	cmp	r3, #150	; 0x96
    33f4:	dc0a      	bgt.n	340c <__aeabi_ui2f+0x28>
    33f6:	2296      	movs	r2, #150	; 0x96
    33f8:	1ad2      	subs	r2, r2, r3
    33fa:	4094      	lsls	r4, r2
    33fc:	0264      	lsls	r4, r4, #9
    33fe:	0a64      	lsrs	r4, r4, #9
    3400:	b2db      	uxtb	r3, r3
    3402:	0264      	lsls	r4, r4, #9
    3404:	05db      	lsls	r3, r3, #23
    3406:	0a60      	lsrs	r0, r4, #9
    3408:	4318      	orrs	r0, r3
    340a:	bd10      	pop	{r4, pc}
    340c:	2b99      	cmp	r3, #153	; 0x99
    340e:	dc17      	bgt.n	3440 <__aeabi_ui2f+0x5c>
    3410:	2299      	movs	r2, #153	; 0x99
    3412:	1ad2      	subs	r2, r2, r3
    3414:	2a00      	cmp	r2, #0
    3416:	dd27      	ble.n	3468 <__aeabi_ui2f+0x84>
    3418:	4094      	lsls	r4, r2
    341a:	0022      	movs	r2, r4
    341c:	4c13      	ldr	r4, [pc, #76]	; (346c <__aeabi_ui2f+0x88>)
    341e:	4014      	ands	r4, r2
    3420:	0751      	lsls	r1, r2, #29
    3422:	d004      	beq.n	342e <__aeabi_ui2f+0x4a>
    3424:	210f      	movs	r1, #15
    3426:	400a      	ands	r2, r1
    3428:	2a04      	cmp	r2, #4
    342a:	d000      	beq.n	342e <__aeabi_ui2f+0x4a>
    342c:	3404      	adds	r4, #4
    342e:	0162      	lsls	r2, r4, #5
    3430:	d412      	bmi.n	3458 <__aeabi_ui2f+0x74>
    3432:	01a4      	lsls	r4, r4, #6
    3434:	0a64      	lsrs	r4, r4, #9
    3436:	b2db      	uxtb	r3, r3
    3438:	e7e3      	b.n	3402 <__aeabi_ui2f+0x1e>
    343a:	2300      	movs	r3, #0
    343c:	2400      	movs	r4, #0
    343e:	e7e0      	b.n	3402 <__aeabi_ui2f+0x1e>
    3440:	22b9      	movs	r2, #185	; 0xb9
    3442:	0021      	movs	r1, r4
    3444:	1ad2      	subs	r2, r2, r3
    3446:	4091      	lsls	r1, r2
    3448:	000a      	movs	r2, r1
    344a:	1e51      	subs	r1, r2, #1
    344c:	418a      	sbcs	r2, r1
    344e:	2105      	movs	r1, #5
    3450:	1a09      	subs	r1, r1, r0
    3452:	40cc      	lsrs	r4, r1
    3454:	4314      	orrs	r4, r2
    3456:	e7db      	b.n	3410 <__aeabi_ui2f+0x2c>
    3458:	4b04      	ldr	r3, [pc, #16]	; (346c <__aeabi_ui2f+0x88>)
    345a:	401c      	ands	r4, r3
    345c:	239f      	movs	r3, #159	; 0x9f
    345e:	01a4      	lsls	r4, r4, #6
    3460:	1a1b      	subs	r3, r3, r0
    3462:	0a64      	lsrs	r4, r4, #9
    3464:	b2db      	uxtb	r3, r3
    3466:	e7cc      	b.n	3402 <__aeabi_ui2f+0x1e>
    3468:	0022      	movs	r2, r4
    346a:	e7d7      	b.n	341c <__aeabi_ui2f+0x38>
    346c:	fbffffff 	.word	0xfbffffff

00003470 <__aeabi_dadd>:
    3470:	b5f8      	push	{r3, r4, r5, r6, r7, lr}
    3472:	4645      	mov	r5, r8
    3474:	46de      	mov	lr, fp
    3476:	4657      	mov	r7, sl
    3478:	464e      	mov	r6, r9
    347a:	030c      	lsls	r4, r1, #12
    347c:	b5e0      	push	{r5, r6, r7, lr}
    347e:	004e      	lsls	r6, r1, #1
    3480:	0fc9      	lsrs	r1, r1, #31
    3482:	4688      	mov	r8, r1
    3484:	000d      	movs	r5, r1
    3486:	0a61      	lsrs	r1, r4, #9
    3488:	0f44      	lsrs	r4, r0, #29
    348a:	430c      	orrs	r4, r1
    348c:	00c7      	lsls	r7, r0, #3
    348e:	0319      	lsls	r1, r3, #12
    3490:	0058      	lsls	r0, r3, #1
    3492:	0fdb      	lsrs	r3, r3, #31
    3494:	469b      	mov	fp, r3
    3496:	0a4b      	lsrs	r3, r1, #9
    3498:	0f51      	lsrs	r1, r2, #29
    349a:	430b      	orrs	r3, r1
    349c:	0d76      	lsrs	r6, r6, #21
    349e:	0d40      	lsrs	r0, r0, #21
    34a0:	0019      	movs	r1, r3
    34a2:	00d2      	lsls	r2, r2, #3
    34a4:	45d8      	cmp	r8, fp
    34a6:	d100      	bne.n	34aa <__aeabi_dadd+0x3a>
    34a8:	e0ae      	b.n	3608 <__aeabi_dadd+0x198>
    34aa:	1a35      	subs	r5, r6, r0
    34ac:	2d00      	cmp	r5, #0
    34ae:	dc00      	bgt.n	34b2 <__aeabi_dadd+0x42>
    34b0:	e0f6      	b.n	36a0 <__aeabi_dadd+0x230>
    34b2:	2800      	cmp	r0, #0
    34b4:	d10f      	bne.n	34d6 <__aeabi_dadd+0x66>
    34b6:	4313      	orrs	r3, r2
    34b8:	d100      	bne.n	34bc <__aeabi_dadd+0x4c>
    34ba:	e0db      	b.n	3674 <__aeabi_dadd+0x204>
    34bc:	1e6b      	subs	r3, r5, #1
    34be:	2b00      	cmp	r3, #0
    34c0:	d000      	beq.n	34c4 <__aeabi_dadd+0x54>
    34c2:	e137      	b.n	3734 <__aeabi_dadd+0x2c4>
    34c4:	1aba      	subs	r2, r7, r2
    34c6:	4297      	cmp	r7, r2
    34c8:	41bf      	sbcs	r7, r7
    34ca:	1a64      	subs	r4, r4, r1
    34cc:	427f      	negs	r7, r7
    34ce:	1be4      	subs	r4, r4, r7
    34d0:	2601      	movs	r6, #1
    34d2:	0017      	movs	r7, r2
    34d4:	e024      	b.n	3520 <__aeabi_dadd+0xb0>
    34d6:	4bc6      	ldr	r3, [pc, #792]	; (37f0 <__aeabi_dadd+0x380>)
    34d8:	429e      	cmp	r6, r3
    34da:	d04d      	beq.n	3578 <__aeabi_dadd+0x108>
    34dc:	2380      	movs	r3, #128	; 0x80
    34de:	041b      	lsls	r3, r3, #16
    34e0:	4319      	orrs	r1, r3
    34e2:	2d38      	cmp	r5, #56	; 0x38
    34e4:	dd00      	ble.n	34e8 <__aeabi_dadd+0x78>
    34e6:	e107      	b.n	36f8 <__aeabi_dadd+0x288>
    34e8:	2d1f      	cmp	r5, #31
    34ea:	dd00      	ble.n	34ee <__aeabi_dadd+0x7e>
    34ec:	e138      	b.n	3760 <__aeabi_dadd+0x2f0>
    34ee:	2020      	movs	r0, #32
    34f0:	1b43      	subs	r3, r0, r5
    34f2:	469a      	mov	sl, r3
    34f4:	000b      	movs	r3, r1
    34f6:	4650      	mov	r0, sl
    34f8:	4083      	lsls	r3, r0
    34fa:	4699      	mov	r9, r3
    34fc:	0013      	movs	r3, r2
    34fe:	4648      	mov	r0, r9
    3500:	40eb      	lsrs	r3, r5
    3502:	4318      	orrs	r0, r3
    3504:	0003      	movs	r3, r0
    3506:	4650      	mov	r0, sl
    3508:	4082      	lsls	r2, r0
    350a:	1e50      	subs	r0, r2, #1
    350c:	4182      	sbcs	r2, r0
    350e:	40e9      	lsrs	r1, r5
    3510:	431a      	orrs	r2, r3
    3512:	1aba      	subs	r2, r7, r2
    3514:	1a61      	subs	r1, r4, r1
    3516:	4297      	cmp	r7, r2
    3518:	41a4      	sbcs	r4, r4
    351a:	0017      	movs	r7, r2
    351c:	4264      	negs	r4, r4
    351e:	1b0c      	subs	r4, r1, r4
    3520:	0223      	lsls	r3, r4, #8
    3522:	d562      	bpl.n	35ea <__aeabi_dadd+0x17a>
    3524:	0264      	lsls	r4, r4, #9
    3526:	0a65      	lsrs	r5, r4, #9
    3528:	2d00      	cmp	r5, #0
    352a:	d100      	bne.n	352e <__aeabi_dadd+0xbe>
    352c:	e0df      	b.n	36ee <__aeabi_dadd+0x27e>
    352e:	0028      	movs	r0, r5
    3530:	f001 fe22 	bl	5178 <__clzsi2>
    3534:	0003      	movs	r3, r0
    3536:	3b08      	subs	r3, #8
    3538:	2b1f      	cmp	r3, #31
    353a:	dd00      	ble.n	353e <__aeabi_dadd+0xce>
    353c:	e0d2      	b.n	36e4 <__aeabi_dadd+0x274>
    353e:	2220      	movs	r2, #32
    3540:	003c      	movs	r4, r7
    3542:	1ad2      	subs	r2, r2, r3
    3544:	409d      	lsls	r5, r3
    3546:	40d4      	lsrs	r4, r2
    3548:	409f      	lsls	r7, r3
    354a:	4325      	orrs	r5, r4
    354c:	429e      	cmp	r6, r3
    354e:	dd00      	ble.n	3552 <__aeabi_dadd+0xe2>
    3550:	e0c4      	b.n	36dc <__aeabi_dadd+0x26c>
    3552:	1b9e      	subs	r6, r3, r6
    3554:	1c73      	adds	r3, r6, #1
    3556:	2b1f      	cmp	r3, #31
    3558:	dd00      	ble.n	355c <__aeabi_dadd+0xec>
    355a:	e0f1      	b.n	3740 <__aeabi_dadd+0x2d0>
    355c:	2220      	movs	r2, #32
    355e:	0038      	movs	r0, r7
    3560:	0029      	movs	r1, r5
    3562:	1ad2      	subs	r2, r2, r3
    3564:	40d8      	lsrs	r0, r3
    3566:	4091      	lsls	r1, r2
    3568:	4097      	lsls	r7, r2
    356a:	002c      	movs	r4, r5
    356c:	4301      	orrs	r1, r0
    356e:	1e78      	subs	r0, r7, #1
    3570:	4187      	sbcs	r7, r0
    3572:	40dc      	lsrs	r4, r3
    3574:	2600      	movs	r6, #0
    3576:	430f      	orrs	r7, r1
    3578:	077b      	lsls	r3, r7, #29
    357a:	d009      	beq.n	3590 <__aeabi_dadd+0x120>
    357c:	230f      	movs	r3, #15
    357e:	403b      	ands	r3, r7
    3580:	2b04      	cmp	r3, #4
    3582:	d005      	beq.n	3590 <__aeabi_dadd+0x120>
    3584:	1d3b      	adds	r3, r7, #4
    3586:	42bb      	cmp	r3, r7
    3588:	41bf      	sbcs	r7, r7
    358a:	427f      	negs	r7, r7
    358c:	19e4      	adds	r4, r4, r7
    358e:	001f      	movs	r7, r3
    3590:	0223      	lsls	r3, r4, #8
    3592:	d52c      	bpl.n	35ee <__aeabi_dadd+0x17e>
    3594:	4b96      	ldr	r3, [pc, #600]	; (37f0 <__aeabi_dadd+0x380>)
    3596:	3601      	adds	r6, #1
    3598:	429e      	cmp	r6, r3
    359a:	d100      	bne.n	359e <__aeabi_dadd+0x12e>
    359c:	e09a      	b.n	36d4 <__aeabi_dadd+0x264>
    359e:	4645      	mov	r5, r8
    35a0:	4b94      	ldr	r3, [pc, #592]	; (37f4 <__aeabi_dadd+0x384>)
    35a2:	08ff      	lsrs	r7, r7, #3
    35a4:	401c      	ands	r4, r3
    35a6:	0760      	lsls	r0, r4, #29
    35a8:	0576      	lsls	r6, r6, #21
    35aa:	0264      	lsls	r4, r4, #9
    35ac:	4307      	orrs	r7, r0
    35ae:	0b24      	lsrs	r4, r4, #12
    35b0:	0d76      	lsrs	r6, r6, #21
    35b2:	2100      	movs	r1, #0
    35b4:	0324      	lsls	r4, r4, #12
    35b6:	0b23      	lsrs	r3, r4, #12
    35b8:	0d0c      	lsrs	r4, r1, #20
    35ba:	4a8f      	ldr	r2, [pc, #572]	; (37f8 <__aeabi_dadd+0x388>)
    35bc:	0524      	lsls	r4, r4, #20
    35be:	431c      	orrs	r4, r3
    35c0:	4014      	ands	r4, r2
    35c2:	0533      	lsls	r3, r6, #20
    35c4:	4323      	orrs	r3, r4
    35c6:	005b      	lsls	r3, r3, #1
    35c8:	07ed      	lsls	r5, r5, #31
    35ca:	085b      	lsrs	r3, r3, #1
    35cc:	432b      	orrs	r3, r5
    35ce:	0038      	movs	r0, r7
    35d0:	0019      	movs	r1, r3
    35d2:	bc3c      	pop	{r2, r3, r4, r5}
    35d4:	4690      	mov	r8, r2
    35d6:	4699      	mov	r9, r3
    35d8:	46a2      	mov	sl, r4
    35da:	46ab      	mov	fp, r5
    35dc:	bdf8      	pop	{r3, r4, r5, r6, r7, pc}
    35de:	4664      	mov	r4, ip
    35e0:	4304      	orrs	r4, r0
    35e2:	d100      	bne.n	35e6 <__aeabi_dadd+0x176>
    35e4:	e211      	b.n	3a0a <__aeabi_dadd+0x59a>
    35e6:	0004      	movs	r4, r0
    35e8:	4667      	mov	r7, ip
    35ea:	077b      	lsls	r3, r7, #29
    35ec:	d1c6      	bne.n	357c <__aeabi_dadd+0x10c>
    35ee:	4645      	mov	r5, r8
    35f0:	0760      	lsls	r0, r4, #29
    35f2:	08ff      	lsrs	r7, r7, #3
    35f4:	4307      	orrs	r7, r0
    35f6:	08e4      	lsrs	r4, r4, #3
    35f8:	4b7d      	ldr	r3, [pc, #500]	; (37f0 <__aeabi_dadd+0x380>)
    35fa:	429e      	cmp	r6, r3
    35fc:	d030      	beq.n	3660 <__aeabi_dadd+0x1f0>
    35fe:	0324      	lsls	r4, r4, #12
    3600:	0576      	lsls	r6, r6, #21
    3602:	0b24      	lsrs	r4, r4, #12
    3604:	0d76      	lsrs	r6, r6, #21
    3606:	e7d4      	b.n	35b2 <__aeabi_dadd+0x142>
    3608:	1a33      	subs	r3, r6, r0
    360a:	469a      	mov	sl, r3
    360c:	2b00      	cmp	r3, #0
    360e:	dd78      	ble.n	3702 <__aeabi_dadd+0x292>
    3610:	2800      	cmp	r0, #0
    3612:	d031      	beq.n	3678 <__aeabi_dadd+0x208>
    3614:	4876      	ldr	r0, [pc, #472]	; (37f0 <__aeabi_dadd+0x380>)
    3616:	4286      	cmp	r6, r0
    3618:	d0ae      	beq.n	3578 <__aeabi_dadd+0x108>
    361a:	2080      	movs	r0, #128	; 0x80
    361c:	0400      	lsls	r0, r0, #16
    361e:	4301      	orrs	r1, r0
    3620:	4653      	mov	r3, sl
    3622:	2b38      	cmp	r3, #56	; 0x38
    3624:	dc00      	bgt.n	3628 <__aeabi_dadd+0x1b8>
    3626:	e0e9      	b.n	37fc <__aeabi_dadd+0x38c>
    3628:	430a      	orrs	r2, r1
    362a:	1e51      	subs	r1, r2, #1
    362c:	418a      	sbcs	r2, r1
    362e:	2100      	movs	r1, #0
    3630:	19d2      	adds	r2, r2, r7
    3632:	42ba      	cmp	r2, r7
    3634:	41bf      	sbcs	r7, r7
    3636:	1909      	adds	r1, r1, r4
    3638:	427c      	negs	r4, r7
    363a:	0017      	movs	r7, r2
    363c:	190c      	adds	r4, r1, r4
    363e:	0223      	lsls	r3, r4, #8
    3640:	d5d3      	bpl.n	35ea <__aeabi_dadd+0x17a>
    3642:	4b6b      	ldr	r3, [pc, #428]	; (37f0 <__aeabi_dadd+0x380>)
    3644:	3601      	adds	r6, #1
    3646:	429e      	cmp	r6, r3
    3648:	d100      	bne.n	364c <__aeabi_dadd+0x1dc>
    364a:	e13a      	b.n	38c2 <__aeabi_dadd+0x452>
    364c:	2001      	movs	r0, #1
    364e:	4b69      	ldr	r3, [pc, #420]	; (37f4 <__aeabi_dadd+0x384>)
    3650:	401c      	ands	r4, r3
    3652:	087b      	lsrs	r3, r7, #1
    3654:	4007      	ands	r7, r0
    3656:	431f      	orrs	r7, r3
    3658:	07e0      	lsls	r0, r4, #31
    365a:	4307      	orrs	r7, r0
    365c:	0864      	lsrs	r4, r4, #1
    365e:	e78b      	b.n	3578 <__aeabi_dadd+0x108>
    3660:	0023      	movs	r3, r4
    3662:	433b      	orrs	r3, r7
    3664:	d100      	bne.n	3668 <__aeabi_dadd+0x1f8>
    3666:	e1cb      	b.n	3a00 <__aeabi_dadd+0x590>
    3668:	2280      	movs	r2, #128	; 0x80
    366a:	0312      	lsls	r2, r2, #12
    366c:	4314      	orrs	r4, r2
    366e:	0324      	lsls	r4, r4, #12
    3670:	0b24      	lsrs	r4, r4, #12
    3672:	e79e      	b.n	35b2 <__aeabi_dadd+0x142>
    3674:	002e      	movs	r6, r5
    3676:	e77f      	b.n	3578 <__aeabi_dadd+0x108>
    3678:	0008      	movs	r0, r1
    367a:	4310      	orrs	r0, r2
    367c:	d100      	bne.n	3680 <__aeabi_dadd+0x210>
    367e:	e0b4      	b.n	37ea <__aeabi_dadd+0x37a>
    3680:	1e58      	subs	r0, r3, #1
    3682:	2800      	cmp	r0, #0
    3684:	d000      	beq.n	3688 <__aeabi_dadd+0x218>
    3686:	e0de      	b.n	3846 <__aeabi_dadd+0x3d6>
    3688:	18ba      	adds	r2, r7, r2
    368a:	42ba      	cmp	r2, r7
    368c:	419b      	sbcs	r3, r3
    368e:	1864      	adds	r4, r4, r1
    3690:	425b      	negs	r3, r3
    3692:	18e4      	adds	r4, r4, r3
    3694:	0017      	movs	r7, r2
    3696:	2601      	movs	r6, #1
    3698:	0223      	lsls	r3, r4, #8
    369a:	d5a6      	bpl.n	35ea <__aeabi_dadd+0x17a>
    369c:	2602      	movs	r6, #2
    369e:	e7d5      	b.n	364c <__aeabi_dadd+0x1dc>
    36a0:	2d00      	cmp	r5, #0
    36a2:	d16e      	bne.n	3782 <__aeabi_dadd+0x312>
    36a4:	1c70      	adds	r0, r6, #1
    36a6:	0540      	lsls	r0, r0, #21
    36a8:	0d40      	lsrs	r0, r0, #21
    36aa:	2801      	cmp	r0, #1
    36ac:	dc00      	bgt.n	36b0 <__aeabi_dadd+0x240>
    36ae:	e0f9      	b.n	38a4 <__aeabi_dadd+0x434>
    36b0:	1ab8      	subs	r0, r7, r2
    36b2:	4684      	mov	ip, r0
    36b4:	4287      	cmp	r7, r0
    36b6:	4180      	sbcs	r0, r0
    36b8:	1ae5      	subs	r5, r4, r3
    36ba:	4240      	negs	r0, r0
    36bc:	1a2d      	subs	r5, r5, r0
    36be:	0228      	lsls	r0, r5, #8
    36c0:	d400      	bmi.n	36c4 <__aeabi_dadd+0x254>
    36c2:	e089      	b.n	37d8 <__aeabi_dadd+0x368>
    36c4:	1bd7      	subs	r7, r2, r7
    36c6:	42ba      	cmp	r2, r7
    36c8:	4192      	sbcs	r2, r2
    36ca:	1b1c      	subs	r4, r3, r4
    36cc:	4252      	negs	r2, r2
    36ce:	1aa5      	subs	r5, r4, r2
    36d0:	46d8      	mov	r8, fp
    36d2:	e729      	b.n	3528 <__aeabi_dadd+0xb8>
    36d4:	4645      	mov	r5, r8
    36d6:	2400      	movs	r4, #0
    36d8:	2700      	movs	r7, #0
    36da:	e76a      	b.n	35b2 <__aeabi_dadd+0x142>
    36dc:	4c45      	ldr	r4, [pc, #276]	; (37f4 <__aeabi_dadd+0x384>)
    36de:	1af6      	subs	r6, r6, r3
    36e0:	402c      	ands	r4, r5
    36e2:	e749      	b.n	3578 <__aeabi_dadd+0x108>
    36e4:	003d      	movs	r5, r7
    36e6:	3828      	subs	r0, #40	; 0x28
    36e8:	4085      	lsls	r5, r0
    36ea:	2700      	movs	r7, #0
    36ec:	e72e      	b.n	354c <__aeabi_dadd+0xdc>
    36ee:	0038      	movs	r0, r7
    36f0:	f001 fd42 	bl	5178 <__clzsi2>
    36f4:	3020      	adds	r0, #32
    36f6:	e71d      	b.n	3534 <__aeabi_dadd+0xc4>
    36f8:	430a      	orrs	r2, r1
    36fa:	1e51      	subs	r1, r2, #1
    36fc:	418a      	sbcs	r2, r1
    36fe:	2100      	movs	r1, #0
    3700:	e707      	b.n	3512 <__aeabi_dadd+0xa2>
    3702:	2b00      	cmp	r3, #0
    3704:	d000      	beq.n	3708 <__aeabi_dadd+0x298>
    3706:	e0f3      	b.n	38f0 <__aeabi_dadd+0x480>
    3708:	1c70      	adds	r0, r6, #1
    370a:	0543      	lsls	r3, r0, #21
    370c:	0d5b      	lsrs	r3, r3, #21
    370e:	2b01      	cmp	r3, #1
    3710:	dc00      	bgt.n	3714 <__aeabi_dadd+0x2a4>
    3712:	e0ad      	b.n	3870 <__aeabi_dadd+0x400>
    3714:	4b36      	ldr	r3, [pc, #216]	; (37f0 <__aeabi_dadd+0x380>)
    3716:	4298      	cmp	r0, r3
    3718:	d100      	bne.n	371c <__aeabi_dadd+0x2ac>
    371a:	e0d1      	b.n	38c0 <__aeabi_dadd+0x450>
    371c:	18ba      	adds	r2, r7, r2
    371e:	42ba      	cmp	r2, r7
    3720:	41bf      	sbcs	r7, r7
    3722:	1864      	adds	r4, r4, r1
    3724:	427f      	negs	r7, r7
    3726:	19e4      	adds	r4, r4, r7
    3728:	07e7      	lsls	r7, r4, #31
    372a:	0852      	lsrs	r2, r2, #1
    372c:	4317      	orrs	r7, r2
    372e:	0864      	lsrs	r4, r4, #1
    3730:	0006      	movs	r6, r0
    3732:	e721      	b.n	3578 <__aeabi_dadd+0x108>
    3734:	482e      	ldr	r0, [pc, #184]	; (37f0 <__aeabi_dadd+0x380>)
    3736:	4285      	cmp	r5, r0
    3738:	d100      	bne.n	373c <__aeabi_dadd+0x2cc>
    373a:	e093      	b.n	3864 <__aeabi_dadd+0x3f4>
    373c:	001d      	movs	r5, r3
    373e:	e6d0      	b.n	34e2 <__aeabi_dadd+0x72>
    3740:	0029      	movs	r1, r5
    3742:	3e1f      	subs	r6, #31
    3744:	40f1      	lsrs	r1, r6
    3746:	2b20      	cmp	r3, #32
    3748:	d100      	bne.n	374c <__aeabi_dadd+0x2dc>
    374a:	e08d      	b.n	3868 <__aeabi_dadd+0x3f8>
    374c:	2240      	movs	r2, #64	; 0x40
    374e:	1ad3      	subs	r3, r2, r3
    3750:	409d      	lsls	r5, r3
    3752:	432f      	orrs	r7, r5
    3754:	1e7d      	subs	r5, r7, #1
    3756:	41af      	sbcs	r7, r5
    3758:	2400      	movs	r4, #0
    375a:	430f      	orrs	r7, r1
    375c:	2600      	movs	r6, #0
    375e:	e744      	b.n	35ea <__aeabi_dadd+0x17a>
    3760:	002b      	movs	r3, r5
    3762:	0008      	movs	r0, r1
    3764:	3b20      	subs	r3, #32
    3766:	40d8      	lsrs	r0, r3
    3768:	0003      	movs	r3, r0
    376a:	2d20      	cmp	r5, #32
    376c:	d100      	bne.n	3770 <__aeabi_dadd+0x300>
    376e:	e07d      	b.n	386c <__aeabi_dadd+0x3fc>
    3770:	2040      	movs	r0, #64	; 0x40
    3772:	1b45      	subs	r5, r0, r5
    3774:	40a9      	lsls	r1, r5
    3776:	430a      	orrs	r2, r1
    3778:	1e51      	subs	r1, r2, #1
    377a:	418a      	sbcs	r2, r1
    377c:	2100      	movs	r1, #0
    377e:	431a      	orrs	r2, r3
    3780:	e6c7      	b.n	3512 <__aeabi_dadd+0xa2>
    3782:	2e00      	cmp	r6, #0
    3784:	d050      	beq.n	3828 <__aeabi_dadd+0x3b8>
    3786:	4e1a      	ldr	r6, [pc, #104]	; (37f0 <__aeabi_dadd+0x380>)
    3788:	42b0      	cmp	r0, r6
    378a:	d057      	beq.n	383c <__aeabi_dadd+0x3cc>
    378c:	2680      	movs	r6, #128	; 0x80
    378e:	426b      	negs	r3, r5
    3790:	4699      	mov	r9, r3
    3792:	0436      	lsls	r6, r6, #16
    3794:	4334      	orrs	r4, r6
    3796:	464b      	mov	r3, r9
    3798:	2b38      	cmp	r3, #56	; 0x38
    379a:	dd00      	ble.n	379e <__aeabi_dadd+0x32e>
    379c:	e0d6      	b.n	394c <__aeabi_dadd+0x4dc>
    379e:	2b1f      	cmp	r3, #31
    37a0:	dd00      	ble.n	37a4 <__aeabi_dadd+0x334>
    37a2:	e135      	b.n	3a10 <__aeabi_dadd+0x5a0>
    37a4:	2620      	movs	r6, #32
    37a6:	1af5      	subs	r5, r6, r3
    37a8:	0026      	movs	r6, r4
    37aa:	40ae      	lsls	r6, r5
    37ac:	46b2      	mov	sl, r6
    37ae:	003e      	movs	r6, r7
    37b0:	40de      	lsrs	r6, r3
    37b2:	46ac      	mov	ip, r5
    37b4:	0035      	movs	r5, r6
    37b6:	4656      	mov	r6, sl
    37b8:	432e      	orrs	r6, r5
    37ba:	4665      	mov	r5, ip
    37bc:	40af      	lsls	r7, r5
    37be:	1e7d      	subs	r5, r7, #1
    37c0:	41af      	sbcs	r7, r5
    37c2:	40dc      	lsrs	r4, r3
    37c4:	4337      	orrs	r7, r6
    37c6:	1bd7      	subs	r7, r2, r7
    37c8:	42ba      	cmp	r2, r7
    37ca:	4192      	sbcs	r2, r2
    37cc:	1b0c      	subs	r4, r1, r4
    37ce:	4252      	negs	r2, r2
    37d0:	1aa4      	subs	r4, r4, r2
    37d2:	0006      	movs	r6, r0
    37d4:	46d8      	mov	r8, fp
    37d6:	e6a3      	b.n	3520 <__aeabi_dadd+0xb0>
    37d8:	4664      	mov	r4, ip
    37da:	4667      	mov	r7, ip
    37dc:	432c      	orrs	r4, r5
    37de:	d000      	beq.n	37e2 <__aeabi_dadd+0x372>
    37e0:	e6a2      	b.n	3528 <__aeabi_dadd+0xb8>
    37e2:	2500      	movs	r5, #0
    37e4:	2600      	movs	r6, #0
    37e6:	2700      	movs	r7, #0
    37e8:	e706      	b.n	35f8 <__aeabi_dadd+0x188>
    37ea:	001e      	movs	r6, r3
    37ec:	e6c4      	b.n	3578 <__aeabi_dadd+0x108>
    37ee:	46c0      	nop			; (mov r8, r8)
    37f0:	000007ff 	.word	0x000007ff
    37f4:	ff7fffff 	.word	0xff7fffff
    37f8:	800fffff 	.word	0x800fffff
    37fc:	2b1f      	cmp	r3, #31
    37fe:	dc63      	bgt.n	38c8 <__aeabi_dadd+0x458>
    3800:	2020      	movs	r0, #32
    3802:	1ac3      	subs	r3, r0, r3
    3804:	0008      	movs	r0, r1
    3806:	4098      	lsls	r0, r3
    3808:	469c      	mov	ip, r3
    380a:	4683      	mov	fp, r0
    380c:	4653      	mov	r3, sl
    380e:	0010      	movs	r0, r2
    3810:	40d8      	lsrs	r0, r3
    3812:	0003      	movs	r3, r0
    3814:	4658      	mov	r0, fp
    3816:	4318      	orrs	r0, r3
    3818:	4663      	mov	r3, ip
    381a:	409a      	lsls	r2, r3
    381c:	1e53      	subs	r3, r2, #1
    381e:	419a      	sbcs	r2, r3
    3820:	4653      	mov	r3, sl
    3822:	4302      	orrs	r2, r0
    3824:	40d9      	lsrs	r1, r3
    3826:	e703      	b.n	3630 <__aeabi_dadd+0x1c0>
    3828:	0026      	movs	r6, r4
    382a:	433e      	orrs	r6, r7
    382c:	d006      	beq.n	383c <__aeabi_dadd+0x3cc>
    382e:	43eb      	mvns	r3, r5
    3830:	4699      	mov	r9, r3
    3832:	2b00      	cmp	r3, #0
    3834:	d0c7      	beq.n	37c6 <__aeabi_dadd+0x356>
    3836:	4e94      	ldr	r6, [pc, #592]	; (3a88 <__aeabi_dadd+0x618>)
    3838:	42b0      	cmp	r0, r6
    383a:	d1ac      	bne.n	3796 <__aeabi_dadd+0x326>
    383c:	000c      	movs	r4, r1
    383e:	0017      	movs	r7, r2
    3840:	0006      	movs	r6, r0
    3842:	46d8      	mov	r8, fp
    3844:	e698      	b.n	3578 <__aeabi_dadd+0x108>
    3846:	4b90      	ldr	r3, [pc, #576]	; (3a88 <__aeabi_dadd+0x618>)
    3848:	459a      	cmp	sl, r3
    384a:	d00b      	beq.n	3864 <__aeabi_dadd+0x3f4>
    384c:	4682      	mov	sl, r0
    384e:	e6e7      	b.n	3620 <__aeabi_dadd+0x1b0>
    3850:	2800      	cmp	r0, #0
    3852:	d000      	beq.n	3856 <__aeabi_dadd+0x3e6>
    3854:	e09e      	b.n	3994 <__aeabi_dadd+0x524>
    3856:	0018      	movs	r0, r3
    3858:	4310      	orrs	r0, r2
    385a:	d100      	bne.n	385e <__aeabi_dadd+0x3ee>
    385c:	e0e9      	b.n	3a32 <__aeabi_dadd+0x5c2>
    385e:	001c      	movs	r4, r3
    3860:	0017      	movs	r7, r2
    3862:	46d8      	mov	r8, fp
    3864:	4e88      	ldr	r6, [pc, #544]	; (3a88 <__aeabi_dadd+0x618>)
    3866:	e687      	b.n	3578 <__aeabi_dadd+0x108>
    3868:	2500      	movs	r5, #0
    386a:	e772      	b.n	3752 <__aeabi_dadd+0x2e2>
    386c:	2100      	movs	r1, #0
    386e:	e782      	b.n	3776 <__aeabi_dadd+0x306>
    3870:	0023      	movs	r3, r4
    3872:	433b      	orrs	r3, r7
    3874:	2e00      	cmp	r6, #0
    3876:	d000      	beq.n	387a <__aeabi_dadd+0x40a>
    3878:	e0ab      	b.n	39d2 <__aeabi_dadd+0x562>
    387a:	2b00      	cmp	r3, #0
    387c:	d100      	bne.n	3880 <__aeabi_dadd+0x410>
    387e:	e0e7      	b.n	3a50 <__aeabi_dadd+0x5e0>
    3880:	000b      	movs	r3, r1
    3882:	4313      	orrs	r3, r2
    3884:	d100      	bne.n	3888 <__aeabi_dadd+0x418>
    3886:	e677      	b.n	3578 <__aeabi_dadd+0x108>
    3888:	18ba      	adds	r2, r7, r2
    388a:	42ba      	cmp	r2, r7
    388c:	41bf      	sbcs	r7, r7
    388e:	1864      	adds	r4, r4, r1
    3890:	427f      	negs	r7, r7
    3892:	19e4      	adds	r4, r4, r7
    3894:	0223      	lsls	r3, r4, #8
    3896:	d400      	bmi.n	389a <__aeabi_dadd+0x42a>
    3898:	e0f2      	b.n	3a80 <__aeabi_dadd+0x610>
    389a:	4b7c      	ldr	r3, [pc, #496]	; (3a8c <__aeabi_dadd+0x61c>)
    389c:	0017      	movs	r7, r2
    389e:	401c      	ands	r4, r3
    38a0:	0006      	movs	r6, r0
    38a2:	e669      	b.n	3578 <__aeabi_dadd+0x108>
    38a4:	0020      	movs	r0, r4
    38a6:	4338      	orrs	r0, r7
    38a8:	2e00      	cmp	r6, #0
    38aa:	d1d1      	bne.n	3850 <__aeabi_dadd+0x3e0>
    38ac:	2800      	cmp	r0, #0
    38ae:	d15b      	bne.n	3968 <__aeabi_dadd+0x4f8>
    38b0:	001c      	movs	r4, r3
    38b2:	4314      	orrs	r4, r2
    38b4:	d100      	bne.n	38b8 <__aeabi_dadd+0x448>
    38b6:	e0a8      	b.n	3a0a <__aeabi_dadd+0x59a>
    38b8:	001c      	movs	r4, r3
    38ba:	0017      	movs	r7, r2
    38bc:	46d8      	mov	r8, fp
    38be:	e65b      	b.n	3578 <__aeabi_dadd+0x108>
    38c0:	0006      	movs	r6, r0
    38c2:	2400      	movs	r4, #0
    38c4:	2700      	movs	r7, #0
    38c6:	e697      	b.n	35f8 <__aeabi_dadd+0x188>
    38c8:	4650      	mov	r0, sl
    38ca:	000b      	movs	r3, r1
    38cc:	3820      	subs	r0, #32
    38ce:	40c3      	lsrs	r3, r0
    38d0:	4699      	mov	r9, r3
    38d2:	4653      	mov	r3, sl
    38d4:	2b20      	cmp	r3, #32
    38d6:	d100      	bne.n	38da <__aeabi_dadd+0x46a>
    38d8:	e095      	b.n	3a06 <__aeabi_dadd+0x596>
    38da:	2340      	movs	r3, #64	; 0x40
    38dc:	4650      	mov	r0, sl
    38de:	1a1b      	subs	r3, r3, r0
    38e0:	4099      	lsls	r1, r3
    38e2:	430a      	orrs	r2, r1
    38e4:	1e51      	subs	r1, r2, #1
    38e6:	418a      	sbcs	r2, r1
    38e8:	464b      	mov	r3, r9
    38ea:	2100      	movs	r1, #0
    38ec:	431a      	orrs	r2, r3
    38ee:	e69f      	b.n	3630 <__aeabi_dadd+0x1c0>
    38f0:	2e00      	cmp	r6, #0
    38f2:	d130      	bne.n	3956 <__aeabi_dadd+0x4e6>
    38f4:	0026      	movs	r6, r4
    38f6:	433e      	orrs	r6, r7
    38f8:	d067      	beq.n	39ca <__aeabi_dadd+0x55a>
    38fa:	43db      	mvns	r3, r3
    38fc:	469a      	mov	sl, r3
    38fe:	2b00      	cmp	r3, #0
    3900:	d01c      	beq.n	393c <__aeabi_dadd+0x4cc>
    3902:	4e61      	ldr	r6, [pc, #388]	; (3a88 <__aeabi_dadd+0x618>)
    3904:	42b0      	cmp	r0, r6
    3906:	d060      	beq.n	39ca <__aeabi_dadd+0x55a>
    3908:	4653      	mov	r3, sl
    390a:	2b38      	cmp	r3, #56	; 0x38
    390c:	dd00      	ble.n	3910 <__aeabi_dadd+0x4a0>
    390e:	e096      	b.n	3a3e <__aeabi_dadd+0x5ce>
    3910:	2b1f      	cmp	r3, #31
    3912:	dd00      	ble.n	3916 <__aeabi_dadd+0x4a6>
    3914:	e09f      	b.n	3a56 <__aeabi_dadd+0x5e6>
    3916:	2620      	movs	r6, #32
    3918:	1af3      	subs	r3, r6, r3
    391a:	0026      	movs	r6, r4
    391c:	409e      	lsls	r6, r3
    391e:	469c      	mov	ip, r3
    3920:	46b3      	mov	fp, r6
    3922:	4653      	mov	r3, sl
    3924:	003e      	movs	r6, r7
    3926:	40de      	lsrs	r6, r3
    3928:	0033      	movs	r3, r6
    392a:	465e      	mov	r6, fp
    392c:	431e      	orrs	r6, r3
    392e:	4663      	mov	r3, ip
    3930:	409f      	lsls	r7, r3
    3932:	1e7b      	subs	r3, r7, #1
    3934:	419f      	sbcs	r7, r3
    3936:	4653      	mov	r3, sl
    3938:	40dc      	lsrs	r4, r3
    393a:	4337      	orrs	r7, r6
    393c:	18bf      	adds	r7, r7, r2
    393e:	4297      	cmp	r7, r2
    3940:	4192      	sbcs	r2, r2
    3942:	1864      	adds	r4, r4, r1
    3944:	4252      	negs	r2, r2
    3946:	18a4      	adds	r4, r4, r2
    3948:	0006      	movs	r6, r0
    394a:	e678      	b.n	363e <__aeabi_dadd+0x1ce>
    394c:	4327      	orrs	r7, r4
    394e:	1e7c      	subs	r4, r7, #1
    3950:	41a7      	sbcs	r7, r4
    3952:	2400      	movs	r4, #0
    3954:	e737      	b.n	37c6 <__aeabi_dadd+0x356>
    3956:	4e4c      	ldr	r6, [pc, #304]	; (3a88 <__aeabi_dadd+0x618>)
    3958:	42b0      	cmp	r0, r6
    395a:	d036      	beq.n	39ca <__aeabi_dadd+0x55a>
    395c:	2680      	movs	r6, #128	; 0x80
    395e:	425b      	negs	r3, r3
    3960:	0436      	lsls	r6, r6, #16
    3962:	469a      	mov	sl, r3
    3964:	4334      	orrs	r4, r6
    3966:	e7cf      	b.n	3908 <__aeabi_dadd+0x498>
    3968:	0018      	movs	r0, r3
    396a:	4310      	orrs	r0, r2
    396c:	d100      	bne.n	3970 <__aeabi_dadd+0x500>
    396e:	e603      	b.n	3578 <__aeabi_dadd+0x108>
    3970:	1ab8      	subs	r0, r7, r2
    3972:	4684      	mov	ip, r0
    3974:	4567      	cmp	r7, ip
    3976:	41ad      	sbcs	r5, r5
    3978:	1ae0      	subs	r0, r4, r3
    397a:	426d      	negs	r5, r5
    397c:	1b40      	subs	r0, r0, r5
    397e:	0205      	lsls	r5, r0, #8
    3980:	d400      	bmi.n	3984 <__aeabi_dadd+0x514>
    3982:	e62c      	b.n	35de <__aeabi_dadd+0x16e>
    3984:	1bd7      	subs	r7, r2, r7
    3986:	42ba      	cmp	r2, r7
    3988:	4192      	sbcs	r2, r2
    398a:	1b1c      	subs	r4, r3, r4
    398c:	4252      	negs	r2, r2
    398e:	1aa4      	subs	r4, r4, r2
    3990:	46d8      	mov	r8, fp
    3992:	e5f1      	b.n	3578 <__aeabi_dadd+0x108>
    3994:	0018      	movs	r0, r3
    3996:	4310      	orrs	r0, r2
    3998:	d100      	bne.n	399c <__aeabi_dadd+0x52c>
    399a:	e763      	b.n	3864 <__aeabi_dadd+0x3f4>
    399c:	08f8      	lsrs	r0, r7, #3
    399e:	0767      	lsls	r7, r4, #29
    39a0:	4307      	orrs	r7, r0
    39a2:	2080      	movs	r0, #128	; 0x80
    39a4:	08e4      	lsrs	r4, r4, #3
    39a6:	0300      	lsls	r0, r0, #12
    39a8:	4204      	tst	r4, r0
    39aa:	d008      	beq.n	39be <__aeabi_dadd+0x54e>
    39ac:	08dd      	lsrs	r5, r3, #3
    39ae:	4205      	tst	r5, r0
    39b0:	d105      	bne.n	39be <__aeabi_dadd+0x54e>
    39b2:	08d2      	lsrs	r2, r2, #3
    39b4:	0759      	lsls	r1, r3, #29
    39b6:	4311      	orrs	r1, r2
    39b8:	000f      	movs	r7, r1
    39ba:	002c      	movs	r4, r5
    39bc:	46d8      	mov	r8, fp
    39be:	0f7b      	lsrs	r3, r7, #29
    39c0:	00e4      	lsls	r4, r4, #3
    39c2:	431c      	orrs	r4, r3
    39c4:	00ff      	lsls	r7, r7, #3
    39c6:	4e30      	ldr	r6, [pc, #192]	; (3a88 <__aeabi_dadd+0x618>)
    39c8:	e5d6      	b.n	3578 <__aeabi_dadd+0x108>
    39ca:	000c      	movs	r4, r1
    39cc:	0017      	movs	r7, r2
    39ce:	0006      	movs	r6, r0
    39d0:	e5d2      	b.n	3578 <__aeabi_dadd+0x108>
    39d2:	2b00      	cmp	r3, #0
    39d4:	d038      	beq.n	3a48 <__aeabi_dadd+0x5d8>
    39d6:	000b      	movs	r3, r1
    39d8:	4313      	orrs	r3, r2
    39da:	d100      	bne.n	39de <__aeabi_dadd+0x56e>
    39dc:	e742      	b.n	3864 <__aeabi_dadd+0x3f4>
    39de:	08f8      	lsrs	r0, r7, #3
    39e0:	0767      	lsls	r7, r4, #29
    39e2:	4307      	orrs	r7, r0
    39e4:	2080      	movs	r0, #128	; 0x80
    39e6:	08e4      	lsrs	r4, r4, #3
    39e8:	0300      	lsls	r0, r0, #12
    39ea:	4204      	tst	r4, r0
    39ec:	d0e7      	beq.n	39be <__aeabi_dadd+0x54e>
    39ee:	08cb      	lsrs	r3, r1, #3
    39f0:	4203      	tst	r3, r0
    39f2:	d1e4      	bne.n	39be <__aeabi_dadd+0x54e>
    39f4:	08d2      	lsrs	r2, r2, #3
    39f6:	0749      	lsls	r1, r1, #29
    39f8:	4311      	orrs	r1, r2
    39fa:	000f      	movs	r7, r1
    39fc:	001c      	movs	r4, r3
    39fe:	e7de      	b.n	39be <__aeabi_dadd+0x54e>
    3a00:	2700      	movs	r7, #0
    3a02:	2400      	movs	r4, #0
    3a04:	e5d5      	b.n	35b2 <__aeabi_dadd+0x142>
    3a06:	2100      	movs	r1, #0
    3a08:	e76b      	b.n	38e2 <__aeabi_dadd+0x472>
    3a0a:	2500      	movs	r5, #0
    3a0c:	2700      	movs	r7, #0
    3a0e:	e5f3      	b.n	35f8 <__aeabi_dadd+0x188>
    3a10:	464e      	mov	r6, r9
    3a12:	0025      	movs	r5, r4
    3a14:	3e20      	subs	r6, #32
    3a16:	40f5      	lsrs	r5, r6
    3a18:	464b      	mov	r3, r9
    3a1a:	002e      	movs	r6, r5
    3a1c:	2b20      	cmp	r3, #32
    3a1e:	d02d      	beq.n	3a7c <__aeabi_dadd+0x60c>
    3a20:	2540      	movs	r5, #64	; 0x40
    3a22:	1aed      	subs	r5, r5, r3
    3a24:	40ac      	lsls	r4, r5
    3a26:	4327      	orrs	r7, r4
    3a28:	1e7c      	subs	r4, r7, #1
    3a2a:	41a7      	sbcs	r7, r4
    3a2c:	2400      	movs	r4, #0
    3a2e:	4337      	orrs	r7, r6
    3a30:	e6c9      	b.n	37c6 <__aeabi_dadd+0x356>
    3a32:	2480      	movs	r4, #128	; 0x80
    3a34:	2500      	movs	r5, #0
    3a36:	0324      	lsls	r4, r4, #12
    3a38:	4e13      	ldr	r6, [pc, #76]	; (3a88 <__aeabi_dadd+0x618>)
    3a3a:	2700      	movs	r7, #0
    3a3c:	e5dc      	b.n	35f8 <__aeabi_dadd+0x188>
    3a3e:	4327      	orrs	r7, r4
    3a40:	1e7c      	subs	r4, r7, #1
    3a42:	41a7      	sbcs	r7, r4
    3a44:	2400      	movs	r4, #0
    3a46:	e779      	b.n	393c <__aeabi_dadd+0x4cc>
    3a48:	000c      	movs	r4, r1
    3a4a:	0017      	movs	r7, r2
    3a4c:	4e0e      	ldr	r6, [pc, #56]	; (3a88 <__aeabi_dadd+0x618>)
    3a4e:	e593      	b.n	3578 <__aeabi_dadd+0x108>
    3a50:	000c      	movs	r4, r1
    3a52:	0017      	movs	r7, r2
    3a54:	e590      	b.n	3578 <__aeabi_dadd+0x108>
    3a56:	4656      	mov	r6, sl
    3a58:	0023      	movs	r3, r4
    3a5a:	3e20      	subs	r6, #32
    3a5c:	40f3      	lsrs	r3, r6
    3a5e:	4699      	mov	r9, r3
    3a60:	4653      	mov	r3, sl
    3a62:	2b20      	cmp	r3, #32
    3a64:	d00e      	beq.n	3a84 <__aeabi_dadd+0x614>
    3a66:	2340      	movs	r3, #64	; 0x40
    3a68:	4656      	mov	r6, sl
    3a6a:	1b9b      	subs	r3, r3, r6
    3a6c:	409c      	lsls	r4, r3
    3a6e:	4327      	orrs	r7, r4
    3a70:	1e7c      	subs	r4, r7, #1
    3a72:	41a7      	sbcs	r7, r4
    3a74:	464b      	mov	r3, r9
    3a76:	2400      	movs	r4, #0
    3a78:	431f      	orrs	r7, r3
    3a7a:	e75f      	b.n	393c <__aeabi_dadd+0x4cc>
    3a7c:	2400      	movs	r4, #0
    3a7e:	e7d2      	b.n	3a26 <__aeabi_dadd+0x5b6>
    3a80:	0017      	movs	r7, r2
    3a82:	e5b2      	b.n	35ea <__aeabi_dadd+0x17a>
    3a84:	2400      	movs	r4, #0
    3a86:	e7f2      	b.n	3a6e <__aeabi_dadd+0x5fe>
    3a88:	000007ff 	.word	0x000007ff
    3a8c:	ff7fffff 	.word	0xff7fffff

00003a90 <__aeabi_ddiv>:
    3a90:	b5f0      	push	{r4, r5, r6, r7, lr}
    3a92:	4657      	mov	r7, sl
    3a94:	4645      	mov	r5, r8
    3a96:	46de      	mov	lr, fp
    3a98:	464e      	mov	r6, r9
    3a9a:	b5e0      	push	{r5, r6, r7, lr}
    3a9c:	004c      	lsls	r4, r1, #1
    3a9e:	030e      	lsls	r6, r1, #12
    3aa0:	b087      	sub	sp, #28
    3aa2:	4683      	mov	fp, r0
    3aa4:	4692      	mov	sl, r2
    3aa6:	001d      	movs	r5, r3
    3aa8:	4680      	mov	r8, r0
    3aaa:	0b36      	lsrs	r6, r6, #12
    3aac:	0d64      	lsrs	r4, r4, #21
    3aae:	0fcf      	lsrs	r7, r1, #31
    3ab0:	2c00      	cmp	r4, #0
    3ab2:	d04f      	beq.n	3b54 <__aeabi_ddiv+0xc4>
    3ab4:	4b6f      	ldr	r3, [pc, #444]	; (3c74 <__aeabi_ddiv+0x1e4>)
    3ab6:	429c      	cmp	r4, r3
    3ab8:	d035      	beq.n	3b26 <__aeabi_ddiv+0x96>
    3aba:	2380      	movs	r3, #128	; 0x80
    3abc:	0f42      	lsrs	r2, r0, #29
    3abe:	041b      	lsls	r3, r3, #16
    3ac0:	00f6      	lsls	r6, r6, #3
    3ac2:	4313      	orrs	r3, r2
    3ac4:	4333      	orrs	r3, r6
    3ac6:	4699      	mov	r9, r3
    3ac8:	00c3      	lsls	r3, r0, #3
    3aca:	4698      	mov	r8, r3
    3acc:	4b6a      	ldr	r3, [pc, #424]	; (3c78 <__aeabi_ddiv+0x1e8>)
    3ace:	2600      	movs	r6, #0
    3ad0:	469c      	mov	ip, r3
    3ad2:	2300      	movs	r3, #0
    3ad4:	4464      	add	r4, ip
    3ad6:	9303      	str	r3, [sp, #12]
    3ad8:	032b      	lsls	r3, r5, #12
    3ada:	0b1b      	lsrs	r3, r3, #12
    3adc:	469b      	mov	fp, r3
    3ade:	006b      	lsls	r3, r5, #1
    3ae0:	0fed      	lsrs	r5, r5, #31
    3ae2:	4650      	mov	r0, sl
    3ae4:	0d5b      	lsrs	r3, r3, #21
    3ae6:	9501      	str	r5, [sp, #4]
    3ae8:	d05e      	beq.n	3ba8 <__aeabi_ddiv+0x118>
    3aea:	4a62      	ldr	r2, [pc, #392]	; (3c74 <__aeabi_ddiv+0x1e4>)
    3aec:	4293      	cmp	r3, r2
    3aee:	d053      	beq.n	3b98 <__aeabi_ddiv+0x108>
    3af0:	465a      	mov	r2, fp
    3af2:	00d1      	lsls	r1, r2, #3
    3af4:	2280      	movs	r2, #128	; 0x80
    3af6:	0f40      	lsrs	r0, r0, #29
    3af8:	0412      	lsls	r2, r2, #16
    3afa:	4302      	orrs	r2, r0
    3afc:	430a      	orrs	r2, r1
    3afe:	4693      	mov	fp, r2
    3b00:	4652      	mov	r2, sl
    3b02:	00d1      	lsls	r1, r2, #3
    3b04:	4a5c      	ldr	r2, [pc, #368]	; (3c78 <__aeabi_ddiv+0x1e8>)
    3b06:	4694      	mov	ip, r2
    3b08:	2200      	movs	r2, #0
    3b0a:	4463      	add	r3, ip
    3b0c:	0038      	movs	r0, r7
    3b0e:	4068      	eors	r0, r5
    3b10:	4684      	mov	ip, r0
    3b12:	9002      	str	r0, [sp, #8]
    3b14:	1ae4      	subs	r4, r4, r3
    3b16:	4316      	orrs	r6, r2
    3b18:	2e0f      	cmp	r6, #15
    3b1a:	d900      	bls.n	3b1e <__aeabi_ddiv+0x8e>
    3b1c:	e0b4      	b.n	3c88 <__aeabi_ddiv+0x1f8>
    3b1e:	4b57      	ldr	r3, [pc, #348]	; (3c7c <__aeabi_ddiv+0x1ec>)
    3b20:	00b6      	lsls	r6, r6, #2
    3b22:	599b      	ldr	r3, [r3, r6]
    3b24:	469f      	mov	pc, r3
    3b26:	0003      	movs	r3, r0
    3b28:	4333      	orrs	r3, r6
    3b2a:	4699      	mov	r9, r3
    3b2c:	d16c      	bne.n	3c08 <__aeabi_ddiv+0x178>
    3b2e:	2300      	movs	r3, #0
    3b30:	4698      	mov	r8, r3
    3b32:	3302      	adds	r3, #2
    3b34:	2608      	movs	r6, #8
    3b36:	9303      	str	r3, [sp, #12]
    3b38:	e7ce      	b.n	3ad8 <__aeabi_ddiv+0x48>
    3b3a:	46cb      	mov	fp, r9
    3b3c:	4641      	mov	r1, r8
    3b3e:	9a03      	ldr	r2, [sp, #12]
    3b40:	9701      	str	r7, [sp, #4]
    3b42:	2a02      	cmp	r2, #2
    3b44:	d165      	bne.n	3c12 <__aeabi_ddiv+0x182>
    3b46:	9b01      	ldr	r3, [sp, #4]
    3b48:	4c4a      	ldr	r4, [pc, #296]	; (3c74 <__aeabi_ddiv+0x1e4>)
    3b4a:	469c      	mov	ip, r3
    3b4c:	2300      	movs	r3, #0
    3b4e:	2200      	movs	r2, #0
    3b50:	4698      	mov	r8, r3
    3b52:	e06b      	b.n	3c2c <__aeabi_ddiv+0x19c>
    3b54:	0003      	movs	r3, r0
    3b56:	4333      	orrs	r3, r6
    3b58:	4699      	mov	r9, r3
    3b5a:	d04e      	beq.n	3bfa <__aeabi_ddiv+0x16a>
    3b5c:	2e00      	cmp	r6, #0
    3b5e:	d100      	bne.n	3b62 <__aeabi_ddiv+0xd2>
    3b60:	e1bc      	b.n	3edc <__aeabi_ddiv+0x44c>
    3b62:	0030      	movs	r0, r6
    3b64:	f001 fb08 	bl	5178 <__clzsi2>
    3b68:	0003      	movs	r3, r0
    3b6a:	3b0b      	subs	r3, #11
    3b6c:	2b1c      	cmp	r3, #28
    3b6e:	dd00      	ble.n	3b72 <__aeabi_ddiv+0xe2>
    3b70:	e1ac      	b.n	3ecc <__aeabi_ddiv+0x43c>
    3b72:	221d      	movs	r2, #29
    3b74:	1ad3      	subs	r3, r2, r3
    3b76:	465a      	mov	r2, fp
    3b78:	0001      	movs	r1, r0
    3b7a:	40da      	lsrs	r2, r3
    3b7c:	3908      	subs	r1, #8
    3b7e:	408e      	lsls	r6, r1
    3b80:	0013      	movs	r3, r2
    3b82:	4333      	orrs	r3, r6
    3b84:	4699      	mov	r9, r3
    3b86:	465b      	mov	r3, fp
    3b88:	408b      	lsls	r3, r1
    3b8a:	4698      	mov	r8, r3
    3b8c:	2300      	movs	r3, #0
    3b8e:	4c3c      	ldr	r4, [pc, #240]	; (3c80 <__aeabi_ddiv+0x1f0>)
    3b90:	2600      	movs	r6, #0
    3b92:	1a24      	subs	r4, r4, r0
    3b94:	9303      	str	r3, [sp, #12]
    3b96:	e79f      	b.n	3ad8 <__aeabi_ddiv+0x48>
    3b98:	4651      	mov	r1, sl
    3b9a:	465a      	mov	r2, fp
    3b9c:	4311      	orrs	r1, r2
    3b9e:	d129      	bne.n	3bf4 <__aeabi_ddiv+0x164>
    3ba0:	2200      	movs	r2, #0
    3ba2:	4693      	mov	fp, r2
    3ba4:	3202      	adds	r2, #2
    3ba6:	e7b1      	b.n	3b0c <__aeabi_ddiv+0x7c>
    3ba8:	4659      	mov	r1, fp
    3baa:	4301      	orrs	r1, r0
    3bac:	d01e      	beq.n	3bec <__aeabi_ddiv+0x15c>
    3bae:	465b      	mov	r3, fp
    3bb0:	2b00      	cmp	r3, #0
    3bb2:	d100      	bne.n	3bb6 <__aeabi_ddiv+0x126>
    3bb4:	e19e      	b.n	3ef4 <__aeabi_ddiv+0x464>
    3bb6:	4658      	mov	r0, fp
    3bb8:	f001 fade 	bl	5178 <__clzsi2>
    3bbc:	0003      	movs	r3, r0
    3bbe:	3b0b      	subs	r3, #11
    3bc0:	2b1c      	cmp	r3, #28
    3bc2:	dd00      	ble.n	3bc6 <__aeabi_ddiv+0x136>
    3bc4:	e18f      	b.n	3ee6 <__aeabi_ddiv+0x456>
    3bc6:	0002      	movs	r2, r0
    3bc8:	4659      	mov	r1, fp
    3bca:	3a08      	subs	r2, #8
    3bcc:	4091      	lsls	r1, r2
    3bce:	468b      	mov	fp, r1
    3bd0:	211d      	movs	r1, #29
    3bd2:	1acb      	subs	r3, r1, r3
    3bd4:	4651      	mov	r1, sl
    3bd6:	40d9      	lsrs	r1, r3
    3bd8:	000b      	movs	r3, r1
    3bda:	4659      	mov	r1, fp
    3bdc:	430b      	orrs	r3, r1
    3bde:	4651      	mov	r1, sl
    3be0:	469b      	mov	fp, r3
    3be2:	4091      	lsls	r1, r2
    3be4:	4b26      	ldr	r3, [pc, #152]	; (3c80 <__aeabi_ddiv+0x1f0>)
    3be6:	2200      	movs	r2, #0
    3be8:	1a1b      	subs	r3, r3, r0
    3bea:	e78f      	b.n	3b0c <__aeabi_ddiv+0x7c>
    3bec:	2300      	movs	r3, #0
    3bee:	2201      	movs	r2, #1
    3bf0:	469b      	mov	fp, r3
    3bf2:	e78b      	b.n	3b0c <__aeabi_ddiv+0x7c>
    3bf4:	4651      	mov	r1, sl
    3bf6:	2203      	movs	r2, #3
    3bf8:	e788      	b.n	3b0c <__aeabi_ddiv+0x7c>
    3bfa:	2300      	movs	r3, #0
    3bfc:	4698      	mov	r8, r3
    3bfe:	3301      	adds	r3, #1
    3c00:	2604      	movs	r6, #4
    3c02:	2400      	movs	r4, #0
    3c04:	9303      	str	r3, [sp, #12]
    3c06:	e767      	b.n	3ad8 <__aeabi_ddiv+0x48>
    3c08:	2303      	movs	r3, #3
    3c0a:	46b1      	mov	r9, r6
    3c0c:	9303      	str	r3, [sp, #12]
    3c0e:	260c      	movs	r6, #12
    3c10:	e762      	b.n	3ad8 <__aeabi_ddiv+0x48>
    3c12:	2a03      	cmp	r2, #3
    3c14:	d100      	bne.n	3c18 <__aeabi_ddiv+0x188>
    3c16:	e25c      	b.n	40d2 <__aeabi_ddiv+0x642>
    3c18:	9b01      	ldr	r3, [sp, #4]
    3c1a:	2a01      	cmp	r2, #1
    3c1c:	d000      	beq.n	3c20 <__aeabi_ddiv+0x190>
    3c1e:	e1e4      	b.n	3fea <__aeabi_ddiv+0x55a>
    3c20:	4013      	ands	r3, r2
    3c22:	469c      	mov	ip, r3
    3c24:	2300      	movs	r3, #0
    3c26:	2400      	movs	r4, #0
    3c28:	2200      	movs	r2, #0
    3c2a:	4698      	mov	r8, r3
    3c2c:	2100      	movs	r1, #0
    3c2e:	0312      	lsls	r2, r2, #12
    3c30:	0b13      	lsrs	r3, r2, #12
    3c32:	0d0a      	lsrs	r2, r1, #20
    3c34:	0512      	lsls	r2, r2, #20
    3c36:	431a      	orrs	r2, r3
    3c38:	0523      	lsls	r3, r4, #20
    3c3a:	4c12      	ldr	r4, [pc, #72]	; (3c84 <__aeabi_ddiv+0x1f4>)
    3c3c:	4640      	mov	r0, r8
    3c3e:	4022      	ands	r2, r4
    3c40:	4313      	orrs	r3, r2
    3c42:	4662      	mov	r2, ip
    3c44:	005b      	lsls	r3, r3, #1
    3c46:	07d2      	lsls	r2, r2, #31
    3c48:	085b      	lsrs	r3, r3, #1
    3c4a:	4313      	orrs	r3, r2
    3c4c:	0019      	movs	r1, r3
    3c4e:	b007      	add	sp, #28
    3c50:	bc3c      	pop	{r2, r3, r4, r5}
    3c52:	4690      	mov	r8, r2
    3c54:	4699      	mov	r9, r3
    3c56:	46a2      	mov	sl, r4
    3c58:	46ab      	mov	fp, r5
    3c5a:	bdf0      	pop	{r4, r5, r6, r7, pc}
    3c5c:	2300      	movs	r3, #0
    3c5e:	2280      	movs	r2, #128	; 0x80
    3c60:	469c      	mov	ip, r3
    3c62:	0312      	lsls	r2, r2, #12
    3c64:	4698      	mov	r8, r3
    3c66:	4c03      	ldr	r4, [pc, #12]	; (3c74 <__aeabi_ddiv+0x1e4>)
    3c68:	e7e0      	b.n	3c2c <__aeabi_ddiv+0x19c>
    3c6a:	2300      	movs	r3, #0
    3c6c:	4c01      	ldr	r4, [pc, #4]	; (3c74 <__aeabi_ddiv+0x1e4>)
    3c6e:	2200      	movs	r2, #0
    3c70:	4698      	mov	r8, r3
    3c72:	e7db      	b.n	3c2c <__aeabi_ddiv+0x19c>
    3c74:	000007ff 	.word	0x000007ff
    3c78:	fffffc01 	.word	0xfffffc01
    3c7c:	0000a2e0 	.word	0x0000a2e0
    3c80:	fffffc0d 	.word	0xfffffc0d
    3c84:	800fffff 	.word	0x800fffff
    3c88:	45d9      	cmp	r9, fp
    3c8a:	d900      	bls.n	3c8e <__aeabi_ddiv+0x1fe>
    3c8c:	e139      	b.n	3f02 <__aeabi_ddiv+0x472>
    3c8e:	d100      	bne.n	3c92 <__aeabi_ddiv+0x202>
    3c90:	e134      	b.n	3efc <__aeabi_ddiv+0x46c>
    3c92:	2300      	movs	r3, #0
    3c94:	4646      	mov	r6, r8
    3c96:	464d      	mov	r5, r9
    3c98:	469a      	mov	sl, r3
    3c9a:	3c01      	subs	r4, #1
    3c9c:	465b      	mov	r3, fp
    3c9e:	0e0a      	lsrs	r2, r1, #24
    3ca0:	021b      	lsls	r3, r3, #8
    3ca2:	431a      	orrs	r2, r3
    3ca4:	020b      	lsls	r3, r1, #8
    3ca6:	0c17      	lsrs	r7, r2, #16
    3ca8:	9303      	str	r3, [sp, #12]
    3caa:	0413      	lsls	r3, r2, #16
    3cac:	0c1b      	lsrs	r3, r3, #16
    3cae:	0039      	movs	r1, r7
    3cb0:	0028      	movs	r0, r5
    3cb2:	4690      	mov	r8, r2
    3cb4:	9301      	str	r3, [sp, #4]
    3cb6:	f7fe fe7b 	bl	29b0 <__udivsi3>
    3cba:	0002      	movs	r2, r0
    3cbc:	9b01      	ldr	r3, [sp, #4]
    3cbe:	4683      	mov	fp, r0
    3cc0:	435a      	muls	r2, r3
    3cc2:	0028      	movs	r0, r5
    3cc4:	0039      	movs	r1, r7
    3cc6:	4691      	mov	r9, r2
    3cc8:	f7fe fef8 	bl	2abc <__aeabi_uidivmod>
    3ccc:	0c35      	lsrs	r5, r6, #16
    3cce:	0409      	lsls	r1, r1, #16
    3cd0:	430d      	orrs	r5, r1
    3cd2:	45a9      	cmp	r9, r5
    3cd4:	d90d      	bls.n	3cf2 <__aeabi_ddiv+0x262>
    3cd6:	465b      	mov	r3, fp
    3cd8:	4445      	add	r5, r8
    3cda:	3b01      	subs	r3, #1
    3cdc:	45a8      	cmp	r8, r5
    3cde:	d900      	bls.n	3ce2 <__aeabi_ddiv+0x252>
    3ce0:	e13a      	b.n	3f58 <__aeabi_ddiv+0x4c8>
    3ce2:	45a9      	cmp	r9, r5
    3ce4:	d800      	bhi.n	3ce8 <__aeabi_ddiv+0x258>
    3ce6:	e137      	b.n	3f58 <__aeabi_ddiv+0x4c8>
    3ce8:	2302      	movs	r3, #2
    3cea:	425b      	negs	r3, r3
    3cec:	469c      	mov	ip, r3
    3cee:	4445      	add	r5, r8
    3cf0:	44e3      	add	fp, ip
    3cf2:	464b      	mov	r3, r9
    3cf4:	1aeb      	subs	r3, r5, r3
    3cf6:	0039      	movs	r1, r7
    3cf8:	0018      	movs	r0, r3
    3cfa:	9304      	str	r3, [sp, #16]
    3cfc:	f7fe fe58 	bl	29b0 <__udivsi3>
    3d00:	9b01      	ldr	r3, [sp, #4]
    3d02:	0005      	movs	r5, r0
    3d04:	4343      	muls	r3, r0
    3d06:	0039      	movs	r1, r7
    3d08:	9804      	ldr	r0, [sp, #16]
    3d0a:	4699      	mov	r9, r3
    3d0c:	f7fe fed6 	bl	2abc <__aeabi_uidivmod>
    3d10:	0433      	lsls	r3, r6, #16
    3d12:	0409      	lsls	r1, r1, #16
    3d14:	0c1b      	lsrs	r3, r3, #16
    3d16:	430b      	orrs	r3, r1
    3d18:	4599      	cmp	r9, r3
    3d1a:	d909      	bls.n	3d30 <__aeabi_ddiv+0x2a0>
    3d1c:	4443      	add	r3, r8
    3d1e:	1e6a      	subs	r2, r5, #1
    3d20:	4598      	cmp	r8, r3
    3d22:	d900      	bls.n	3d26 <__aeabi_ddiv+0x296>
    3d24:	e11a      	b.n	3f5c <__aeabi_ddiv+0x4cc>
    3d26:	4599      	cmp	r9, r3
    3d28:	d800      	bhi.n	3d2c <__aeabi_ddiv+0x29c>
    3d2a:	e117      	b.n	3f5c <__aeabi_ddiv+0x4cc>
    3d2c:	3d02      	subs	r5, #2
    3d2e:	4443      	add	r3, r8
    3d30:	464a      	mov	r2, r9
    3d32:	1a9b      	subs	r3, r3, r2
    3d34:	465a      	mov	r2, fp
    3d36:	0412      	lsls	r2, r2, #16
    3d38:	432a      	orrs	r2, r5
    3d3a:	9903      	ldr	r1, [sp, #12]
    3d3c:	4693      	mov	fp, r2
    3d3e:	0c10      	lsrs	r0, r2, #16
    3d40:	0c0a      	lsrs	r2, r1, #16
    3d42:	4691      	mov	r9, r2
    3d44:	0409      	lsls	r1, r1, #16
    3d46:	465a      	mov	r2, fp
    3d48:	0c09      	lsrs	r1, r1, #16
    3d4a:	464e      	mov	r6, r9
    3d4c:	000d      	movs	r5, r1
    3d4e:	0412      	lsls	r2, r2, #16
    3d50:	0c12      	lsrs	r2, r2, #16
    3d52:	4345      	muls	r5, r0
    3d54:	9105      	str	r1, [sp, #20]
    3d56:	4351      	muls	r1, r2
    3d58:	4372      	muls	r2, r6
    3d5a:	4370      	muls	r0, r6
    3d5c:	1952      	adds	r2, r2, r5
    3d5e:	0c0e      	lsrs	r6, r1, #16
    3d60:	18b2      	adds	r2, r6, r2
    3d62:	4295      	cmp	r5, r2
    3d64:	d903      	bls.n	3d6e <__aeabi_ddiv+0x2de>
    3d66:	2580      	movs	r5, #128	; 0x80
    3d68:	026d      	lsls	r5, r5, #9
    3d6a:	46ac      	mov	ip, r5
    3d6c:	4460      	add	r0, ip
    3d6e:	0c15      	lsrs	r5, r2, #16
    3d70:	0409      	lsls	r1, r1, #16
    3d72:	0412      	lsls	r2, r2, #16
    3d74:	0c09      	lsrs	r1, r1, #16
    3d76:	1828      	adds	r0, r5, r0
    3d78:	1852      	adds	r2, r2, r1
    3d7a:	4283      	cmp	r3, r0
    3d7c:	d200      	bcs.n	3d80 <__aeabi_ddiv+0x2f0>
    3d7e:	e0ce      	b.n	3f1e <__aeabi_ddiv+0x48e>
    3d80:	d100      	bne.n	3d84 <__aeabi_ddiv+0x2f4>
    3d82:	e0c8      	b.n	3f16 <__aeabi_ddiv+0x486>
    3d84:	1a1d      	subs	r5, r3, r0
    3d86:	4653      	mov	r3, sl
    3d88:	1a9e      	subs	r6, r3, r2
    3d8a:	45b2      	cmp	sl, r6
    3d8c:	4192      	sbcs	r2, r2
    3d8e:	4252      	negs	r2, r2
    3d90:	1aab      	subs	r3, r5, r2
    3d92:	469a      	mov	sl, r3
    3d94:	4598      	cmp	r8, r3
    3d96:	d100      	bne.n	3d9a <__aeabi_ddiv+0x30a>
    3d98:	e117      	b.n	3fca <__aeabi_ddiv+0x53a>
    3d9a:	0039      	movs	r1, r7
    3d9c:	0018      	movs	r0, r3
    3d9e:	f7fe fe07 	bl	29b0 <__udivsi3>
    3da2:	9b01      	ldr	r3, [sp, #4]
    3da4:	0005      	movs	r5, r0
    3da6:	4343      	muls	r3, r0
    3da8:	0039      	movs	r1, r7
    3daa:	4650      	mov	r0, sl
    3dac:	9304      	str	r3, [sp, #16]
    3dae:	f7fe fe85 	bl	2abc <__aeabi_uidivmod>
    3db2:	9804      	ldr	r0, [sp, #16]
    3db4:	040b      	lsls	r3, r1, #16
    3db6:	0c31      	lsrs	r1, r6, #16
    3db8:	4319      	orrs	r1, r3
    3dba:	4288      	cmp	r0, r1
    3dbc:	d909      	bls.n	3dd2 <__aeabi_ddiv+0x342>
    3dbe:	4441      	add	r1, r8
    3dc0:	1e6b      	subs	r3, r5, #1
    3dc2:	4588      	cmp	r8, r1
    3dc4:	d900      	bls.n	3dc8 <__aeabi_ddiv+0x338>
    3dc6:	e107      	b.n	3fd8 <__aeabi_ddiv+0x548>
    3dc8:	4288      	cmp	r0, r1
    3dca:	d800      	bhi.n	3dce <__aeabi_ddiv+0x33e>
    3dcc:	e104      	b.n	3fd8 <__aeabi_ddiv+0x548>
    3dce:	3d02      	subs	r5, #2
    3dd0:	4441      	add	r1, r8
    3dd2:	9b04      	ldr	r3, [sp, #16]
    3dd4:	1acb      	subs	r3, r1, r3
    3dd6:	0018      	movs	r0, r3
    3dd8:	0039      	movs	r1, r7
    3dda:	9304      	str	r3, [sp, #16]
    3ddc:	f7fe fde8 	bl	29b0 <__udivsi3>
    3de0:	9b01      	ldr	r3, [sp, #4]
    3de2:	4682      	mov	sl, r0
    3de4:	4343      	muls	r3, r0
    3de6:	0039      	movs	r1, r7
    3de8:	9804      	ldr	r0, [sp, #16]
    3dea:	9301      	str	r3, [sp, #4]
    3dec:	f7fe fe66 	bl	2abc <__aeabi_uidivmod>
    3df0:	9801      	ldr	r0, [sp, #4]
    3df2:	040b      	lsls	r3, r1, #16
    3df4:	0431      	lsls	r1, r6, #16
    3df6:	0c09      	lsrs	r1, r1, #16
    3df8:	4319      	orrs	r1, r3
    3dfa:	4288      	cmp	r0, r1
    3dfc:	d90d      	bls.n	3e1a <__aeabi_ddiv+0x38a>
    3dfe:	4653      	mov	r3, sl
    3e00:	4441      	add	r1, r8
    3e02:	3b01      	subs	r3, #1
    3e04:	4588      	cmp	r8, r1
    3e06:	d900      	bls.n	3e0a <__aeabi_ddiv+0x37a>
    3e08:	e0e8      	b.n	3fdc <__aeabi_ddiv+0x54c>
    3e0a:	4288      	cmp	r0, r1
    3e0c:	d800      	bhi.n	3e10 <__aeabi_ddiv+0x380>
    3e0e:	e0e5      	b.n	3fdc <__aeabi_ddiv+0x54c>
    3e10:	2302      	movs	r3, #2
    3e12:	425b      	negs	r3, r3
    3e14:	469c      	mov	ip, r3
    3e16:	4441      	add	r1, r8
    3e18:	44e2      	add	sl, ip
    3e1a:	9b01      	ldr	r3, [sp, #4]
    3e1c:	042d      	lsls	r5, r5, #16
    3e1e:	1ace      	subs	r6, r1, r3
    3e20:	4651      	mov	r1, sl
    3e22:	4329      	orrs	r1, r5
    3e24:	9d05      	ldr	r5, [sp, #20]
    3e26:	464f      	mov	r7, r9
    3e28:	002a      	movs	r2, r5
    3e2a:	040b      	lsls	r3, r1, #16
    3e2c:	0c08      	lsrs	r0, r1, #16
    3e2e:	0c1b      	lsrs	r3, r3, #16
    3e30:	435a      	muls	r2, r3
    3e32:	4345      	muls	r5, r0
    3e34:	437b      	muls	r3, r7
    3e36:	4378      	muls	r0, r7
    3e38:	195b      	adds	r3, r3, r5
    3e3a:	0c17      	lsrs	r7, r2, #16
    3e3c:	18fb      	adds	r3, r7, r3
    3e3e:	429d      	cmp	r5, r3
    3e40:	d903      	bls.n	3e4a <__aeabi_ddiv+0x3ba>
    3e42:	2580      	movs	r5, #128	; 0x80
    3e44:	026d      	lsls	r5, r5, #9
    3e46:	46ac      	mov	ip, r5
    3e48:	4460      	add	r0, ip
    3e4a:	0c1d      	lsrs	r5, r3, #16
    3e4c:	0412      	lsls	r2, r2, #16
    3e4e:	041b      	lsls	r3, r3, #16
    3e50:	0c12      	lsrs	r2, r2, #16
    3e52:	1828      	adds	r0, r5, r0
    3e54:	189b      	adds	r3, r3, r2
    3e56:	4286      	cmp	r6, r0
    3e58:	d200      	bcs.n	3e5c <__aeabi_ddiv+0x3cc>
    3e5a:	e093      	b.n	3f84 <__aeabi_ddiv+0x4f4>
    3e5c:	d100      	bne.n	3e60 <__aeabi_ddiv+0x3d0>
    3e5e:	e08e      	b.n	3f7e <__aeabi_ddiv+0x4ee>
    3e60:	2301      	movs	r3, #1
    3e62:	4319      	orrs	r1, r3
    3e64:	4ba0      	ldr	r3, [pc, #640]	; (40e8 <__aeabi_ddiv+0x658>)
    3e66:	18e3      	adds	r3, r4, r3
    3e68:	2b00      	cmp	r3, #0
    3e6a:	dc00      	bgt.n	3e6e <__aeabi_ddiv+0x3de>
    3e6c:	e099      	b.n	3fa2 <__aeabi_ddiv+0x512>
    3e6e:	074a      	lsls	r2, r1, #29
    3e70:	d000      	beq.n	3e74 <__aeabi_ddiv+0x3e4>
    3e72:	e09e      	b.n	3fb2 <__aeabi_ddiv+0x522>
    3e74:	465a      	mov	r2, fp
    3e76:	01d2      	lsls	r2, r2, #7
    3e78:	d506      	bpl.n	3e88 <__aeabi_ddiv+0x3f8>
    3e7a:	465a      	mov	r2, fp
    3e7c:	4b9b      	ldr	r3, [pc, #620]	; (40ec <__aeabi_ddiv+0x65c>)
    3e7e:	401a      	ands	r2, r3
    3e80:	2380      	movs	r3, #128	; 0x80
    3e82:	4693      	mov	fp, r2
    3e84:	00db      	lsls	r3, r3, #3
    3e86:	18e3      	adds	r3, r4, r3
    3e88:	4a99      	ldr	r2, [pc, #612]	; (40f0 <__aeabi_ddiv+0x660>)
    3e8a:	4293      	cmp	r3, r2
    3e8c:	dd68      	ble.n	3f60 <__aeabi_ddiv+0x4d0>
    3e8e:	2301      	movs	r3, #1
    3e90:	9a02      	ldr	r2, [sp, #8]
    3e92:	4c98      	ldr	r4, [pc, #608]	; (40f4 <__aeabi_ddiv+0x664>)
    3e94:	401a      	ands	r2, r3
    3e96:	2300      	movs	r3, #0
    3e98:	4694      	mov	ip, r2
    3e9a:	4698      	mov	r8, r3
    3e9c:	2200      	movs	r2, #0
    3e9e:	e6c5      	b.n	3c2c <__aeabi_ddiv+0x19c>
    3ea0:	2280      	movs	r2, #128	; 0x80
    3ea2:	464b      	mov	r3, r9
    3ea4:	0312      	lsls	r2, r2, #12
    3ea6:	4213      	tst	r3, r2
    3ea8:	d00a      	beq.n	3ec0 <__aeabi_ddiv+0x430>
    3eaa:	465b      	mov	r3, fp
    3eac:	4213      	tst	r3, r2
    3eae:	d106      	bne.n	3ebe <__aeabi_ddiv+0x42e>
    3eb0:	431a      	orrs	r2, r3
    3eb2:	0312      	lsls	r2, r2, #12
    3eb4:	0b12      	lsrs	r2, r2, #12
    3eb6:	46ac      	mov	ip, r5
    3eb8:	4688      	mov	r8, r1
    3eba:	4c8e      	ldr	r4, [pc, #568]	; (40f4 <__aeabi_ddiv+0x664>)
    3ebc:	e6b6      	b.n	3c2c <__aeabi_ddiv+0x19c>
    3ebe:	464b      	mov	r3, r9
    3ec0:	431a      	orrs	r2, r3
    3ec2:	0312      	lsls	r2, r2, #12
    3ec4:	0b12      	lsrs	r2, r2, #12
    3ec6:	46bc      	mov	ip, r7
    3ec8:	4c8a      	ldr	r4, [pc, #552]	; (40f4 <__aeabi_ddiv+0x664>)
    3eca:	e6af      	b.n	3c2c <__aeabi_ddiv+0x19c>
    3ecc:	0003      	movs	r3, r0
    3ece:	465a      	mov	r2, fp
    3ed0:	3b28      	subs	r3, #40	; 0x28
    3ed2:	409a      	lsls	r2, r3
    3ed4:	2300      	movs	r3, #0
    3ed6:	4691      	mov	r9, r2
    3ed8:	4698      	mov	r8, r3
    3eda:	e657      	b.n	3b8c <__aeabi_ddiv+0xfc>
    3edc:	4658      	mov	r0, fp
    3ede:	f001 f94b 	bl	5178 <__clzsi2>
    3ee2:	3020      	adds	r0, #32
    3ee4:	e640      	b.n	3b68 <__aeabi_ddiv+0xd8>
    3ee6:	0003      	movs	r3, r0
    3ee8:	4652      	mov	r2, sl
    3eea:	3b28      	subs	r3, #40	; 0x28
    3eec:	409a      	lsls	r2, r3
    3eee:	2100      	movs	r1, #0
    3ef0:	4693      	mov	fp, r2
    3ef2:	e677      	b.n	3be4 <__aeabi_ddiv+0x154>
    3ef4:	f001 f940 	bl	5178 <__clzsi2>
    3ef8:	3020      	adds	r0, #32
    3efa:	e65f      	b.n	3bbc <__aeabi_ddiv+0x12c>
    3efc:	4588      	cmp	r8, r1
    3efe:	d200      	bcs.n	3f02 <__aeabi_ddiv+0x472>
    3f00:	e6c7      	b.n	3c92 <__aeabi_ddiv+0x202>
    3f02:	464b      	mov	r3, r9
    3f04:	07de      	lsls	r6, r3, #31
    3f06:	085d      	lsrs	r5, r3, #1
    3f08:	4643      	mov	r3, r8
    3f0a:	085b      	lsrs	r3, r3, #1
    3f0c:	431e      	orrs	r6, r3
    3f0e:	4643      	mov	r3, r8
    3f10:	07db      	lsls	r3, r3, #31
    3f12:	469a      	mov	sl, r3
    3f14:	e6c2      	b.n	3c9c <__aeabi_ddiv+0x20c>
    3f16:	2500      	movs	r5, #0
    3f18:	4592      	cmp	sl, r2
    3f1a:	d300      	bcc.n	3f1e <__aeabi_ddiv+0x48e>
    3f1c:	e733      	b.n	3d86 <__aeabi_ddiv+0x2f6>
    3f1e:	9e03      	ldr	r6, [sp, #12]
    3f20:	4659      	mov	r1, fp
    3f22:	46b4      	mov	ip, r6
    3f24:	44e2      	add	sl, ip
    3f26:	45b2      	cmp	sl, r6
    3f28:	41ad      	sbcs	r5, r5
    3f2a:	426d      	negs	r5, r5
    3f2c:	4445      	add	r5, r8
    3f2e:	18eb      	adds	r3, r5, r3
    3f30:	3901      	subs	r1, #1
    3f32:	4598      	cmp	r8, r3
    3f34:	d207      	bcs.n	3f46 <__aeabi_ddiv+0x4b6>
    3f36:	4298      	cmp	r0, r3
    3f38:	d900      	bls.n	3f3c <__aeabi_ddiv+0x4ac>
    3f3a:	e07f      	b.n	403c <__aeabi_ddiv+0x5ac>
    3f3c:	d100      	bne.n	3f40 <__aeabi_ddiv+0x4b0>
    3f3e:	e0bc      	b.n	40ba <__aeabi_ddiv+0x62a>
    3f40:	1a1d      	subs	r5, r3, r0
    3f42:	468b      	mov	fp, r1
    3f44:	e71f      	b.n	3d86 <__aeabi_ddiv+0x2f6>
    3f46:	4598      	cmp	r8, r3
    3f48:	d1fa      	bne.n	3f40 <__aeabi_ddiv+0x4b0>
    3f4a:	9d03      	ldr	r5, [sp, #12]
    3f4c:	4555      	cmp	r5, sl
    3f4e:	d9f2      	bls.n	3f36 <__aeabi_ddiv+0x4a6>
    3f50:	4643      	mov	r3, r8
    3f52:	468b      	mov	fp, r1
    3f54:	1a1d      	subs	r5, r3, r0
    3f56:	e716      	b.n	3d86 <__aeabi_ddiv+0x2f6>
    3f58:	469b      	mov	fp, r3
    3f5a:	e6ca      	b.n	3cf2 <__aeabi_ddiv+0x262>
    3f5c:	0015      	movs	r5, r2
    3f5e:	e6e7      	b.n	3d30 <__aeabi_ddiv+0x2a0>
    3f60:	465a      	mov	r2, fp
    3f62:	08c9      	lsrs	r1, r1, #3
    3f64:	0752      	lsls	r2, r2, #29
    3f66:	430a      	orrs	r2, r1
    3f68:	055b      	lsls	r3, r3, #21
    3f6a:	4690      	mov	r8, r2
    3f6c:	0d5c      	lsrs	r4, r3, #21
    3f6e:	465a      	mov	r2, fp
    3f70:	2301      	movs	r3, #1
    3f72:	9902      	ldr	r1, [sp, #8]
    3f74:	0252      	lsls	r2, r2, #9
    3f76:	4019      	ands	r1, r3
    3f78:	0b12      	lsrs	r2, r2, #12
    3f7a:	468c      	mov	ip, r1
    3f7c:	e656      	b.n	3c2c <__aeabi_ddiv+0x19c>
    3f7e:	2b00      	cmp	r3, #0
    3f80:	d100      	bne.n	3f84 <__aeabi_ddiv+0x4f4>
    3f82:	e76f      	b.n	3e64 <__aeabi_ddiv+0x3d4>
    3f84:	4446      	add	r6, r8
    3f86:	1e4a      	subs	r2, r1, #1
    3f88:	45b0      	cmp	r8, r6
    3f8a:	d929      	bls.n	3fe0 <__aeabi_ddiv+0x550>
    3f8c:	0011      	movs	r1, r2
    3f8e:	4286      	cmp	r6, r0
    3f90:	d000      	beq.n	3f94 <__aeabi_ddiv+0x504>
    3f92:	e765      	b.n	3e60 <__aeabi_ddiv+0x3d0>
    3f94:	9a03      	ldr	r2, [sp, #12]
    3f96:	4293      	cmp	r3, r2
    3f98:	d000      	beq.n	3f9c <__aeabi_ddiv+0x50c>
    3f9a:	e761      	b.n	3e60 <__aeabi_ddiv+0x3d0>
    3f9c:	e762      	b.n	3e64 <__aeabi_ddiv+0x3d4>
    3f9e:	2101      	movs	r1, #1
    3fa0:	4249      	negs	r1, r1
    3fa2:	2001      	movs	r0, #1
    3fa4:	1ac2      	subs	r2, r0, r3
    3fa6:	2a38      	cmp	r2, #56	; 0x38
    3fa8:	dd21      	ble.n	3fee <__aeabi_ddiv+0x55e>
    3faa:	9b02      	ldr	r3, [sp, #8]
    3fac:	4003      	ands	r3, r0
    3fae:	469c      	mov	ip, r3
    3fb0:	e638      	b.n	3c24 <__aeabi_ddiv+0x194>
    3fb2:	220f      	movs	r2, #15
    3fb4:	400a      	ands	r2, r1
    3fb6:	2a04      	cmp	r2, #4
    3fb8:	d100      	bne.n	3fbc <__aeabi_ddiv+0x52c>
    3fba:	e75b      	b.n	3e74 <__aeabi_ddiv+0x3e4>
    3fbc:	000a      	movs	r2, r1
    3fbe:	1d11      	adds	r1, r2, #4
    3fc0:	4291      	cmp	r1, r2
    3fc2:	4192      	sbcs	r2, r2
    3fc4:	4252      	negs	r2, r2
    3fc6:	4493      	add	fp, r2
    3fc8:	e754      	b.n	3e74 <__aeabi_ddiv+0x3e4>
    3fca:	4b47      	ldr	r3, [pc, #284]	; (40e8 <__aeabi_ddiv+0x658>)
    3fcc:	18e3      	adds	r3, r4, r3
    3fce:	2b00      	cmp	r3, #0
    3fd0:	dde5      	ble.n	3f9e <__aeabi_ddiv+0x50e>
    3fd2:	2201      	movs	r2, #1
    3fd4:	4252      	negs	r2, r2
    3fd6:	e7f2      	b.n	3fbe <__aeabi_ddiv+0x52e>
    3fd8:	001d      	movs	r5, r3
    3fda:	e6fa      	b.n	3dd2 <__aeabi_ddiv+0x342>
    3fdc:	469a      	mov	sl, r3
    3fde:	e71c      	b.n	3e1a <__aeabi_ddiv+0x38a>
    3fe0:	42b0      	cmp	r0, r6
    3fe2:	d839      	bhi.n	4058 <__aeabi_ddiv+0x5c8>
    3fe4:	d06e      	beq.n	40c4 <__aeabi_ddiv+0x634>
    3fe6:	0011      	movs	r1, r2
    3fe8:	e73a      	b.n	3e60 <__aeabi_ddiv+0x3d0>
    3fea:	9302      	str	r3, [sp, #8]
    3fec:	e73a      	b.n	3e64 <__aeabi_ddiv+0x3d4>
    3fee:	2a1f      	cmp	r2, #31
    3ff0:	dc3c      	bgt.n	406c <__aeabi_ddiv+0x5dc>
    3ff2:	2320      	movs	r3, #32
    3ff4:	1a9b      	subs	r3, r3, r2
    3ff6:	000c      	movs	r4, r1
    3ff8:	4658      	mov	r0, fp
    3ffa:	4099      	lsls	r1, r3
    3ffc:	4098      	lsls	r0, r3
    3ffe:	1e4b      	subs	r3, r1, #1
    4000:	4199      	sbcs	r1, r3
    4002:	465b      	mov	r3, fp
    4004:	40d4      	lsrs	r4, r2
    4006:	40d3      	lsrs	r3, r2
    4008:	4320      	orrs	r0, r4
    400a:	4308      	orrs	r0, r1
    400c:	001a      	movs	r2, r3
    400e:	0743      	lsls	r3, r0, #29
    4010:	d009      	beq.n	4026 <__aeabi_ddiv+0x596>
    4012:	230f      	movs	r3, #15
    4014:	4003      	ands	r3, r0
    4016:	2b04      	cmp	r3, #4
    4018:	d005      	beq.n	4026 <__aeabi_ddiv+0x596>
    401a:	0001      	movs	r1, r0
    401c:	1d08      	adds	r0, r1, #4
    401e:	4288      	cmp	r0, r1
    4020:	419b      	sbcs	r3, r3
    4022:	425b      	negs	r3, r3
    4024:	18d2      	adds	r2, r2, r3
    4026:	0213      	lsls	r3, r2, #8
    4028:	d53a      	bpl.n	40a0 <__aeabi_ddiv+0x610>
    402a:	2301      	movs	r3, #1
    402c:	9a02      	ldr	r2, [sp, #8]
    402e:	2401      	movs	r4, #1
    4030:	401a      	ands	r2, r3
    4032:	2300      	movs	r3, #0
    4034:	4694      	mov	ip, r2
    4036:	4698      	mov	r8, r3
    4038:	2200      	movs	r2, #0
    403a:	e5f7      	b.n	3c2c <__aeabi_ddiv+0x19c>
    403c:	2102      	movs	r1, #2
    403e:	4249      	negs	r1, r1
    4040:	468c      	mov	ip, r1
    4042:	9d03      	ldr	r5, [sp, #12]
    4044:	44e3      	add	fp, ip
    4046:	46ac      	mov	ip, r5
    4048:	44e2      	add	sl, ip
    404a:	45aa      	cmp	sl, r5
    404c:	41ad      	sbcs	r5, r5
    404e:	426d      	negs	r5, r5
    4050:	4445      	add	r5, r8
    4052:	18ed      	adds	r5, r5, r3
    4054:	1a2d      	subs	r5, r5, r0
    4056:	e696      	b.n	3d86 <__aeabi_ddiv+0x2f6>
    4058:	1e8a      	subs	r2, r1, #2
    405a:	9903      	ldr	r1, [sp, #12]
    405c:	004d      	lsls	r5, r1, #1
    405e:	428d      	cmp	r5, r1
    4060:	4189      	sbcs	r1, r1
    4062:	4249      	negs	r1, r1
    4064:	4441      	add	r1, r8
    4066:	1876      	adds	r6, r6, r1
    4068:	9503      	str	r5, [sp, #12]
    406a:	e78f      	b.n	3f8c <__aeabi_ddiv+0x4fc>
    406c:	201f      	movs	r0, #31
    406e:	4240      	negs	r0, r0
    4070:	1ac3      	subs	r3, r0, r3
    4072:	4658      	mov	r0, fp
    4074:	40d8      	lsrs	r0, r3
    4076:	0003      	movs	r3, r0
    4078:	2a20      	cmp	r2, #32
    407a:	d028      	beq.n	40ce <__aeabi_ddiv+0x63e>
    407c:	2040      	movs	r0, #64	; 0x40
    407e:	465d      	mov	r5, fp
    4080:	1a82      	subs	r2, r0, r2
    4082:	4095      	lsls	r5, r2
    4084:	4329      	orrs	r1, r5
    4086:	1e4a      	subs	r2, r1, #1
    4088:	4191      	sbcs	r1, r2
    408a:	4319      	orrs	r1, r3
    408c:	2307      	movs	r3, #7
    408e:	2200      	movs	r2, #0
    4090:	400b      	ands	r3, r1
    4092:	d009      	beq.n	40a8 <__aeabi_ddiv+0x618>
    4094:	230f      	movs	r3, #15
    4096:	2200      	movs	r2, #0
    4098:	400b      	ands	r3, r1
    409a:	0008      	movs	r0, r1
    409c:	2b04      	cmp	r3, #4
    409e:	d1bd      	bne.n	401c <__aeabi_ddiv+0x58c>
    40a0:	0001      	movs	r1, r0
    40a2:	0753      	lsls	r3, r2, #29
    40a4:	0252      	lsls	r2, r2, #9
    40a6:	0b12      	lsrs	r2, r2, #12
    40a8:	08c9      	lsrs	r1, r1, #3
    40aa:	4319      	orrs	r1, r3
    40ac:	2301      	movs	r3, #1
    40ae:	4688      	mov	r8, r1
    40b0:	9902      	ldr	r1, [sp, #8]
    40b2:	2400      	movs	r4, #0
    40b4:	4019      	ands	r1, r3
    40b6:	468c      	mov	ip, r1
    40b8:	e5b8      	b.n	3c2c <__aeabi_ddiv+0x19c>
    40ba:	4552      	cmp	r2, sl
    40bc:	d8be      	bhi.n	403c <__aeabi_ddiv+0x5ac>
    40be:	468b      	mov	fp, r1
    40c0:	2500      	movs	r5, #0
    40c2:	e660      	b.n	3d86 <__aeabi_ddiv+0x2f6>
    40c4:	9d03      	ldr	r5, [sp, #12]
    40c6:	429d      	cmp	r5, r3
    40c8:	d3c6      	bcc.n	4058 <__aeabi_ddiv+0x5c8>
    40ca:	0011      	movs	r1, r2
    40cc:	e762      	b.n	3f94 <__aeabi_ddiv+0x504>
    40ce:	2500      	movs	r5, #0
    40d0:	e7d8      	b.n	4084 <__aeabi_ddiv+0x5f4>
    40d2:	2280      	movs	r2, #128	; 0x80
    40d4:	465b      	mov	r3, fp
    40d6:	0312      	lsls	r2, r2, #12
    40d8:	431a      	orrs	r2, r3
    40da:	9b01      	ldr	r3, [sp, #4]
    40dc:	0312      	lsls	r2, r2, #12
    40de:	0b12      	lsrs	r2, r2, #12
    40e0:	469c      	mov	ip, r3
    40e2:	4688      	mov	r8, r1
    40e4:	4c03      	ldr	r4, [pc, #12]	; (40f4 <__aeabi_ddiv+0x664>)
    40e6:	e5a1      	b.n	3c2c <__aeabi_ddiv+0x19c>
    40e8:	000003ff 	.word	0x000003ff
    40ec:	feffffff 	.word	0xfeffffff
    40f0:	000007fe 	.word	0x000007fe
    40f4:	000007ff 	.word	0x000007ff

000040f8 <__eqdf2>:
    40f8:	b5f0      	push	{r4, r5, r6, r7, lr}
    40fa:	464f      	mov	r7, r9
    40fc:	4646      	mov	r6, r8
    40fe:	46d6      	mov	lr, sl
    4100:	005c      	lsls	r4, r3, #1
    4102:	b5c0      	push	{r6, r7, lr}
    4104:	031f      	lsls	r7, r3, #12
    4106:	0fdb      	lsrs	r3, r3, #31
    4108:	469a      	mov	sl, r3
    410a:	4b17      	ldr	r3, [pc, #92]	; (4168 <__eqdf2+0x70>)
    410c:	030e      	lsls	r6, r1, #12
    410e:	004d      	lsls	r5, r1, #1
    4110:	4684      	mov	ip, r0
    4112:	4680      	mov	r8, r0
    4114:	0b36      	lsrs	r6, r6, #12
    4116:	0d6d      	lsrs	r5, r5, #21
    4118:	0fc9      	lsrs	r1, r1, #31
    411a:	4691      	mov	r9, r2
    411c:	0b3f      	lsrs	r7, r7, #12
    411e:	0d64      	lsrs	r4, r4, #21
    4120:	2001      	movs	r0, #1
    4122:	429d      	cmp	r5, r3
    4124:	d008      	beq.n	4138 <__eqdf2+0x40>
    4126:	429c      	cmp	r4, r3
    4128:	d001      	beq.n	412e <__eqdf2+0x36>
    412a:	42a5      	cmp	r5, r4
    412c:	d00b      	beq.n	4146 <__eqdf2+0x4e>
    412e:	bc1c      	pop	{r2, r3, r4}
    4130:	4690      	mov	r8, r2
    4132:	4699      	mov	r9, r3
    4134:	46a2      	mov	sl, r4
    4136:	bdf0      	pop	{r4, r5, r6, r7, pc}
    4138:	4663      	mov	r3, ip
    413a:	4333      	orrs	r3, r6
    413c:	d1f7      	bne.n	412e <__eqdf2+0x36>
    413e:	42ac      	cmp	r4, r5
    4140:	d1f5      	bne.n	412e <__eqdf2+0x36>
    4142:	433a      	orrs	r2, r7
    4144:	d1f3      	bne.n	412e <__eqdf2+0x36>
    4146:	2001      	movs	r0, #1
    4148:	42be      	cmp	r6, r7
    414a:	d1f0      	bne.n	412e <__eqdf2+0x36>
    414c:	45c8      	cmp	r8, r9
    414e:	d1ee      	bne.n	412e <__eqdf2+0x36>
    4150:	4551      	cmp	r1, sl
    4152:	d007      	beq.n	4164 <__eqdf2+0x6c>
    4154:	2d00      	cmp	r5, #0
    4156:	d1ea      	bne.n	412e <__eqdf2+0x36>
    4158:	4663      	mov	r3, ip
    415a:	431e      	orrs	r6, r3
    415c:	0030      	movs	r0, r6
    415e:	1e46      	subs	r6, r0, #1
    4160:	41b0      	sbcs	r0, r6
    4162:	e7e4      	b.n	412e <__eqdf2+0x36>
    4164:	2000      	movs	r0, #0
    4166:	e7e2      	b.n	412e <__eqdf2+0x36>
    4168:	000007ff 	.word	0x000007ff

0000416c <__gedf2>:
    416c:	b5f0      	push	{r4, r5, r6, r7, lr}
    416e:	4645      	mov	r5, r8
    4170:	46de      	mov	lr, fp
    4172:	4657      	mov	r7, sl
    4174:	464e      	mov	r6, r9
    4176:	b5e0      	push	{r5, r6, r7, lr}
    4178:	031f      	lsls	r7, r3, #12
    417a:	0b3d      	lsrs	r5, r7, #12
    417c:	4f2c      	ldr	r7, [pc, #176]	; (4230 <__gedf2+0xc4>)
    417e:	030e      	lsls	r6, r1, #12
    4180:	004c      	lsls	r4, r1, #1
    4182:	46ab      	mov	fp, r5
    4184:	005d      	lsls	r5, r3, #1
    4186:	4684      	mov	ip, r0
    4188:	0b36      	lsrs	r6, r6, #12
    418a:	0d64      	lsrs	r4, r4, #21
    418c:	0fc9      	lsrs	r1, r1, #31
    418e:	4690      	mov	r8, r2
    4190:	0d6d      	lsrs	r5, r5, #21
    4192:	0fdb      	lsrs	r3, r3, #31
    4194:	42bc      	cmp	r4, r7
    4196:	d02a      	beq.n	41ee <__gedf2+0x82>
    4198:	4f25      	ldr	r7, [pc, #148]	; (4230 <__gedf2+0xc4>)
    419a:	42bd      	cmp	r5, r7
    419c:	d02d      	beq.n	41fa <__gedf2+0x8e>
    419e:	2c00      	cmp	r4, #0
    41a0:	d10f      	bne.n	41c2 <__gedf2+0x56>
    41a2:	4330      	orrs	r0, r6
    41a4:	0007      	movs	r7, r0
    41a6:	4681      	mov	r9, r0
    41a8:	4278      	negs	r0, r7
    41aa:	4178      	adcs	r0, r7
    41ac:	b2c0      	uxtb	r0, r0
    41ae:	2d00      	cmp	r5, #0
    41b0:	d117      	bne.n	41e2 <__gedf2+0x76>
    41b2:	465f      	mov	r7, fp
    41b4:	433a      	orrs	r2, r7
    41b6:	d114      	bne.n	41e2 <__gedf2+0x76>
    41b8:	464b      	mov	r3, r9
    41ba:	2000      	movs	r0, #0
    41bc:	2b00      	cmp	r3, #0
    41be:	d00a      	beq.n	41d6 <__gedf2+0x6a>
    41c0:	e006      	b.n	41d0 <__gedf2+0x64>
    41c2:	2d00      	cmp	r5, #0
    41c4:	d102      	bne.n	41cc <__gedf2+0x60>
    41c6:	4658      	mov	r0, fp
    41c8:	4302      	orrs	r2, r0
    41ca:	d001      	beq.n	41d0 <__gedf2+0x64>
    41cc:	4299      	cmp	r1, r3
    41ce:	d018      	beq.n	4202 <__gedf2+0x96>
    41d0:	4248      	negs	r0, r1
    41d2:	2101      	movs	r1, #1
    41d4:	4308      	orrs	r0, r1
    41d6:	bc3c      	pop	{r2, r3, r4, r5}
    41d8:	4690      	mov	r8, r2
    41da:	4699      	mov	r9, r3
    41dc:	46a2      	mov	sl, r4
    41de:	46ab      	mov	fp, r5
    41e0:	bdf0      	pop	{r4, r5, r6, r7, pc}
    41e2:	2800      	cmp	r0, #0
    41e4:	d0f2      	beq.n	41cc <__gedf2+0x60>
    41e6:	2001      	movs	r0, #1
    41e8:	3b01      	subs	r3, #1
    41ea:	4318      	orrs	r0, r3
    41ec:	e7f3      	b.n	41d6 <__gedf2+0x6a>
    41ee:	0037      	movs	r7, r6
    41f0:	4307      	orrs	r7, r0
    41f2:	d0d1      	beq.n	4198 <__gedf2+0x2c>
    41f4:	2002      	movs	r0, #2
    41f6:	4240      	negs	r0, r0
    41f8:	e7ed      	b.n	41d6 <__gedf2+0x6a>
    41fa:	465f      	mov	r7, fp
    41fc:	4317      	orrs	r7, r2
    41fe:	d0ce      	beq.n	419e <__gedf2+0x32>
    4200:	e7f8      	b.n	41f4 <__gedf2+0x88>
    4202:	42ac      	cmp	r4, r5
    4204:	dce4      	bgt.n	41d0 <__gedf2+0x64>
    4206:	da03      	bge.n	4210 <__gedf2+0xa4>
    4208:	1e48      	subs	r0, r1, #1
    420a:	2101      	movs	r1, #1
    420c:	4308      	orrs	r0, r1
    420e:	e7e2      	b.n	41d6 <__gedf2+0x6a>
    4210:	455e      	cmp	r6, fp
    4212:	d8dd      	bhi.n	41d0 <__gedf2+0x64>
    4214:	d006      	beq.n	4224 <__gedf2+0xb8>
    4216:	2000      	movs	r0, #0
    4218:	455e      	cmp	r6, fp
    421a:	d2dc      	bcs.n	41d6 <__gedf2+0x6a>
    421c:	2301      	movs	r3, #1
    421e:	1e48      	subs	r0, r1, #1
    4220:	4318      	orrs	r0, r3
    4222:	e7d8      	b.n	41d6 <__gedf2+0x6a>
    4224:	45c4      	cmp	ip, r8
    4226:	d8d3      	bhi.n	41d0 <__gedf2+0x64>
    4228:	2000      	movs	r0, #0
    422a:	45c4      	cmp	ip, r8
    422c:	d3f6      	bcc.n	421c <__gedf2+0xb0>
    422e:	e7d2      	b.n	41d6 <__gedf2+0x6a>
    4230:	000007ff 	.word	0x000007ff

00004234 <__ledf2>:
    4234:	b5f0      	push	{r4, r5, r6, r7, lr}
    4236:	464e      	mov	r6, r9
    4238:	4645      	mov	r5, r8
    423a:	46de      	mov	lr, fp
    423c:	4657      	mov	r7, sl
    423e:	005c      	lsls	r4, r3, #1
    4240:	b5e0      	push	{r5, r6, r7, lr}
    4242:	031f      	lsls	r7, r3, #12
    4244:	0fdb      	lsrs	r3, r3, #31
    4246:	4699      	mov	r9, r3
    4248:	4b2a      	ldr	r3, [pc, #168]	; (42f4 <__ledf2+0xc0>)
    424a:	030e      	lsls	r6, r1, #12
    424c:	004d      	lsls	r5, r1, #1
    424e:	0fc9      	lsrs	r1, r1, #31
    4250:	4684      	mov	ip, r0
    4252:	0b36      	lsrs	r6, r6, #12
    4254:	0d6d      	lsrs	r5, r5, #21
    4256:	468b      	mov	fp, r1
    4258:	4690      	mov	r8, r2
    425a:	0b3f      	lsrs	r7, r7, #12
    425c:	0d64      	lsrs	r4, r4, #21
    425e:	429d      	cmp	r5, r3
    4260:	d020      	beq.n	42a4 <__ledf2+0x70>
    4262:	4b24      	ldr	r3, [pc, #144]	; (42f4 <__ledf2+0xc0>)
    4264:	429c      	cmp	r4, r3
    4266:	d022      	beq.n	42ae <__ledf2+0x7a>
    4268:	2d00      	cmp	r5, #0
    426a:	d112      	bne.n	4292 <__ledf2+0x5e>
    426c:	4330      	orrs	r0, r6
    426e:	4243      	negs	r3, r0
    4270:	4143      	adcs	r3, r0
    4272:	b2db      	uxtb	r3, r3
    4274:	2c00      	cmp	r4, #0
    4276:	d01f      	beq.n	42b8 <__ledf2+0x84>
    4278:	2b00      	cmp	r3, #0
    427a:	d00c      	beq.n	4296 <__ledf2+0x62>
    427c:	464b      	mov	r3, r9
    427e:	2001      	movs	r0, #1
    4280:	3b01      	subs	r3, #1
    4282:	4303      	orrs	r3, r0
    4284:	0018      	movs	r0, r3
    4286:	bc3c      	pop	{r2, r3, r4, r5}
    4288:	4690      	mov	r8, r2
    428a:	4699      	mov	r9, r3
    428c:	46a2      	mov	sl, r4
    428e:	46ab      	mov	fp, r5
    4290:	bdf0      	pop	{r4, r5, r6, r7, pc}
    4292:	2c00      	cmp	r4, #0
    4294:	d016      	beq.n	42c4 <__ledf2+0x90>
    4296:	45cb      	cmp	fp, r9
    4298:	d017      	beq.n	42ca <__ledf2+0x96>
    429a:	465b      	mov	r3, fp
    429c:	4259      	negs	r1, r3
    429e:	2301      	movs	r3, #1
    42a0:	430b      	orrs	r3, r1
    42a2:	e7ef      	b.n	4284 <__ledf2+0x50>
    42a4:	0031      	movs	r1, r6
    42a6:	2302      	movs	r3, #2
    42a8:	4301      	orrs	r1, r0
    42aa:	d1eb      	bne.n	4284 <__ledf2+0x50>
    42ac:	e7d9      	b.n	4262 <__ledf2+0x2e>
    42ae:	0039      	movs	r1, r7
    42b0:	2302      	movs	r3, #2
    42b2:	4311      	orrs	r1, r2
    42b4:	d1e6      	bne.n	4284 <__ledf2+0x50>
    42b6:	e7d7      	b.n	4268 <__ledf2+0x34>
    42b8:	433a      	orrs	r2, r7
    42ba:	d1dd      	bne.n	4278 <__ledf2+0x44>
    42bc:	2300      	movs	r3, #0
    42be:	2800      	cmp	r0, #0
    42c0:	d0e0      	beq.n	4284 <__ledf2+0x50>
    42c2:	e7ea      	b.n	429a <__ledf2+0x66>
    42c4:	433a      	orrs	r2, r7
    42c6:	d1e6      	bne.n	4296 <__ledf2+0x62>
    42c8:	e7e7      	b.n	429a <__ledf2+0x66>
    42ca:	42a5      	cmp	r5, r4
    42cc:	dce5      	bgt.n	429a <__ledf2+0x66>
    42ce:	db05      	blt.n	42dc <__ledf2+0xa8>
    42d0:	42be      	cmp	r6, r7
    42d2:	d8e2      	bhi.n	429a <__ledf2+0x66>
    42d4:	d007      	beq.n	42e6 <__ledf2+0xb2>
    42d6:	2300      	movs	r3, #0
    42d8:	42be      	cmp	r6, r7
    42da:	d2d3      	bcs.n	4284 <__ledf2+0x50>
    42dc:	4659      	mov	r1, fp
    42de:	2301      	movs	r3, #1
    42e0:	3901      	subs	r1, #1
    42e2:	430b      	orrs	r3, r1
    42e4:	e7ce      	b.n	4284 <__ledf2+0x50>
    42e6:	45c4      	cmp	ip, r8
    42e8:	d8d7      	bhi.n	429a <__ledf2+0x66>
    42ea:	2300      	movs	r3, #0
    42ec:	45c4      	cmp	ip, r8
    42ee:	d3f5      	bcc.n	42dc <__ledf2+0xa8>
    42f0:	e7c8      	b.n	4284 <__ledf2+0x50>
    42f2:	46c0      	nop			; (mov r8, r8)
    42f4:	000007ff 	.word	0x000007ff

000042f8 <__aeabi_dmul>:
    42f8:	b5f0      	push	{r4, r5, r6, r7, lr}
    42fa:	4657      	mov	r7, sl
    42fc:	4645      	mov	r5, r8
    42fe:	46de      	mov	lr, fp
    4300:	464e      	mov	r6, r9
    4302:	b5e0      	push	{r5, r6, r7, lr}
    4304:	030c      	lsls	r4, r1, #12
    4306:	4698      	mov	r8, r3
    4308:	004e      	lsls	r6, r1, #1
    430a:	0b23      	lsrs	r3, r4, #12
    430c:	b087      	sub	sp, #28
    430e:	0007      	movs	r7, r0
    4310:	4692      	mov	sl, r2
    4312:	469b      	mov	fp, r3
    4314:	0d76      	lsrs	r6, r6, #21
    4316:	0fcd      	lsrs	r5, r1, #31
    4318:	2e00      	cmp	r6, #0
    431a:	d06b      	beq.n	43f4 <__aeabi_dmul+0xfc>
    431c:	4b6d      	ldr	r3, [pc, #436]	; (44d4 <__aeabi_dmul+0x1dc>)
    431e:	429e      	cmp	r6, r3
    4320:	d035      	beq.n	438e <__aeabi_dmul+0x96>
    4322:	2480      	movs	r4, #128	; 0x80
    4324:	465b      	mov	r3, fp
    4326:	0f42      	lsrs	r2, r0, #29
    4328:	0424      	lsls	r4, r4, #16
    432a:	00db      	lsls	r3, r3, #3
    432c:	4314      	orrs	r4, r2
    432e:	431c      	orrs	r4, r3
    4330:	00c3      	lsls	r3, r0, #3
    4332:	4699      	mov	r9, r3
    4334:	4b68      	ldr	r3, [pc, #416]	; (44d8 <__aeabi_dmul+0x1e0>)
    4336:	46a3      	mov	fp, r4
    4338:	469c      	mov	ip, r3
    433a:	2300      	movs	r3, #0
    433c:	2700      	movs	r7, #0
    433e:	4466      	add	r6, ip
    4340:	9302      	str	r3, [sp, #8]
    4342:	4643      	mov	r3, r8
    4344:	031c      	lsls	r4, r3, #12
    4346:	005a      	lsls	r2, r3, #1
    4348:	0fdb      	lsrs	r3, r3, #31
    434a:	4650      	mov	r0, sl
    434c:	0b24      	lsrs	r4, r4, #12
    434e:	0d52      	lsrs	r2, r2, #21
    4350:	4698      	mov	r8, r3
    4352:	d100      	bne.n	4356 <__aeabi_dmul+0x5e>
    4354:	e076      	b.n	4444 <__aeabi_dmul+0x14c>
    4356:	4b5f      	ldr	r3, [pc, #380]	; (44d4 <__aeabi_dmul+0x1dc>)
    4358:	429a      	cmp	r2, r3
    435a:	d06d      	beq.n	4438 <__aeabi_dmul+0x140>
    435c:	2380      	movs	r3, #128	; 0x80
    435e:	0f41      	lsrs	r1, r0, #29
    4360:	041b      	lsls	r3, r3, #16
    4362:	430b      	orrs	r3, r1
    4364:	495c      	ldr	r1, [pc, #368]	; (44d8 <__aeabi_dmul+0x1e0>)
    4366:	00e4      	lsls	r4, r4, #3
    4368:	468c      	mov	ip, r1
    436a:	431c      	orrs	r4, r3
    436c:	00c3      	lsls	r3, r0, #3
    436e:	2000      	movs	r0, #0
    4370:	4462      	add	r2, ip
    4372:	4641      	mov	r1, r8
    4374:	18b6      	adds	r6, r6, r2
    4376:	4069      	eors	r1, r5
    4378:	1c72      	adds	r2, r6, #1
    437a:	9101      	str	r1, [sp, #4]
    437c:	4694      	mov	ip, r2
    437e:	4307      	orrs	r7, r0
    4380:	2f0f      	cmp	r7, #15
    4382:	d900      	bls.n	4386 <__aeabi_dmul+0x8e>
    4384:	e0b0      	b.n	44e8 <__aeabi_dmul+0x1f0>
    4386:	4a55      	ldr	r2, [pc, #340]	; (44dc <__aeabi_dmul+0x1e4>)
    4388:	00bf      	lsls	r7, r7, #2
    438a:	59d2      	ldr	r2, [r2, r7]
    438c:	4697      	mov	pc, r2
    438e:	465b      	mov	r3, fp
    4390:	4303      	orrs	r3, r0
    4392:	4699      	mov	r9, r3
    4394:	d000      	beq.n	4398 <__aeabi_dmul+0xa0>
    4396:	e087      	b.n	44a8 <__aeabi_dmul+0x1b0>
    4398:	2300      	movs	r3, #0
    439a:	469b      	mov	fp, r3
    439c:	3302      	adds	r3, #2
    439e:	2708      	movs	r7, #8
    43a0:	9302      	str	r3, [sp, #8]
    43a2:	e7ce      	b.n	4342 <__aeabi_dmul+0x4a>
    43a4:	4642      	mov	r2, r8
    43a6:	9201      	str	r2, [sp, #4]
    43a8:	2802      	cmp	r0, #2
    43aa:	d067      	beq.n	447c <__aeabi_dmul+0x184>
    43ac:	2803      	cmp	r0, #3
    43ae:	d100      	bne.n	43b2 <__aeabi_dmul+0xba>
    43b0:	e20e      	b.n	47d0 <__aeabi_dmul+0x4d8>
    43b2:	2801      	cmp	r0, #1
    43b4:	d000      	beq.n	43b8 <__aeabi_dmul+0xc0>
    43b6:	e162      	b.n	467e <__aeabi_dmul+0x386>
    43b8:	2300      	movs	r3, #0
    43ba:	2400      	movs	r4, #0
    43bc:	2200      	movs	r2, #0
    43be:	4699      	mov	r9, r3
    43c0:	9901      	ldr	r1, [sp, #4]
    43c2:	4001      	ands	r1, r0
    43c4:	b2cd      	uxtb	r5, r1
    43c6:	2100      	movs	r1, #0
    43c8:	0312      	lsls	r2, r2, #12
    43ca:	0d0b      	lsrs	r3, r1, #20
    43cc:	0b12      	lsrs	r2, r2, #12
    43ce:	051b      	lsls	r3, r3, #20
    43d0:	4313      	orrs	r3, r2
    43d2:	4a43      	ldr	r2, [pc, #268]	; (44e0 <__aeabi_dmul+0x1e8>)
    43d4:	0524      	lsls	r4, r4, #20
    43d6:	4013      	ands	r3, r2
    43d8:	431c      	orrs	r4, r3
    43da:	0064      	lsls	r4, r4, #1
    43dc:	07ed      	lsls	r5, r5, #31
    43de:	0864      	lsrs	r4, r4, #1
    43e0:	432c      	orrs	r4, r5
    43e2:	4648      	mov	r0, r9
    43e4:	0021      	movs	r1, r4
    43e6:	b007      	add	sp, #28
    43e8:	bc3c      	pop	{r2, r3, r4, r5}
    43ea:	4690      	mov	r8, r2
    43ec:	4699      	mov	r9, r3
    43ee:	46a2      	mov	sl, r4
    43f0:	46ab      	mov	fp, r5
    43f2:	bdf0      	pop	{r4, r5, r6, r7, pc}
    43f4:	4303      	orrs	r3, r0
    43f6:	4699      	mov	r9, r3
    43f8:	d04f      	beq.n	449a <__aeabi_dmul+0x1a2>
    43fa:	465b      	mov	r3, fp
    43fc:	2b00      	cmp	r3, #0
    43fe:	d100      	bne.n	4402 <__aeabi_dmul+0x10a>
    4400:	e189      	b.n	4716 <__aeabi_dmul+0x41e>
    4402:	4658      	mov	r0, fp
    4404:	f000 feb8 	bl	5178 <__clzsi2>
    4408:	0003      	movs	r3, r0
    440a:	3b0b      	subs	r3, #11
    440c:	2b1c      	cmp	r3, #28
    440e:	dd00      	ble.n	4412 <__aeabi_dmul+0x11a>
    4410:	e17a      	b.n	4708 <__aeabi_dmul+0x410>
    4412:	221d      	movs	r2, #29
    4414:	1ad3      	subs	r3, r2, r3
    4416:	003a      	movs	r2, r7
    4418:	0001      	movs	r1, r0
    441a:	465c      	mov	r4, fp
    441c:	40da      	lsrs	r2, r3
    441e:	3908      	subs	r1, #8
    4420:	408c      	lsls	r4, r1
    4422:	0013      	movs	r3, r2
    4424:	408f      	lsls	r7, r1
    4426:	4323      	orrs	r3, r4
    4428:	469b      	mov	fp, r3
    442a:	46b9      	mov	r9, r7
    442c:	2300      	movs	r3, #0
    442e:	4e2d      	ldr	r6, [pc, #180]	; (44e4 <__aeabi_dmul+0x1ec>)
    4430:	2700      	movs	r7, #0
    4432:	1a36      	subs	r6, r6, r0
    4434:	9302      	str	r3, [sp, #8]
    4436:	e784      	b.n	4342 <__aeabi_dmul+0x4a>
    4438:	4653      	mov	r3, sl
    443a:	4323      	orrs	r3, r4
    443c:	d12a      	bne.n	4494 <__aeabi_dmul+0x19c>
    443e:	2400      	movs	r4, #0
    4440:	2002      	movs	r0, #2
    4442:	e796      	b.n	4372 <__aeabi_dmul+0x7a>
    4444:	4653      	mov	r3, sl
    4446:	4323      	orrs	r3, r4
    4448:	d020      	beq.n	448c <__aeabi_dmul+0x194>
    444a:	2c00      	cmp	r4, #0
    444c:	d100      	bne.n	4450 <__aeabi_dmul+0x158>
    444e:	e157      	b.n	4700 <__aeabi_dmul+0x408>
    4450:	0020      	movs	r0, r4
    4452:	f000 fe91 	bl	5178 <__clzsi2>
    4456:	0003      	movs	r3, r0
    4458:	3b0b      	subs	r3, #11
    445a:	2b1c      	cmp	r3, #28
    445c:	dd00      	ble.n	4460 <__aeabi_dmul+0x168>
    445e:	e149      	b.n	46f4 <__aeabi_dmul+0x3fc>
    4460:	211d      	movs	r1, #29
    4462:	1acb      	subs	r3, r1, r3
    4464:	4651      	mov	r1, sl
    4466:	0002      	movs	r2, r0
    4468:	40d9      	lsrs	r1, r3
    446a:	4653      	mov	r3, sl
    446c:	3a08      	subs	r2, #8
    446e:	4094      	lsls	r4, r2
    4470:	4093      	lsls	r3, r2
    4472:	430c      	orrs	r4, r1
    4474:	4a1b      	ldr	r2, [pc, #108]	; (44e4 <__aeabi_dmul+0x1ec>)
    4476:	1a12      	subs	r2, r2, r0
    4478:	2000      	movs	r0, #0
    447a:	e77a      	b.n	4372 <__aeabi_dmul+0x7a>
    447c:	2501      	movs	r5, #1
    447e:	9b01      	ldr	r3, [sp, #4]
    4480:	4c14      	ldr	r4, [pc, #80]	; (44d4 <__aeabi_dmul+0x1dc>)
    4482:	401d      	ands	r5, r3
    4484:	2300      	movs	r3, #0
    4486:	2200      	movs	r2, #0
    4488:	4699      	mov	r9, r3
    448a:	e79c      	b.n	43c6 <__aeabi_dmul+0xce>
    448c:	2400      	movs	r4, #0
    448e:	2200      	movs	r2, #0
    4490:	2001      	movs	r0, #1
    4492:	e76e      	b.n	4372 <__aeabi_dmul+0x7a>
    4494:	4653      	mov	r3, sl
    4496:	2003      	movs	r0, #3
    4498:	e76b      	b.n	4372 <__aeabi_dmul+0x7a>
    449a:	2300      	movs	r3, #0
    449c:	469b      	mov	fp, r3
    449e:	3301      	adds	r3, #1
    44a0:	2704      	movs	r7, #4
    44a2:	2600      	movs	r6, #0
    44a4:	9302      	str	r3, [sp, #8]
    44a6:	e74c      	b.n	4342 <__aeabi_dmul+0x4a>
    44a8:	2303      	movs	r3, #3
    44aa:	4681      	mov	r9, r0
    44ac:	270c      	movs	r7, #12
    44ae:	9302      	str	r3, [sp, #8]
    44b0:	e747      	b.n	4342 <__aeabi_dmul+0x4a>
    44b2:	2280      	movs	r2, #128	; 0x80
    44b4:	2300      	movs	r3, #0
    44b6:	2500      	movs	r5, #0
    44b8:	0312      	lsls	r2, r2, #12
    44ba:	4699      	mov	r9, r3
    44bc:	4c05      	ldr	r4, [pc, #20]	; (44d4 <__aeabi_dmul+0x1dc>)
    44be:	e782      	b.n	43c6 <__aeabi_dmul+0xce>
    44c0:	465c      	mov	r4, fp
    44c2:	464b      	mov	r3, r9
    44c4:	9802      	ldr	r0, [sp, #8]
    44c6:	e76f      	b.n	43a8 <__aeabi_dmul+0xb0>
    44c8:	465c      	mov	r4, fp
    44ca:	464b      	mov	r3, r9
    44cc:	9501      	str	r5, [sp, #4]
    44ce:	9802      	ldr	r0, [sp, #8]
    44d0:	e76a      	b.n	43a8 <__aeabi_dmul+0xb0>
    44d2:	46c0      	nop			; (mov r8, r8)
    44d4:	000007ff 	.word	0x000007ff
    44d8:	fffffc01 	.word	0xfffffc01
    44dc:	0000a320 	.word	0x0000a320
    44e0:	800fffff 	.word	0x800fffff
    44e4:	fffffc0d 	.word	0xfffffc0d
    44e8:	464a      	mov	r2, r9
    44ea:	4649      	mov	r1, r9
    44ec:	0c17      	lsrs	r7, r2, #16
    44ee:	0c1a      	lsrs	r2, r3, #16
    44f0:	041b      	lsls	r3, r3, #16
    44f2:	0c1b      	lsrs	r3, r3, #16
    44f4:	0408      	lsls	r0, r1, #16
    44f6:	0019      	movs	r1, r3
    44f8:	0c00      	lsrs	r0, r0, #16
    44fa:	4341      	muls	r1, r0
    44fc:	0015      	movs	r5, r2
    44fe:	4688      	mov	r8, r1
    4500:	0019      	movs	r1, r3
    4502:	437d      	muls	r5, r7
    4504:	4379      	muls	r1, r7
    4506:	9503      	str	r5, [sp, #12]
    4508:	4689      	mov	r9, r1
    450a:	0029      	movs	r1, r5
    450c:	0015      	movs	r5, r2
    450e:	4345      	muls	r5, r0
    4510:	444d      	add	r5, r9
    4512:	9502      	str	r5, [sp, #8]
    4514:	4645      	mov	r5, r8
    4516:	0c2d      	lsrs	r5, r5, #16
    4518:	46aa      	mov	sl, r5
    451a:	9d02      	ldr	r5, [sp, #8]
    451c:	4455      	add	r5, sl
    451e:	45a9      	cmp	r9, r5
    4520:	d906      	bls.n	4530 <__aeabi_dmul+0x238>
    4522:	468a      	mov	sl, r1
    4524:	2180      	movs	r1, #128	; 0x80
    4526:	0249      	lsls	r1, r1, #9
    4528:	4689      	mov	r9, r1
    452a:	44ca      	add	sl, r9
    452c:	4651      	mov	r1, sl
    452e:	9103      	str	r1, [sp, #12]
    4530:	0c29      	lsrs	r1, r5, #16
    4532:	9104      	str	r1, [sp, #16]
    4534:	4641      	mov	r1, r8
    4536:	0409      	lsls	r1, r1, #16
    4538:	042d      	lsls	r5, r5, #16
    453a:	0c09      	lsrs	r1, r1, #16
    453c:	4688      	mov	r8, r1
    453e:	0029      	movs	r1, r5
    4540:	0c25      	lsrs	r5, r4, #16
    4542:	0424      	lsls	r4, r4, #16
    4544:	4441      	add	r1, r8
    4546:	0c24      	lsrs	r4, r4, #16
    4548:	9105      	str	r1, [sp, #20]
    454a:	0021      	movs	r1, r4
    454c:	4341      	muls	r1, r0
    454e:	4688      	mov	r8, r1
    4550:	0021      	movs	r1, r4
    4552:	4379      	muls	r1, r7
    4554:	468a      	mov	sl, r1
    4556:	4368      	muls	r0, r5
    4558:	4641      	mov	r1, r8
    455a:	4450      	add	r0, sl
    455c:	4681      	mov	r9, r0
    455e:	0c08      	lsrs	r0, r1, #16
    4560:	4448      	add	r0, r9
    4562:	436f      	muls	r7, r5
    4564:	4582      	cmp	sl, r0
    4566:	d903      	bls.n	4570 <__aeabi_dmul+0x278>
    4568:	2180      	movs	r1, #128	; 0x80
    456a:	0249      	lsls	r1, r1, #9
    456c:	4689      	mov	r9, r1
    456e:	444f      	add	r7, r9
    4570:	0c01      	lsrs	r1, r0, #16
    4572:	4689      	mov	r9, r1
    4574:	0039      	movs	r1, r7
    4576:	4449      	add	r1, r9
    4578:	9102      	str	r1, [sp, #8]
    457a:	4641      	mov	r1, r8
    457c:	040f      	lsls	r7, r1, #16
    457e:	9904      	ldr	r1, [sp, #16]
    4580:	0c3f      	lsrs	r7, r7, #16
    4582:	4688      	mov	r8, r1
    4584:	0400      	lsls	r0, r0, #16
    4586:	19c0      	adds	r0, r0, r7
    4588:	4480      	add	r8, r0
    458a:	4641      	mov	r1, r8
    458c:	9104      	str	r1, [sp, #16]
    458e:	4659      	mov	r1, fp
    4590:	0c0f      	lsrs	r7, r1, #16
    4592:	0409      	lsls	r1, r1, #16
    4594:	0c09      	lsrs	r1, r1, #16
    4596:	4688      	mov	r8, r1
    4598:	4359      	muls	r1, r3
    459a:	468a      	mov	sl, r1
    459c:	0039      	movs	r1, r7
    459e:	4351      	muls	r1, r2
    45a0:	4689      	mov	r9, r1
    45a2:	4641      	mov	r1, r8
    45a4:	434a      	muls	r2, r1
    45a6:	4651      	mov	r1, sl
    45a8:	0c09      	lsrs	r1, r1, #16
    45aa:	468b      	mov	fp, r1
    45ac:	437b      	muls	r3, r7
    45ae:	18d2      	adds	r2, r2, r3
    45b0:	445a      	add	r2, fp
    45b2:	4293      	cmp	r3, r2
    45b4:	d903      	bls.n	45be <__aeabi_dmul+0x2c6>
    45b6:	2380      	movs	r3, #128	; 0x80
    45b8:	025b      	lsls	r3, r3, #9
    45ba:	469b      	mov	fp, r3
    45bc:	44d9      	add	r9, fp
    45be:	4651      	mov	r1, sl
    45c0:	0409      	lsls	r1, r1, #16
    45c2:	0c09      	lsrs	r1, r1, #16
    45c4:	468a      	mov	sl, r1
    45c6:	4641      	mov	r1, r8
    45c8:	4361      	muls	r1, r4
    45ca:	437c      	muls	r4, r7
    45cc:	0c13      	lsrs	r3, r2, #16
    45ce:	0412      	lsls	r2, r2, #16
    45d0:	444b      	add	r3, r9
    45d2:	4452      	add	r2, sl
    45d4:	46a1      	mov	r9, r4
    45d6:	468a      	mov	sl, r1
    45d8:	003c      	movs	r4, r7
    45da:	4641      	mov	r1, r8
    45dc:	436c      	muls	r4, r5
    45de:	434d      	muls	r5, r1
    45e0:	4651      	mov	r1, sl
    45e2:	444d      	add	r5, r9
    45e4:	0c0f      	lsrs	r7, r1, #16
    45e6:	197d      	adds	r5, r7, r5
    45e8:	45a9      	cmp	r9, r5
    45ea:	d903      	bls.n	45f4 <__aeabi_dmul+0x2fc>
    45ec:	2180      	movs	r1, #128	; 0x80
    45ee:	0249      	lsls	r1, r1, #9
    45f0:	4688      	mov	r8, r1
    45f2:	4444      	add	r4, r8
    45f4:	9f04      	ldr	r7, [sp, #16]
    45f6:	9903      	ldr	r1, [sp, #12]
    45f8:	46b8      	mov	r8, r7
    45fa:	4441      	add	r1, r8
    45fc:	468b      	mov	fp, r1
    45fe:	4583      	cmp	fp, r0
    4600:	4180      	sbcs	r0, r0
    4602:	4241      	negs	r1, r0
    4604:	4688      	mov	r8, r1
    4606:	4651      	mov	r1, sl
    4608:	0408      	lsls	r0, r1, #16
    460a:	042f      	lsls	r7, r5, #16
    460c:	0c00      	lsrs	r0, r0, #16
    460e:	183f      	adds	r7, r7, r0
    4610:	4658      	mov	r0, fp
    4612:	9902      	ldr	r1, [sp, #8]
    4614:	1810      	adds	r0, r2, r0
    4616:	4689      	mov	r9, r1
    4618:	4290      	cmp	r0, r2
    461a:	4192      	sbcs	r2, r2
    461c:	444f      	add	r7, r9
    461e:	46ba      	mov	sl, r7
    4620:	4252      	negs	r2, r2
    4622:	4699      	mov	r9, r3
    4624:	4693      	mov	fp, r2
    4626:	44c2      	add	sl, r8
    4628:	44d1      	add	r9, sl
    462a:	44cb      	add	fp, r9
    462c:	428f      	cmp	r7, r1
    462e:	41bf      	sbcs	r7, r7
    4630:	45c2      	cmp	sl, r8
    4632:	4189      	sbcs	r1, r1
    4634:	4599      	cmp	r9, r3
    4636:	419b      	sbcs	r3, r3
    4638:	4593      	cmp	fp, r2
    463a:	4192      	sbcs	r2, r2
    463c:	427f      	negs	r7, r7
    463e:	4249      	negs	r1, r1
    4640:	0c2d      	lsrs	r5, r5, #16
    4642:	4252      	negs	r2, r2
    4644:	430f      	orrs	r7, r1
    4646:	425b      	negs	r3, r3
    4648:	4313      	orrs	r3, r2
    464a:	197f      	adds	r7, r7, r5
    464c:	18ff      	adds	r7, r7, r3
    464e:	465b      	mov	r3, fp
    4650:	193c      	adds	r4, r7, r4
    4652:	0ddb      	lsrs	r3, r3, #23
    4654:	9a05      	ldr	r2, [sp, #20]
    4656:	0264      	lsls	r4, r4, #9
    4658:	431c      	orrs	r4, r3
    465a:	0243      	lsls	r3, r0, #9
    465c:	4313      	orrs	r3, r2
    465e:	1e5d      	subs	r5, r3, #1
    4660:	41ab      	sbcs	r3, r5
    4662:	465a      	mov	r2, fp
    4664:	0dc0      	lsrs	r0, r0, #23
    4666:	4303      	orrs	r3, r0
    4668:	0252      	lsls	r2, r2, #9
    466a:	4313      	orrs	r3, r2
    466c:	01e2      	lsls	r2, r4, #7
    466e:	d556      	bpl.n	471e <__aeabi_dmul+0x426>
    4670:	2001      	movs	r0, #1
    4672:	085a      	lsrs	r2, r3, #1
    4674:	4003      	ands	r3, r0
    4676:	4313      	orrs	r3, r2
    4678:	07e2      	lsls	r2, r4, #31
    467a:	4313      	orrs	r3, r2
    467c:	0864      	lsrs	r4, r4, #1
    467e:	485a      	ldr	r0, [pc, #360]	; (47e8 <__aeabi_dmul+0x4f0>)
    4680:	4460      	add	r0, ip
    4682:	2800      	cmp	r0, #0
    4684:	dd4d      	ble.n	4722 <__aeabi_dmul+0x42a>
    4686:	075a      	lsls	r2, r3, #29
    4688:	d009      	beq.n	469e <__aeabi_dmul+0x3a6>
    468a:	220f      	movs	r2, #15
    468c:	401a      	ands	r2, r3
    468e:	2a04      	cmp	r2, #4
    4690:	d005      	beq.n	469e <__aeabi_dmul+0x3a6>
    4692:	1d1a      	adds	r2, r3, #4
    4694:	429a      	cmp	r2, r3
    4696:	419b      	sbcs	r3, r3
    4698:	425b      	negs	r3, r3
    469a:	18e4      	adds	r4, r4, r3
    469c:	0013      	movs	r3, r2
    469e:	01e2      	lsls	r2, r4, #7
    46a0:	d504      	bpl.n	46ac <__aeabi_dmul+0x3b4>
    46a2:	2080      	movs	r0, #128	; 0x80
    46a4:	4a51      	ldr	r2, [pc, #324]	; (47ec <__aeabi_dmul+0x4f4>)
    46a6:	00c0      	lsls	r0, r0, #3
    46a8:	4014      	ands	r4, r2
    46aa:	4460      	add	r0, ip
    46ac:	4a50      	ldr	r2, [pc, #320]	; (47f0 <__aeabi_dmul+0x4f8>)
    46ae:	4290      	cmp	r0, r2
    46b0:	dd00      	ble.n	46b4 <__aeabi_dmul+0x3bc>
    46b2:	e6e3      	b.n	447c <__aeabi_dmul+0x184>
    46b4:	2501      	movs	r5, #1
    46b6:	08db      	lsrs	r3, r3, #3
    46b8:	0762      	lsls	r2, r4, #29
    46ba:	431a      	orrs	r2, r3
    46bc:	0264      	lsls	r4, r4, #9
    46be:	9b01      	ldr	r3, [sp, #4]
    46c0:	4691      	mov	r9, r2
    46c2:	0b22      	lsrs	r2, r4, #12
    46c4:	0544      	lsls	r4, r0, #21
    46c6:	0d64      	lsrs	r4, r4, #21
    46c8:	401d      	ands	r5, r3
    46ca:	e67c      	b.n	43c6 <__aeabi_dmul+0xce>
    46cc:	2280      	movs	r2, #128	; 0x80
    46ce:	4659      	mov	r1, fp
    46d0:	0312      	lsls	r2, r2, #12
    46d2:	4211      	tst	r1, r2
    46d4:	d008      	beq.n	46e8 <__aeabi_dmul+0x3f0>
    46d6:	4214      	tst	r4, r2
    46d8:	d106      	bne.n	46e8 <__aeabi_dmul+0x3f0>
    46da:	4322      	orrs	r2, r4
    46dc:	0312      	lsls	r2, r2, #12
    46de:	0b12      	lsrs	r2, r2, #12
    46e0:	4645      	mov	r5, r8
    46e2:	4699      	mov	r9, r3
    46e4:	4c43      	ldr	r4, [pc, #268]	; (47f4 <__aeabi_dmul+0x4fc>)
    46e6:	e66e      	b.n	43c6 <__aeabi_dmul+0xce>
    46e8:	465b      	mov	r3, fp
    46ea:	431a      	orrs	r2, r3
    46ec:	0312      	lsls	r2, r2, #12
    46ee:	0b12      	lsrs	r2, r2, #12
    46f0:	4c40      	ldr	r4, [pc, #256]	; (47f4 <__aeabi_dmul+0x4fc>)
    46f2:	e668      	b.n	43c6 <__aeabi_dmul+0xce>
    46f4:	0003      	movs	r3, r0
    46f6:	4654      	mov	r4, sl
    46f8:	3b28      	subs	r3, #40	; 0x28
    46fa:	409c      	lsls	r4, r3
    46fc:	2300      	movs	r3, #0
    46fe:	e6b9      	b.n	4474 <__aeabi_dmul+0x17c>
    4700:	f000 fd3a 	bl	5178 <__clzsi2>
    4704:	3020      	adds	r0, #32
    4706:	e6a6      	b.n	4456 <__aeabi_dmul+0x15e>
    4708:	0003      	movs	r3, r0
    470a:	3b28      	subs	r3, #40	; 0x28
    470c:	409f      	lsls	r7, r3
    470e:	2300      	movs	r3, #0
    4710:	46bb      	mov	fp, r7
    4712:	4699      	mov	r9, r3
    4714:	e68a      	b.n	442c <__aeabi_dmul+0x134>
    4716:	f000 fd2f 	bl	5178 <__clzsi2>
    471a:	3020      	adds	r0, #32
    471c:	e674      	b.n	4408 <__aeabi_dmul+0x110>
    471e:	46b4      	mov	ip, r6
    4720:	e7ad      	b.n	467e <__aeabi_dmul+0x386>
    4722:	2501      	movs	r5, #1
    4724:	1a2a      	subs	r2, r5, r0
    4726:	2a38      	cmp	r2, #56	; 0x38
    4728:	dd06      	ble.n	4738 <__aeabi_dmul+0x440>
    472a:	9b01      	ldr	r3, [sp, #4]
    472c:	2400      	movs	r4, #0
    472e:	401d      	ands	r5, r3
    4730:	2300      	movs	r3, #0
    4732:	2200      	movs	r2, #0
    4734:	4699      	mov	r9, r3
    4736:	e646      	b.n	43c6 <__aeabi_dmul+0xce>
    4738:	2a1f      	cmp	r2, #31
    473a:	dc21      	bgt.n	4780 <__aeabi_dmul+0x488>
    473c:	2520      	movs	r5, #32
    473e:	0020      	movs	r0, r4
    4740:	1aad      	subs	r5, r5, r2
    4742:	001e      	movs	r6, r3
    4744:	40ab      	lsls	r3, r5
    4746:	40a8      	lsls	r0, r5
    4748:	40d6      	lsrs	r6, r2
    474a:	1e5d      	subs	r5, r3, #1
    474c:	41ab      	sbcs	r3, r5
    474e:	4330      	orrs	r0, r6
    4750:	4318      	orrs	r0, r3
    4752:	40d4      	lsrs	r4, r2
    4754:	0743      	lsls	r3, r0, #29
    4756:	d009      	beq.n	476c <__aeabi_dmul+0x474>
    4758:	230f      	movs	r3, #15
    475a:	4003      	ands	r3, r0
    475c:	2b04      	cmp	r3, #4
    475e:	d005      	beq.n	476c <__aeabi_dmul+0x474>
    4760:	0003      	movs	r3, r0
    4762:	1d18      	adds	r0, r3, #4
    4764:	4298      	cmp	r0, r3
    4766:	419b      	sbcs	r3, r3
    4768:	425b      	negs	r3, r3
    476a:	18e4      	adds	r4, r4, r3
    476c:	0223      	lsls	r3, r4, #8
    476e:	d521      	bpl.n	47b4 <__aeabi_dmul+0x4bc>
    4770:	2501      	movs	r5, #1
    4772:	9b01      	ldr	r3, [sp, #4]
    4774:	2401      	movs	r4, #1
    4776:	401d      	ands	r5, r3
    4778:	2300      	movs	r3, #0
    477a:	2200      	movs	r2, #0
    477c:	4699      	mov	r9, r3
    477e:	e622      	b.n	43c6 <__aeabi_dmul+0xce>
    4780:	251f      	movs	r5, #31
    4782:	0021      	movs	r1, r4
    4784:	426d      	negs	r5, r5
    4786:	1a28      	subs	r0, r5, r0
    4788:	40c1      	lsrs	r1, r0
    478a:	0008      	movs	r0, r1
    478c:	2a20      	cmp	r2, #32
    478e:	d01d      	beq.n	47cc <__aeabi_dmul+0x4d4>
    4790:	355f      	adds	r5, #95	; 0x5f
    4792:	1aaa      	subs	r2, r5, r2
    4794:	4094      	lsls	r4, r2
    4796:	4323      	orrs	r3, r4
    4798:	1e5c      	subs	r4, r3, #1
    479a:	41a3      	sbcs	r3, r4
    479c:	2507      	movs	r5, #7
    479e:	4303      	orrs	r3, r0
    47a0:	401d      	ands	r5, r3
    47a2:	2200      	movs	r2, #0
    47a4:	2d00      	cmp	r5, #0
    47a6:	d009      	beq.n	47bc <__aeabi_dmul+0x4c4>
    47a8:	220f      	movs	r2, #15
    47aa:	2400      	movs	r4, #0
    47ac:	401a      	ands	r2, r3
    47ae:	0018      	movs	r0, r3
    47b0:	2a04      	cmp	r2, #4
    47b2:	d1d6      	bne.n	4762 <__aeabi_dmul+0x46a>
    47b4:	0003      	movs	r3, r0
    47b6:	0765      	lsls	r5, r4, #29
    47b8:	0264      	lsls	r4, r4, #9
    47ba:	0b22      	lsrs	r2, r4, #12
    47bc:	08db      	lsrs	r3, r3, #3
    47be:	432b      	orrs	r3, r5
    47c0:	2501      	movs	r5, #1
    47c2:	4699      	mov	r9, r3
    47c4:	9b01      	ldr	r3, [sp, #4]
    47c6:	2400      	movs	r4, #0
    47c8:	401d      	ands	r5, r3
    47ca:	e5fc      	b.n	43c6 <__aeabi_dmul+0xce>
    47cc:	2400      	movs	r4, #0
    47ce:	e7e2      	b.n	4796 <__aeabi_dmul+0x49e>
    47d0:	2280      	movs	r2, #128	; 0x80
    47d2:	2501      	movs	r5, #1
    47d4:	0312      	lsls	r2, r2, #12
    47d6:	4322      	orrs	r2, r4
    47d8:	9901      	ldr	r1, [sp, #4]
    47da:	0312      	lsls	r2, r2, #12
    47dc:	0b12      	lsrs	r2, r2, #12
    47de:	400d      	ands	r5, r1
    47e0:	4699      	mov	r9, r3
    47e2:	4c04      	ldr	r4, [pc, #16]	; (47f4 <__aeabi_dmul+0x4fc>)
    47e4:	e5ef      	b.n	43c6 <__aeabi_dmul+0xce>
    47e6:	46c0      	nop			; (mov r8, r8)
    47e8:	000003ff 	.word	0x000003ff
    47ec:	feffffff 	.word	0xfeffffff
    47f0:	000007fe 	.word	0x000007fe
    47f4:	000007ff 	.word	0x000007ff

000047f8 <__aeabi_dsub>:
    47f8:	b5f0      	push	{r4, r5, r6, r7, lr}
    47fa:	4646      	mov	r6, r8
    47fc:	46d6      	mov	lr, sl
    47fe:	464f      	mov	r7, r9
    4800:	030c      	lsls	r4, r1, #12
    4802:	b5c0      	push	{r6, r7, lr}
    4804:	0fcd      	lsrs	r5, r1, #31
    4806:	004e      	lsls	r6, r1, #1
    4808:	0a61      	lsrs	r1, r4, #9
    480a:	0f44      	lsrs	r4, r0, #29
    480c:	430c      	orrs	r4, r1
    480e:	00c1      	lsls	r1, r0, #3
    4810:	0058      	lsls	r0, r3, #1
    4812:	0d40      	lsrs	r0, r0, #21
    4814:	4684      	mov	ip, r0
    4816:	468a      	mov	sl, r1
    4818:	000f      	movs	r7, r1
    481a:	0319      	lsls	r1, r3, #12
    481c:	0f50      	lsrs	r0, r2, #29
    481e:	0a49      	lsrs	r1, r1, #9
    4820:	4301      	orrs	r1, r0
    4822:	48c6      	ldr	r0, [pc, #792]	; (4b3c <__aeabi_dsub+0x344>)
    4824:	0d76      	lsrs	r6, r6, #21
    4826:	46a8      	mov	r8, r5
    4828:	0fdb      	lsrs	r3, r3, #31
    482a:	00d2      	lsls	r2, r2, #3
    482c:	4584      	cmp	ip, r0
    482e:	d100      	bne.n	4832 <__aeabi_dsub+0x3a>
    4830:	e0d8      	b.n	49e4 <__aeabi_dsub+0x1ec>
    4832:	2001      	movs	r0, #1
    4834:	4043      	eors	r3, r0
    4836:	42ab      	cmp	r3, r5
    4838:	d100      	bne.n	483c <__aeabi_dsub+0x44>
    483a:	e0a6      	b.n	498a <__aeabi_dsub+0x192>
    483c:	4660      	mov	r0, ip
    483e:	1a35      	subs	r5, r6, r0
    4840:	2d00      	cmp	r5, #0
    4842:	dc00      	bgt.n	4846 <__aeabi_dsub+0x4e>
    4844:	e105      	b.n	4a52 <__aeabi_dsub+0x25a>
    4846:	2800      	cmp	r0, #0
    4848:	d110      	bne.n	486c <__aeabi_dsub+0x74>
    484a:	000b      	movs	r3, r1
    484c:	4313      	orrs	r3, r2
    484e:	d100      	bne.n	4852 <__aeabi_dsub+0x5a>
    4850:	e0d7      	b.n	4a02 <__aeabi_dsub+0x20a>
    4852:	1e6b      	subs	r3, r5, #1
    4854:	2b00      	cmp	r3, #0
    4856:	d000      	beq.n	485a <__aeabi_dsub+0x62>
    4858:	e14b      	b.n	4af2 <__aeabi_dsub+0x2fa>
    485a:	4653      	mov	r3, sl
    485c:	1a9f      	subs	r7, r3, r2
    485e:	45ba      	cmp	sl, r7
    4860:	4180      	sbcs	r0, r0
    4862:	1a64      	subs	r4, r4, r1
    4864:	4240      	negs	r0, r0
    4866:	1a24      	subs	r4, r4, r0
    4868:	2601      	movs	r6, #1
    486a:	e01e      	b.n	48aa <__aeabi_dsub+0xb2>
    486c:	4bb3      	ldr	r3, [pc, #716]	; (4b3c <__aeabi_dsub+0x344>)
    486e:	429e      	cmp	r6, r3
    4870:	d048      	beq.n	4904 <__aeabi_dsub+0x10c>
    4872:	2380      	movs	r3, #128	; 0x80
    4874:	041b      	lsls	r3, r3, #16
    4876:	4319      	orrs	r1, r3
    4878:	2d38      	cmp	r5, #56	; 0x38
    487a:	dd00      	ble.n	487e <__aeabi_dsub+0x86>
    487c:	e119      	b.n	4ab2 <__aeabi_dsub+0x2ba>
    487e:	2d1f      	cmp	r5, #31
    4880:	dd00      	ble.n	4884 <__aeabi_dsub+0x8c>
    4882:	e14c      	b.n	4b1e <__aeabi_dsub+0x326>
    4884:	2320      	movs	r3, #32
    4886:	000f      	movs	r7, r1
    4888:	1b5b      	subs	r3, r3, r5
    488a:	0010      	movs	r0, r2
    488c:	409a      	lsls	r2, r3
    488e:	409f      	lsls	r7, r3
    4890:	40e8      	lsrs	r0, r5
    4892:	1e53      	subs	r3, r2, #1
    4894:	419a      	sbcs	r2, r3
    4896:	40e9      	lsrs	r1, r5
    4898:	4307      	orrs	r7, r0
    489a:	4317      	orrs	r7, r2
    489c:	4653      	mov	r3, sl
    489e:	1bdf      	subs	r7, r3, r7
    48a0:	1a61      	subs	r1, r4, r1
    48a2:	45ba      	cmp	sl, r7
    48a4:	41a4      	sbcs	r4, r4
    48a6:	4264      	negs	r4, r4
    48a8:	1b0c      	subs	r4, r1, r4
    48aa:	0223      	lsls	r3, r4, #8
    48ac:	d400      	bmi.n	48b0 <__aeabi_dsub+0xb8>
    48ae:	e0c5      	b.n	4a3c <__aeabi_dsub+0x244>
    48b0:	0264      	lsls	r4, r4, #9
    48b2:	0a65      	lsrs	r5, r4, #9
    48b4:	2d00      	cmp	r5, #0
    48b6:	d100      	bne.n	48ba <__aeabi_dsub+0xc2>
    48b8:	e0f6      	b.n	4aa8 <__aeabi_dsub+0x2b0>
    48ba:	0028      	movs	r0, r5
    48bc:	f000 fc5c 	bl	5178 <__clzsi2>
    48c0:	0003      	movs	r3, r0
    48c2:	3b08      	subs	r3, #8
    48c4:	2b1f      	cmp	r3, #31
    48c6:	dd00      	ble.n	48ca <__aeabi_dsub+0xd2>
    48c8:	e0e9      	b.n	4a9e <__aeabi_dsub+0x2a6>
    48ca:	2220      	movs	r2, #32
    48cc:	003c      	movs	r4, r7
    48ce:	1ad2      	subs	r2, r2, r3
    48d0:	409d      	lsls	r5, r3
    48d2:	40d4      	lsrs	r4, r2
    48d4:	409f      	lsls	r7, r3
    48d6:	4325      	orrs	r5, r4
    48d8:	429e      	cmp	r6, r3
    48da:	dd00      	ble.n	48de <__aeabi_dsub+0xe6>
    48dc:	e0db      	b.n	4a96 <__aeabi_dsub+0x29e>
    48de:	1b9e      	subs	r6, r3, r6
    48e0:	1c73      	adds	r3, r6, #1
    48e2:	2b1f      	cmp	r3, #31
    48e4:	dd00      	ble.n	48e8 <__aeabi_dsub+0xf0>
    48e6:	e10a      	b.n	4afe <__aeabi_dsub+0x306>
    48e8:	2220      	movs	r2, #32
    48ea:	0038      	movs	r0, r7
    48ec:	1ad2      	subs	r2, r2, r3
    48ee:	0029      	movs	r1, r5
    48f0:	4097      	lsls	r7, r2
    48f2:	002c      	movs	r4, r5
    48f4:	4091      	lsls	r1, r2
    48f6:	40d8      	lsrs	r0, r3
    48f8:	1e7a      	subs	r2, r7, #1
    48fa:	4197      	sbcs	r7, r2
    48fc:	40dc      	lsrs	r4, r3
    48fe:	2600      	movs	r6, #0
    4900:	4301      	orrs	r1, r0
    4902:	430f      	orrs	r7, r1
    4904:	077b      	lsls	r3, r7, #29
    4906:	d009      	beq.n	491c <__aeabi_dsub+0x124>
    4908:	230f      	movs	r3, #15
    490a:	403b      	ands	r3, r7
    490c:	2b04      	cmp	r3, #4
    490e:	d005      	beq.n	491c <__aeabi_dsub+0x124>
    4910:	1d3b      	adds	r3, r7, #4
    4912:	42bb      	cmp	r3, r7
    4914:	41bf      	sbcs	r7, r7
    4916:	427f      	negs	r7, r7
    4918:	19e4      	adds	r4, r4, r7
    491a:	001f      	movs	r7, r3
    491c:	0223      	lsls	r3, r4, #8
    491e:	d525      	bpl.n	496c <__aeabi_dsub+0x174>
    4920:	4b86      	ldr	r3, [pc, #536]	; (4b3c <__aeabi_dsub+0x344>)
    4922:	3601      	adds	r6, #1
    4924:	429e      	cmp	r6, r3
    4926:	d100      	bne.n	492a <__aeabi_dsub+0x132>
    4928:	e0af      	b.n	4a8a <__aeabi_dsub+0x292>
    492a:	4b85      	ldr	r3, [pc, #532]	; (4b40 <__aeabi_dsub+0x348>)
    492c:	2501      	movs	r5, #1
    492e:	401c      	ands	r4, r3
    4930:	4643      	mov	r3, r8
    4932:	0762      	lsls	r2, r4, #29
    4934:	08ff      	lsrs	r7, r7, #3
    4936:	0264      	lsls	r4, r4, #9
    4938:	0576      	lsls	r6, r6, #21
    493a:	4317      	orrs	r7, r2
    493c:	0b24      	lsrs	r4, r4, #12
    493e:	0d76      	lsrs	r6, r6, #21
    4940:	401d      	ands	r5, r3
    4942:	2100      	movs	r1, #0
    4944:	0324      	lsls	r4, r4, #12
    4946:	0b23      	lsrs	r3, r4, #12
    4948:	0d0c      	lsrs	r4, r1, #20
    494a:	4a7e      	ldr	r2, [pc, #504]	; (4b44 <__aeabi_dsub+0x34c>)
    494c:	0524      	lsls	r4, r4, #20
    494e:	431c      	orrs	r4, r3
    4950:	4014      	ands	r4, r2
    4952:	0533      	lsls	r3, r6, #20
    4954:	4323      	orrs	r3, r4
    4956:	005b      	lsls	r3, r3, #1
    4958:	07ed      	lsls	r5, r5, #31
    495a:	085b      	lsrs	r3, r3, #1
    495c:	432b      	orrs	r3, r5
    495e:	0038      	movs	r0, r7
    4960:	0019      	movs	r1, r3
    4962:	bc1c      	pop	{r2, r3, r4}
    4964:	4690      	mov	r8, r2
    4966:	4699      	mov	r9, r3
    4968:	46a2      	mov	sl, r4
    496a:	bdf0      	pop	{r4, r5, r6, r7, pc}
    496c:	2501      	movs	r5, #1
    496e:	4643      	mov	r3, r8
    4970:	0762      	lsls	r2, r4, #29
    4972:	08ff      	lsrs	r7, r7, #3
    4974:	4317      	orrs	r7, r2
    4976:	08e4      	lsrs	r4, r4, #3
    4978:	401d      	ands	r5, r3
    497a:	4b70      	ldr	r3, [pc, #448]	; (4b3c <__aeabi_dsub+0x344>)
    497c:	429e      	cmp	r6, r3
    497e:	d036      	beq.n	49ee <__aeabi_dsub+0x1f6>
    4980:	0324      	lsls	r4, r4, #12
    4982:	0576      	lsls	r6, r6, #21
    4984:	0b24      	lsrs	r4, r4, #12
    4986:	0d76      	lsrs	r6, r6, #21
    4988:	e7db      	b.n	4942 <__aeabi_dsub+0x14a>
    498a:	4663      	mov	r3, ip
    498c:	1af3      	subs	r3, r6, r3
    498e:	2b00      	cmp	r3, #0
    4990:	dc00      	bgt.n	4994 <__aeabi_dsub+0x19c>
    4992:	e094      	b.n	4abe <__aeabi_dsub+0x2c6>
    4994:	4660      	mov	r0, ip
    4996:	2800      	cmp	r0, #0
    4998:	d035      	beq.n	4a06 <__aeabi_dsub+0x20e>
    499a:	4868      	ldr	r0, [pc, #416]	; (4b3c <__aeabi_dsub+0x344>)
    499c:	4286      	cmp	r6, r0
    499e:	d0b1      	beq.n	4904 <__aeabi_dsub+0x10c>
    49a0:	2780      	movs	r7, #128	; 0x80
    49a2:	043f      	lsls	r7, r7, #16
    49a4:	4339      	orrs	r1, r7
    49a6:	2b38      	cmp	r3, #56	; 0x38
    49a8:	dc00      	bgt.n	49ac <__aeabi_dsub+0x1b4>
    49aa:	e0fd      	b.n	4ba8 <__aeabi_dsub+0x3b0>
    49ac:	430a      	orrs	r2, r1
    49ae:	0017      	movs	r7, r2
    49b0:	2100      	movs	r1, #0
    49b2:	1e7a      	subs	r2, r7, #1
    49b4:	4197      	sbcs	r7, r2
    49b6:	4457      	add	r7, sl
    49b8:	4557      	cmp	r7, sl
    49ba:	4180      	sbcs	r0, r0
    49bc:	1909      	adds	r1, r1, r4
    49be:	4244      	negs	r4, r0
    49c0:	190c      	adds	r4, r1, r4
    49c2:	0223      	lsls	r3, r4, #8
    49c4:	d53a      	bpl.n	4a3c <__aeabi_dsub+0x244>
    49c6:	4b5d      	ldr	r3, [pc, #372]	; (4b3c <__aeabi_dsub+0x344>)
    49c8:	3601      	adds	r6, #1
    49ca:	429e      	cmp	r6, r3
    49cc:	d100      	bne.n	49d0 <__aeabi_dsub+0x1d8>
    49ce:	e14b      	b.n	4c68 <__aeabi_dsub+0x470>
    49d0:	2201      	movs	r2, #1
    49d2:	4b5b      	ldr	r3, [pc, #364]	; (4b40 <__aeabi_dsub+0x348>)
    49d4:	401c      	ands	r4, r3
    49d6:	087b      	lsrs	r3, r7, #1
    49d8:	4017      	ands	r7, r2
    49da:	431f      	orrs	r7, r3
    49dc:	07e2      	lsls	r2, r4, #31
    49de:	4317      	orrs	r7, r2
    49e0:	0864      	lsrs	r4, r4, #1
    49e2:	e78f      	b.n	4904 <__aeabi_dsub+0x10c>
    49e4:	0008      	movs	r0, r1
    49e6:	4310      	orrs	r0, r2
    49e8:	d000      	beq.n	49ec <__aeabi_dsub+0x1f4>
    49ea:	e724      	b.n	4836 <__aeabi_dsub+0x3e>
    49ec:	e721      	b.n	4832 <__aeabi_dsub+0x3a>
    49ee:	0023      	movs	r3, r4
    49f0:	433b      	orrs	r3, r7
    49f2:	d100      	bne.n	49f6 <__aeabi_dsub+0x1fe>
    49f4:	e1b9      	b.n	4d6a <__aeabi_dsub+0x572>
    49f6:	2280      	movs	r2, #128	; 0x80
    49f8:	0312      	lsls	r2, r2, #12
    49fa:	4314      	orrs	r4, r2
    49fc:	0324      	lsls	r4, r4, #12
    49fe:	0b24      	lsrs	r4, r4, #12
    4a00:	e79f      	b.n	4942 <__aeabi_dsub+0x14a>
    4a02:	002e      	movs	r6, r5
    4a04:	e77e      	b.n	4904 <__aeabi_dsub+0x10c>
    4a06:	0008      	movs	r0, r1
    4a08:	4310      	orrs	r0, r2
    4a0a:	d100      	bne.n	4a0e <__aeabi_dsub+0x216>
    4a0c:	e0ca      	b.n	4ba4 <__aeabi_dsub+0x3ac>
    4a0e:	1e58      	subs	r0, r3, #1
    4a10:	4684      	mov	ip, r0
    4a12:	2800      	cmp	r0, #0
    4a14:	d000      	beq.n	4a18 <__aeabi_dsub+0x220>
    4a16:	e0e7      	b.n	4be8 <__aeabi_dsub+0x3f0>
    4a18:	4452      	add	r2, sl
    4a1a:	4552      	cmp	r2, sl
    4a1c:	4180      	sbcs	r0, r0
    4a1e:	1864      	adds	r4, r4, r1
    4a20:	4240      	negs	r0, r0
    4a22:	1824      	adds	r4, r4, r0
    4a24:	0017      	movs	r7, r2
    4a26:	2601      	movs	r6, #1
    4a28:	0223      	lsls	r3, r4, #8
    4a2a:	d507      	bpl.n	4a3c <__aeabi_dsub+0x244>
    4a2c:	2602      	movs	r6, #2
    4a2e:	e7cf      	b.n	49d0 <__aeabi_dsub+0x1d8>
    4a30:	4664      	mov	r4, ip
    4a32:	432c      	orrs	r4, r5
    4a34:	d100      	bne.n	4a38 <__aeabi_dsub+0x240>
    4a36:	e1b3      	b.n	4da0 <__aeabi_dsub+0x5a8>
    4a38:	002c      	movs	r4, r5
    4a3a:	4667      	mov	r7, ip
    4a3c:	077b      	lsls	r3, r7, #29
    4a3e:	d000      	beq.n	4a42 <__aeabi_dsub+0x24a>
    4a40:	e762      	b.n	4908 <__aeabi_dsub+0x110>
    4a42:	0763      	lsls	r3, r4, #29
    4a44:	08ff      	lsrs	r7, r7, #3
    4a46:	431f      	orrs	r7, r3
    4a48:	2501      	movs	r5, #1
    4a4a:	4643      	mov	r3, r8
    4a4c:	08e4      	lsrs	r4, r4, #3
    4a4e:	401d      	ands	r5, r3
    4a50:	e793      	b.n	497a <__aeabi_dsub+0x182>
    4a52:	2d00      	cmp	r5, #0
    4a54:	d178      	bne.n	4b48 <__aeabi_dsub+0x350>
    4a56:	1c75      	adds	r5, r6, #1
    4a58:	056d      	lsls	r5, r5, #21
    4a5a:	0d6d      	lsrs	r5, r5, #21
    4a5c:	2d01      	cmp	r5, #1
    4a5e:	dc00      	bgt.n	4a62 <__aeabi_dsub+0x26a>
    4a60:	e0f2      	b.n	4c48 <__aeabi_dsub+0x450>
    4a62:	4650      	mov	r0, sl
    4a64:	1a80      	subs	r0, r0, r2
    4a66:	4582      	cmp	sl, r0
    4a68:	41bf      	sbcs	r7, r7
    4a6a:	1a65      	subs	r5, r4, r1
    4a6c:	427f      	negs	r7, r7
    4a6e:	1bed      	subs	r5, r5, r7
    4a70:	4684      	mov	ip, r0
    4a72:	0228      	lsls	r0, r5, #8
    4a74:	d400      	bmi.n	4a78 <__aeabi_dsub+0x280>
    4a76:	e08c      	b.n	4b92 <__aeabi_dsub+0x39a>
    4a78:	4650      	mov	r0, sl
    4a7a:	1a17      	subs	r7, r2, r0
    4a7c:	42ba      	cmp	r2, r7
    4a7e:	4192      	sbcs	r2, r2
    4a80:	1b0c      	subs	r4, r1, r4
    4a82:	4255      	negs	r5, r2
    4a84:	1b65      	subs	r5, r4, r5
    4a86:	4698      	mov	r8, r3
    4a88:	e714      	b.n	48b4 <__aeabi_dsub+0xbc>
    4a8a:	2501      	movs	r5, #1
    4a8c:	4643      	mov	r3, r8
    4a8e:	2400      	movs	r4, #0
    4a90:	401d      	ands	r5, r3
    4a92:	2700      	movs	r7, #0
    4a94:	e755      	b.n	4942 <__aeabi_dsub+0x14a>
    4a96:	4c2a      	ldr	r4, [pc, #168]	; (4b40 <__aeabi_dsub+0x348>)
    4a98:	1af6      	subs	r6, r6, r3
    4a9a:	402c      	ands	r4, r5
    4a9c:	e732      	b.n	4904 <__aeabi_dsub+0x10c>
    4a9e:	003d      	movs	r5, r7
    4aa0:	3828      	subs	r0, #40	; 0x28
    4aa2:	4085      	lsls	r5, r0
    4aa4:	2700      	movs	r7, #0
    4aa6:	e717      	b.n	48d8 <__aeabi_dsub+0xe0>
    4aa8:	0038      	movs	r0, r7
    4aaa:	f000 fb65 	bl	5178 <__clzsi2>
    4aae:	3020      	adds	r0, #32
    4ab0:	e706      	b.n	48c0 <__aeabi_dsub+0xc8>
    4ab2:	430a      	orrs	r2, r1
    4ab4:	0017      	movs	r7, r2
    4ab6:	2100      	movs	r1, #0
    4ab8:	1e7a      	subs	r2, r7, #1
    4aba:	4197      	sbcs	r7, r2
    4abc:	e6ee      	b.n	489c <__aeabi_dsub+0xa4>
    4abe:	2b00      	cmp	r3, #0
    4ac0:	d000      	beq.n	4ac4 <__aeabi_dsub+0x2cc>
    4ac2:	e0e5      	b.n	4c90 <__aeabi_dsub+0x498>
    4ac4:	1c73      	adds	r3, r6, #1
    4ac6:	469c      	mov	ip, r3
    4ac8:	055b      	lsls	r3, r3, #21
    4aca:	0d5b      	lsrs	r3, r3, #21
    4acc:	2b01      	cmp	r3, #1
    4ace:	dc00      	bgt.n	4ad2 <__aeabi_dsub+0x2da>
    4ad0:	e09f      	b.n	4c12 <__aeabi_dsub+0x41a>
    4ad2:	4b1a      	ldr	r3, [pc, #104]	; (4b3c <__aeabi_dsub+0x344>)
    4ad4:	459c      	cmp	ip, r3
    4ad6:	d100      	bne.n	4ada <__aeabi_dsub+0x2e2>
    4ad8:	e0c5      	b.n	4c66 <__aeabi_dsub+0x46e>
    4ada:	4452      	add	r2, sl
    4adc:	4552      	cmp	r2, sl
    4ade:	4180      	sbcs	r0, r0
    4ae0:	1864      	adds	r4, r4, r1
    4ae2:	4240      	negs	r0, r0
    4ae4:	1824      	adds	r4, r4, r0
    4ae6:	07e7      	lsls	r7, r4, #31
    4ae8:	0852      	lsrs	r2, r2, #1
    4aea:	4317      	orrs	r7, r2
    4aec:	0864      	lsrs	r4, r4, #1
    4aee:	4666      	mov	r6, ip
    4af0:	e708      	b.n	4904 <__aeabi_dsub+0x10c>
    4af2:	4812      	ldr	r0, [pc, #72]	; (4b3c <__aeabi_dsub+0x344>)
    4af4:	4285      	cmp	r5, r0
    4af6:	d100      	bne.n	4afa <__aeabi_dsub+0x302>
    4af8:	e085      	b.n	4c06 <__aeabi_dsub+0x40e>
    4afa:	001d      	movs	r5, r3
    4afc:	e6bc      	b.n	4878 <__aeabi_dsub+0x80>
    4afe:	0029      	movs	r1, r5
    4b00:	3e1f      	subs	r6, #31
    4b02:	40f1      	lsrs	r1, r6
    4b04:	2b20      	cmp	r3, #32
    4b06:	d100      	bne.n	4b0a <__aeabi_dsub+0x312>
    4b08:	e07f      	b.n	4c0a <__aeabi_dsub+0x412>
    4b0a:	2240      	movs	r2, #64	; 0x40
    4b0c:	1ad3      	subs	r3, r2, r3
    4b0e:	409d      	lsls	r5, r3
    4b10:	432f      	orrs	r7, r5
    4b12:	1e7d      	subs	r5, r7, #1
    4b14:	41af      	sbcs	r7, r5
    4b16:	2400      	movs	r4, #0
    4b18:	430f      	orrs	r7, r1
    4b1a:	2600      	movs	r6, #0
    4b1c:	e78e      	b.n	4a3c <__aeabi_dsub+0x244>
    4b1e:	002b      	movs	r3, r5
    4b20:	000f      	movs	r7, r1
    4b22:	3b20      	subs	r3, #32
    4b24:	40df      	lsrs	r7, r3
    4b26:	2d20      	cmp	r5, #32
    4b28:	d071      	beq.n	4c0e <__aeabi_dsub+0x416>
    4b2a:	2340      	movs	r3, #64	; 0x40
    4b2c:	1b5d      	subs	r5, r3, r5
    4b2e:	40a9      	lsls	r1, r5
    4b30:	430a      	orrs	r2, r1
    4b32:	1e51      	subs	r1, r2, #1
    4b34:	418a      	sbcs	r2, r1
    4b36:	2100      	movs	r1, #0
    4b38:	4317      	orrs	r7, r2
    4b3a:	e6af      	b.n	489c <__aeabi_dsub+0xa4>
    4b3c:	000007ff 	.word	0x000007ff
    4b40:	ff7fffff 	.word	0xff7fffff
    4b44:	800fffff 	.word	0x800fffff
    4b48:	2e00      	cmp	r6, #0
    4b4a:	d03e      	beq.n	4bca <__aeabi_dsub+0x3d2>
    4b4c:	4eb3      	ldr	r6, [pc, #716]	; (4e1c <__aeabi_dsub+0x624>)
    4b4e:	45b4      	cmp	ip, r6
    4b50:	d045      	beq.n	4bde <__aeabi_dsub+0x3e6>
    4b52:	2680      	movs	r6, #128	; 0x80
    4b54:	0436      	lsls	r6, r6, #16
    4b56:	426d      	negs	r5, r5
    4b58:	4334      	orrs	r4, r6
    4b5a:	2d38      	cmp	r5, #56	; 0x38
    4b5c:	dd00      	ble.n	4b60 <__aeabi_dsub+0x368>
    4b5e:	e0a8      	b.n	4cb2 <__aeabi_dsub+0x4ba>
    4b60:	2d1f      	cmp	r5, #31
    4b62:	dd00      	ble.n	4b66 <__aeabi_dsub+0x36e>
    4b64:	e11f      	b.n	4da6 <__aeabi_dsub+0x5ae>
    4b66:	2620      	movs	r6, #32
    4b68:	0027      	movs	r7, r4
    4b6a:	4650      	mov	r0, sl
    4b6c:	1b76      	subs	r6, r6, r5
    4b6e:	40b7      	lsls	r7, r6
    4b70:	40e8      	lsrs	r0, r5
    4b72:	4307      	orrs	r7, r0
    4b74:	4650      	mov	r0, sl
    4b76:	40b0      	lsls	r0, r6
    4b78:	1e46      	subs	r6, r0, #1
    4b7a:	41b0      	sbcs	r0, r6
    4b7c:	40ec      	lsrs	r4, r5
    4b7e:	4338      	orrs	r0, r7
    4b80:	1a17      	subs	r7, r2, r0
    4b82:	42ba      	cmp	r2, r7
    4b84:	4192      	sbcs	r2, r2
    4b86:	1b0c      	subs	r4, r1, r4
    4b88:	4252      	negs	r2, r2
    4b8a:	1aa4      	subs	r4, r4, r2
    4b8c:	4666      	mov	r6, ip
    4b8e:	4698      	mov	r8, r3
    4b90:	e68b      	b.n	48aa <__aeabi_dsub+0xb2>
    4b92:	4664      	mov	r4, ip
    4b94:	4667      	mov	r7, ip
    4b96:	432c      	orrs	r4, r5
    4b98:	d000      	beq.n	4b9c <__aeabi_dsub+0x3a4>
    4b9a:	e68b      	b.n	48b4 <__aeabi_dsub+0xbc>
    4b9c:	2500      	movs	r5, #0
    4b9e:	2600      	movs	r6, #0
    4ba0:	2700      	movs	r7, #0
    4ba2:	e6ea      	b.n	497a <__aeabi_dsub+0x182>
    4ba4:	001e      	movs	r6, r3
    4ba6:	e6ad      	b.n	4904 <__aeabi_dsub+0x10c>
    4ba8:	2b1f      	cmp	r3, #31
    4baa:	dc60      	bgt.n	4c6e <__aeabi_dsub+0x476>
    4bac:	2720      	movs	r7, #32
    4bae:	1af8      	subs	r0, r7, r3
    4bb0:	000f      	movs	r7, r1
    4bb2:	4684      	mov	ip, r0
    4bb4:	4087      	lsls	r7, r0
    4bb6:	0010      	movs	r0, r2
    4bb8:	40d8      	lsrs	r0, r3
    4bba:	4307      	orrs	r7, r0
    4bbc:	4660      	mov	r0, ip
    4bbe:	4082      	lsls	r2, r0
    4bc0:	1e50      	subs	r0, r2, #1
    4bc2:	4182      	sbcs	r2, r0
    4bc4:	40d9      	lsrs	r1, r3
    4bc6:	4317      	orrs	r7, r2
    4bc8:	e6f5      	b.n	49b6 <__aeabi_dsub+0x1be>
    4bca:	0026      	movs	r6, r4
    4bcc:	4650      	mov	r0, sl
    4bce:	4306      	orrs	r6, r0
    4bd0:	d005      	beq.n	4bde <__aeabi_dsub+0x3e6>
    4bd2:	43ed      	mvns	r5, r5
    4bd4:	2d00      	cmp	r5, #0
    4bd6:	d0d3      	beq.n	4b80 <__aeabi_dsub+0x388>
    4bd8:	4e90      	ldr	r6, [pc, #576]	; (4e1c <__aeabi_dsub+0x624>)
    4bda:	45b4      	cmp	ip, r6
    4bdc:	d1bd      	bne.n	4b5a <__aeabi_dsub+0x362>
    4bde:	000c      	movs	r4, r1
    4be0:	0017      	movs	r7, r2
    4be2:	4666      	mov	r6, ip
    4be4:	4698      	mov	r8, r3
    4be6:	e68d      	b.n	4904 <__aeabi_dsub+0x10c>
    4be8:	488c      	ldr	r0, [pc, #560]	; (4e1c <__aeabi_dsub+0x624>)
    4bea:	4283      	cmp	r3, r0
    4bec:	d00b      	beq.n	4c06 <__aeabi_dsub+0x40e>
    4bee:	4663      	mov	r3, ip
    4bf0:	e6d9      	b.n	49a6 <__aeabi_dsub+0x1ae>
    4bf2:	2d00      	cmp	r5, #0
    4bf4:	d000      	beq.n	4bf8 <__aeabi_dsub+0x400>
    4bf6:	e096      	b.n	4d26 <__aeabi_dsub+0x52e>
    4bf8:	0008      	movs	r0, r1
    4bfa:	4310      	orrs	r0, r2
    4bfc:	d100      	bne.n	4c00 <__aeabi_dsub+0x408>
    4bfe:	e0e2      	b.n	4dc6 <__aeabi_dsub+0x5ce>
    4c00:	000c      	movs	r4, r1
    4c02:	0017      	movs	r7, r2
    4c04:	4698      	mov	r8, r3
    4c06:	4e85      	ldr	r6, [pc, #532]	; (4e1c <__aeabi_dsub+0x624>)
    4c08:	e67c      	b.n	4904 <__aeabi_dsub+0x10c>
    4c0a:	2500      	movs	r5, #0
    4c0c:	e780      	b.n	4b10 <__aeabi_dsub+0x318>
    4c0e:	2100      	movs	r1, #0
    4c10:	e78e      	b.n	4b30 <__aeabi_dsub+0x338>
    4c12:	0023      	movs	r3, r4
    4c14:	4650      	mov	r0, sl
    4c16:	4303      	orrs	r3, r0
    4c18:	2e00      	cmp	r6, #0
    4c1a:	d000      	beq.n	4c1e <__aeabi_dsub+0x426>
    4c1c:	e0a8      	b.n	4d70 <__aeabi_dsub+0x578>
    4c1e:	2b00      	cmp	r3, #0
    4c20:	d100      	bne.n	4c24 <__aeabi_dsub+0x42c>
    4c22:	e0de      	b.n	4de2 <__aeabi_dsub+0x5ea>
    4c24:	000b      	movs	r3, r1
    4c26:	4313      	orrs	r3, r2
    4c28:	d100      	bne.n	4c2c <__aeabi_dsub+0x434>
    4c2a:	e66b      	b.n	4904 <__aeabi_dsub+0x10c>
    4c2c:	4452      	add	r2, sl
    4c2e:	4552      	cmp	r2, sl
    4c30:	4180      	sbcs	r0, r0
    4c32:	1864      	adds	r4, r4, r1
    4c34:	4240      	negs	r0, r0
    4c36:	1824      	adds	r4, r4, r0
    4c38:	0017      	movs	r7, r2
    4c3a:	0223      	lsls	r3, r4, #8
    4c3c:	d400      	bmi.n	4c40 <__aeabi_dsub+0x448>
    4c3e:	e6fd      	b.n	4a3c <__aeabi_dsub+0x244>
    4c40:	4b77      	ldr	r3, [pc, #476]	; (4e20 <__aeabi_dsub+0x628>)
    4c42:	4666      	mov	r6, ip
    4c44:	401c      	ands	r4, r3
    4c46:	e65d      	b.n	4904 <__aeabi_dsub+0x10c>
    4c48:	0025      	movs	r5, r4
    4c4a:	4650      	mov	r0, sl
    4c4c:	4305      	orrs	r5, r0
    4c4e:	2e00      	cmp	r6, #0
    4c50:	d1cf      	bne.n	4bf2 <__aeabi_dsub+0x3fa>
    4c52:	2d00      	cmp	r5, #0
    4c54:	d14f      	bne.n	4cf6 <__aeabi_dsub+0x4fe>
    4c56:	000c      	movs	r4, r1
    4c58:	4314      	orrs	r4, r2
    4c5a:	d100      	bne.n	4c5e <__aeabi_dsub+0x466>
    4c5c:	e0a0      	b.n	4da0 <__aeabi_dsub+0x5a8>
    4c5e:	000c      	movs	r4, r1
    4c60:	0017      	movs	r7, r2
    4c62:	4698      	mov	r8, r3
    4c64:	e64e      	b.n	4904 <__aeabi_dsub+0x10c>
    4c66:	4666      	mov	r6, ip
    4c68:	2400      	movs	r4, #0
    4c6a:	2700      	movs	r7, #0
    4c6c:	e685      	b.n	497a <__aeabi_dsub+0x182>
    4c6e:	001f      	movs	r7, r3
    4c70:	0008      	movs	r0, r1
    4c72:	3f20      	subs	r7, #32
    4c74:	40f8      	lsrs	r0, r7
    4c76:	0007      	movs	r7, r0
    4c78:	2b20      	cmp	r3, #32
    4c7a:	d100      	bne.n	4c7e <__aeabi_dsub+0x486>
    4c7c:	e08e      	b.n	4d9c <__aeabi_dsub+0x5a4>
    4c7e:	2040      	movs	r0, #64	; 0x40
    4c80:	1ac3      	subs	r3, r0, r3
    4c82:	4099      	lsls	r1, r3
    4c84:	430a      	orrs	r2, r1
    4c86:	1e51      	subs	r1, r2, #1
    4c88:	418a      	sbcs	r2, r1
    4c8a:	2100      	movs	r1, #0
    4c8c:	4317      	orrs	r7, r2
    4c8e:	e692      	b.n	49b6 <__aeabi_dsub+0x1be>
    4c90:	2e00      	cmp	r6, #0
    4c92:	d114      	bne.n	4cbe <__aeabi_dsub+0x4c6>
    4c94:	0026      	movs	r6, r4
    4c96:	4650      	mov	r0, sl
    4c98:	4306      	orrs	r6, r0
    4c9a:	d062      	beq.n	4d62 <__aeabi_dsub+0x56a>
    4c9c:	43db      	mvns	r3, r3
    4c9e:	2b00      	cmp	r3, #0
    4ca0:	d15c      	bne.n	4d5c <__aeabi_dsub+0x564>
    4ca2:	1887      	adds	r7, r0, r2
    4ca4:	4297      	cmp	r7, r2
    4ca6:	4192      	sbcs	r2, r2
    4ca8:	1864      	adds	r4, r4, r1
    4caa:	4252      	negs	r2, r2
    4cac:	18a4      	adds	r4, r4, r2
    4cae:	4666      	mov	r6, ip
    4cb0:	e687      	b.n	49c2 <__aeabi_dsub+0x1ca>
    4cb2:	4650      	mov	r0, sl
    4cb4:	4320      	orrs	r0, r4
    4cb6:	1e44      	subs	r4, r0, #1
    4cb8:	41a0      	sbcs	r0, r4
    4cba:	2400      	movs	r4, #0
    4cbc:	e760      	b.n	4b80 <__aeabi_dsub+0x388>
    4cbe:	4e57      	ldr	r6, [pc, #348]	; (4e1c <__aeabi_dsub+0x624>)
    4cc0:	45b4      	cmp	ip, r6
    4cc2:	d04e      	beq.n	4d62 <__aeabi_dsub+0x56a>
    4cc4:	2680      	movs	r6, #128	; 0x80
    4cc6:	0436      	lsls	r6, r6, #16
    4cc8:	425b      	negs	r3, r3
    4cca:	4334      	orrs	r4, r6
    4ccc:	2b38      	cmp	r3, #56	; 0x38
    4cce:	dd00      	ble.n	4cd2 <__aeabi_dsub+0x4da>
    4cd0:	e07f      	b.n	4dd2 <__aeabi_dsub+0x5da>
    4cd2:	2b1f      	cmp	r3, #31
    4cd4:	dd00      	ble.n	4cd8 <__aeabi_dsub+0x4e0>
    4cd6:	e08b      	b.n	4df0 <__aeabi_dsub+0x5f8>
    4cd8:	2620      	movs	r6, #32
    4cda:	0027      	movs	r7, r4
    4cdc:	4650      	mov	r0, sl
    4cde:	1af6      	subs	r6, r6, r3
    4ce0:	40b7      	lsls	r7, r6
    4ce2:	40d8      	lsrs	r0, r3
    4ce4:	4307      	orrs	r7, r0
    4ce6:	4650      	mov	r0, sl
    4ce8:	40b0      	lsls	r0, r6
    4cea:	1e46      	subs	r6, r0, #1
    4cec:	41b0      	sbcs	r0, r6
    4cee:	4307      	orrs	r7, r0
    4cf0:	40dc      	lsrs	r4, r3
    4cf2:	18bf      	adds	r7, r7, r2
    4cf4:	e7d6      	b.n	4ca4 <__aeabi_dsub+0x4ac>
    4cf6:	000d      	movs	r5, r1
    4cf8:	4315      	orrs	r5, r2
    4cfa:	d100      	bne.n	4cfe <__aeabi_dsub+0x506>
    4cfc:	e602      	b.n	4904 <__aeabi_dsub+0x10c>
    4cfe:	4650      	mov	r0, sl
    4d00:	1a80      	subs	r0, r0, r2
    4d02:	4582      	cmp	sl, r0
    4d04:	41bf      	sbcs	r7, r7
    4d06:	1a65      	subs	r5, r4, r1
    4d08:	427f      	negs	r7, r7
    4d0a:	1bed      	subs	r5, r5, r7
    4d0c:	4684      	mov	ip, r0
    4d0e:	0228      	lsls	r0, r5, #8
    4d10:	d400      	bmi.n	4d14 <__aeabi_dsub+0x51c>
    4d12:	e68d      	b.n	4a30 <__aeabi_dsub+0x238>
    4d14:	4650      	mov	r0, sl
    4d16:	1a17      	subs	r7, r2, r0
    4d18:	42ba      	cmp	r2, r7
    4d1a:	4192      	sbcs	r2, r2
    4d1c:	1b0c      	subs	r4, r1, r4
    4d1e:	4252      	negs	r2, r2
    4d20:	1aa4      	subs	r4, r4, r2
    4d22:	4698      	mov	r8, r3
    4d24:	e5ee      	b.n	4904 <__aeabi_dsub+0x10c>
    4d26:	000d      	movs	r5, r1
    4d28:	4315      	orrs	r5, r2
    4d2a:	d100      	bne.n	4d2e <__aeabi_dsub+0x536>
    4d2c:	e76b      	b.n	4c06 <__aeabi_dsub+0x40e>
    4d2e:	4650      	mov	r0, sl
    4d30:	0767      	lsls	r7, r4, #29
    4d32:	08c0      	lsrs	r0, r0, #3
    4d34:	4307      	orrs	r7, r0
    4d36:	2080      	movs	r0, #128	; 0x80
    4d38:	08e4      	lsrs	r4, r4, #3
    4d3a:	0300      	lsls	r0, r0, #12
    4d3c:	4204      	tst	r4, r0
    4d3e:	d007      	beq.n	4d50 <__aeabi_dsub+0x558>
    4d40:	08cd      	lsrs	r5, r1, #3
    4d42:	4205      	tst	r5, r0
    4d44:	d104      	bne.n	4d50 <__aeabi_dsub+0x558>
    4d46:	002c      	movs	r4, r5
    4d48:	4698      	mov	r8, r3
    4d4a:	08d7      	lsrs	r7, r2, #3
    4d4c:	0749      	lsls	r1, r1, #29
    4d4e:	430f      	orrs	r7, r1
    4d50:	0f7b      	lsrs	r3, r7, #29
    4d52:	00e4      	lsls	r4, r4, #3
    4d54:	431c      	orrs	r4, r3
    4d56:	00ff      	lsls	r7, r7, #3
    4d58:	4e30      	ldr	r6, [pc, #192]	; (4e1c <__aeabi_dsub+0x624>)
    4d5a:	e5d3      	b.n	4904 <__aeabi_dsub+0x10c>
    4d5c:	4e2f      	ldr	r6, [pc, #188]	; (4e1c <__aeabi_dsub+0x624>)
    4d5e:	45b4      	cmp	ip, r6
    4d60:	d1b4      	bne.n	4ccc <__aeabi_dsub+0x4d4>
    4d62:	000c      	movs	r4, r1
    4d64:	0017      	movs	r7, r2
    4d66:	4666      	mov	r6, ip
    4d68:	e5cc      	b.n	4904 <__aeabi_dsub+0x10c>
    4d6a:	2700      	movs	r7, #0
    4d6c:	2400      	movs	r4, #0
    4d6e:	e5e8      	b.n	4942 <__aeabi_dsub+0x14a>
    4d70:	2b00      	cmp	r3, #0
    4d72:	d039      	beq.n	4de8 <__aeabi_dsub+0x5f0>
    4d74:	000b      	movs	r3, r1
    4d76:	4313      	orrs	r3, r2
    4d78:	d100      	bne.n	4d7c <__aeabi_dsub+0x584>
    4d7a:	e744      	b.n	4c06 <__aeabi_dsub+0x40e>
    4d7c:	08c0      	lsrs	r0, r0, #3
    4d7e:	0767      	lsls	r7, r4, #29
    4d80:	4307      	orrs	r7, r0
    4d82:	2080      	movs	r0, #128	; 0x80
    4d84:	08e4      	lsrs	r4, r4, #3
    4d86:	0300      	lsls	r0, r0, #12
    4d88:	4204      	tst	r4, r0
    4d8a:	d0e1      	beq.n	4d50 <__aeabi_dsub+0x558>
    4d8c:	08cb      	lsrs	r3, r1, #3
    4d8e:	4203      	tst	r3, r0
    4d90:	d1de      	bne.n	4d50 <__aeabi_dsub+0x558>
    4d92:	08d7      	lsrs	r7, r2, #3
    4d94:	0749      	lsls	r1, r1, #29
    4d96:	430f      	orrs	r7, r1
    4d98:	001c      	movs	r4, r3
    4d9a:	e7d9      	b.n	4d50 <__aeabi_dsub+0x558>
    4d9c:	2100      	movs	r1, #0
    4d9e:	e771      	b.n	4c84 <__aeabi_dsub+0x48c>
    4da0:	2500      	movs	r5, #0
    4da2:	2700      	movs	r7, #0
    4da4:	e5e9      	b.n	497a <__aeabi_dsub+0x182>
    4da6:	002e      	movs	r6, r5
    4da8:	0027      	movs	r7, r4
    4daa:	3e20      	subs	r6, #32
    4dac:	40f7      	lsrs	r7, r6
    4dae:	2d20      	cmp	r5, #32
    4db0:	d02f      	beq.n	4e12 <__aeabi_dsub+0x61a>
    4db2:	2640      	movs	r6, #64	; 0x40
    4db4:	1b75      	subs	r5, r6, r5
    4db6:	40ac      	lsls	r4, r5
    4db8:	4650      	mov	r0, sl
    4dba:	4320      	orrs	r0, r4
    4dbc:	1e44      	subs	r4, r0, #1
    4dbe:	41a0      	sbcs	r0, r4
    4dc0:	2400      	movs	r4, #0
    4dc2:	4338      	orrs	r0, r7
    4dc4:	e6dc      	b.n	4b80 <__aeabi_dsub+0x388>
    4dc6:	2480      	movs	r4, #128	; 0x80
    4dc8:	2500      	movs	r5, #0
    4dca:	0324      	lsls	r4, r4, #12
    4dcc:	4e13      	ldr	r6, [pc, #76]	; (4e1c <__aeabi_dsub+0x624>)
    4dce:	2700      	movs	r7, #0
    4dd0:	e5d3      	b.n	497a <__aeabi_dsub+0x182>
    4dd2:	4650      	mov	r0, sl
    4dd4:	4320      	orrs	r0, r4
    4dd6:	0007      	movs	r7, r0
    4dd8:	1e78      	subs	r0, r7, #1
    4dda:	4187      	sbcs	r7, r0
    4ddc:	2400      	movs	r4, #0
    4dde:	18bf      	adds	r7, r7, r2
    4de0:	e760      	b.n	4ca4 <__aeabi_dsub+0x4ac>
    4de2:	000c      	movs	r4, r1
    4de4:	0017      	movs	r7, r2
    4de6:	e58d      	b.n	4904 <__aeabi_dsub+0x10c>
    4de8:	000c      	movs	r4, r1
    4dea:	0017      	movs	r7, r2
    4dec:	4e0b      	ldr	r6, [pc, #44]	; (4e1c <__aeabi_dsub+0x624>)
    4dee:	e589      	b.n	4904 <__aeabi_dsub+0x10c>
    4df0:	001e      	movs	r6, r3
    4df2:	0027      	movs	r7, r4
    4df4:	3e20      	subs	r6, #32
    4df6:	40f7      	lsrs	r7, r6
    4df8:	2b20      	cmp	r3, #32
    4dfa:	d00c      	beq.n	4e16 <__aeabi_dsub+0x61e>
    4dfc:	2640      	movs	r6, #64	; 0x40
    4dfe:	1af3      	subs	r3, r6, r3
    4e00:	409c      	lsls	r4, r3
    4e02:	4650      	mov	r0, sl
    4e04:	4320      	orrs	r0, r4
    4e06:	1e44      	subs	r4, r0, #1
    4e08:	41a0      	sbcs	r0, r4
    4e0a:	4307      	orrs	r7, r0
    4e0c:	2400      	movs	r4, #0
    4e0e:	18bf      	adds	r7, r7, r2
    4e10:	e748      	b.n	4ca4 <__aeabi_dsub+0x4ac>
    4e12:	2400      	movs	r4, #0
    4e14:	e7d0      	b.n	4db8 <__aeabi_dsub+0x5c0>
    4e16:	2400      	movs	r4, #0
    4e18:	e7f3      	b.n	4e02 <__aeabi_dsub+0x60a>
    4e1a:	46c0      	nop			; (mov r8, r8)
    4e1c:	000007ff 	.word	0x000007ff
    4e20:	ff7fffff 	.word	0xff7fffff

00004e24 <__aeabi_dcmpun>:
    4e24:	b570      	push	{r4, r5, r6, lr}
    4e26:	4e0e      	ldr	r6, [pc, #56]	; (4e60 <__aeabi_dcmpun+0x3c>)
    4e28:	030d      	lsls	r5, r1, #12
    4e2a:	031c      	lsls	r4, r3, #12
    4e2c:	0049      	lsls	r1, r1, #1
    4e2e:	005b      	lsls	r3, r3, #1
    4e30:	0b2d      	lsrs	r5, r5, #12
    4e32:	0d49      	lsrs	r1, r1, #21
    4e34:	0b24      	lsrs	r4, r4, #12
    4e36:	0d5b      	lsrs	r3, r3, #21
    4e38:	42b1      	cmp	r1, r6
    4e3a:	d004      	beq.n	4e46 <__aeabi_dcmpun+0x22>
    4e3c:	4908      	ldr	r1, [pc, #32]	; (4e60 <__aeabi_dcmpun+0x3c>)
    4e3e:	2000      	movs	r0, #0
    4e40:	428b      	cmp	r3, r1
    4e42:	d008      	beq.n	4e56 <__aeabi_dcmpun+0x32>
    4e44:	bd70      	pop	{r4, r5, r6, pc}
    4e46:	4305      	orrs	r5, r0
    4e48:	2001      	movs	r0, #1
    4e4a:	2d00      	cmp	r5, #0
    4e4c:	d1fa      	bne.n	4e44 <__aeabi_dcmpun+0x20>
    4e4e:	4904      	ldr	r1, [pc, #16]	; (4e60 <__aeabi_dcmpun+0x3c>)
    4e50:	2000      	movs	r0, #0
    4e52:	428b      	cmp	r3, r1
    4e54:	d1f6      	bne.n	4e44 <__aeabi_dcmpun+0x20>
    4e56:	4314      	orrs	r4, r2
    4e58:	0020      	movs	r0, r4
    4e5a:	1e44      	subs	r4, r0, #1
    4e5c:	41a0      	sbcs	r0, r4
    4e5e:	e7f1      	b.n	4e44 <__aeabi_dcmpun+0x20>
    4e60:	000007ff 	.word	0x000007ff

00004e64 <__aeabi_d2iz>:
    4e64:	b530      	push	{r4, r5, lr}
    4e66:	4d13      	ldr	r5, [pc, #76]	; (4eb4 <__aeabi_d2iz+0x50>)
    4e68:	030a      	lsls	r2, r1, #12
    4e6a:	004b      	lsls	r3, r1, #1
    4e6c:	0b12      	lsrs	r2, r2, #12
    4e6e:	0d5b      	lsrs	r3, r3, #21
    4e70:	0fc9      	lsrs	r1, r1, #31
    4e72:	2400      	movs	r4, #0
    4e74:	42ab      	cmp	r3, r5
    4e76:	dd10      	ble.n	4e9a <__aeabi_d2iz+0x36>
    4e78:	4c0f      	ldr	r4, [pc, #60]	; (4eb8 <__aeabi_d2iz+0x54>)
    4e7a:	42a3      	cmp	r3, r4
    4e7c:	dc0f      	bgt.n	4e9e <__aeabi_d2iz+0x3a>
    4e7e:	2480      	movs	r4, #128	; 0x80
    4e80:	4d0e      	ldr	r5, [pc, #56]	; (4ebc <__aeabi_d2iz+0x58>)
    4e82:	0364      	lsls	r4, r4, #13
    4e84:	4322      	orrs	r2, r4
    4e86:	1aed      	subs	r5, r5, r3
    4e88:	2d1f      	cmp	r5, #31
    4e8a:	dd0b      	ble.n	4ea4 <__aeabi_d2iz+0x40>
    4e8c:	480c      	ldr	r0, [pc, #48]	; (4ec0 <__aeabi_d2iz+0x5c>)
    4e8e:	1ac3      	subs	r3, r0, r3
    4e90:	40da      	lsrs	r2, r3
    4e92:	4254      	negs	r4, r2
    4e94:	2900      	cmp	r1, #0
    4e96:	d100      	bne.n	4e9a <__aeabi_d2iz+0x36>
    4e98:	0014      	movs	r4, r2
    4e9a:	0020      	movs	r0, r4
    4e9c:	bd30      	pop	{r4, r5, pc}
    4e9e:	4b09      	ldr	r3, [pc, #36]	; (4ec4 <__aeabi_d2iz+0x60>)
    4ea0:	18cc      	adds	r4, r1, r3
    4ea2:	e7fa      	b.n	4e9a <__aeabi_d2iz+0x36>
    4ea4:	4c08      	ldr	r4, [pc, #32]	; (4ec8 <__aeabi_d2iz+0x64>)
    4ea6:	40e8      	lsrs	r0, r5
    4ea8:	46a4      	mov	ip, r4
    4eaa:	4463      	add	r3, ip
    4eac:	409a      	lsls	r2, r3
    4eae:	4302      	orrs	r2, r0
    4eb0:	e7ef      	b.n	4e92 <__aeabi_d2iz+0x2e>
    4eb2:	46c0      	nop			; (mov r8, r8)
    4eb4:	000003fe 	.word	0x000003fe
    4eb8:	0000041d 	.word	0x0000041d
    4ebc:	00000433 	.word	0x00000433
    4ec0:	00000413 	.word	0x00000413
    4ec4:	7fffffff 	.word	0x7fffffff
    4ec8:	fffffbed 	.word	0xfffffbed

00004ecc <__aeabi_i2d>:
    4ecc:	b570      	push	{r4, r5, r6, lr}
    4ece:	2800      	cmp	r0, #0
    4ed0:	d030      	beq.n	4f34 <__aeabi_i2d+0x68>
    4ed2:	17c3      	asrs	r3, r0, #31
    4ed4:	18c4      	adds	r4, r0, r3
    4ed6:	405c      	eors	r4, r3
    4ed8:	0fc5      	lsrs	r5, r0, #31
    4eda:	0020      	movs	r0, r4
    4edc:	f000 f94c 	bl	5178 <__clzsi2>
    4ee0:	4b17      	ldr	r3, [pc, #92]	; (4f40 <__aeabi_i2d+0x74>)
    4ee2:	4a18      	ldr	r2, [pc, #96]	; (4f44 <__aeabi_i2d+0x78>)
    4ee4:	1a1b      	subs	r3, r3, r0
    4ee6:	1ad2      	subs	r2, r2, r3
    4ee8:	2a1f      	cmp	r2, #31
    4eea:	dd18      	ble.n	4f1e <__aeabi_i2d+0x52>
    4eec:	4a16      	ldr	r2, [pc, #88]	; (4f48 <__aeabi_i2d+0x7c>)
    4eee:	1ad2      	subs	r2, r2, r3
    4ef0:	4094      	lsls	r4, r2
    4ef2:	2200      	movs	r2, #0
    4ef4:	0324      	lsls	r4, r4, #12
    4ef6:	055b      	lsls	r3, r3, #21
    4ef8:	0b24      	lsrs	r4, r4, #12
    4efa:	0d5b      	lsrs	r3, r3, #21
    4efc:	2100      	movs	r1, #0
    4efe:	0010      	movs	r0, r2
    4f00:	0324      	lsls	r4, r4, #12
    4f02:	0d0a      	lsrs	r2, r1, #20
    4f04:	0b24      	lsrs	r4, r4, #12
    4f06:	0512      	lsls	r2, r2, #20
    4f08:	4322      	orrs	r2, r4
    4f0a:	4c10      	ldr	r4, [pc, #64]	; (4f4c <__aeabi_i2d+0x80>)
    4f0c:	051b      	lsls	r3, r3, #20
    4f0e:	4022      	ands	r2, r4
    4f10:	4313      	orrs	r3, r2
    4f12:	005b      	lsls	r3, r3, #1
    4f14:	07ed      	lsls	r5, r5, #31
    4f16:	085b      	lsrs	r3, r3, #1
    4f18:	432b      	orrs	r3, r5
    4f1a:	0019      	movs	r1, r3
    4f1c:	bd70      	pop	{r4, r5, r6, pc}
    4f1e:	0021      	movs	r1, r4
    4f20:	4091      	lsls	r1, r2
    4f22:	000a      	movs	r2, r1
    4f24:	210b      	movs	r1, #11
    4f26:	1a08      	subs	r0, r1, r0
    4f28:	40c4      	lsrs	r4, r0
    4f2a:	055b      	lsls	r3, r3, #21
    4f2c:	0324      	lsls	r4, r4, #12
    4f2e:	0b24      	lsrs	r4, r4, #12
    4f30:	0d5b      	lsrs	r3, r3, #21
    4f32:	e7e3      	b.n	4efc <__aeabi_i2d+0x30>
    4f34:	2500      	movs	r5, #0
    4f36:	2300      	movs	r3, #0
    4f38:	2400      	movs	r4, #0
    4f3a:	2200      	movs	r2, #0
    4f3c:	e7de      	b.n	4efc <__aeabi_i2d+0x30>
    4f3e:	46c0      	nop			; (mov r8, r8)
    4f40:	0000041e 	.word	0x0000041e
    4f44:	00000433 	.word	0x00000433
    4f48:	00000413 	.word	0x00000413
    4f4c:	800fffff 	.word	0x800fffff

00004f50 <__aeabi_ui2d>:
    4f50:	b510      	push	{r4, lr}
    4f52:	1e04      	subs	r4, r0, #0
    4f54:	d028      	beq.n	4fa8 <__aeabi_ui2d+0x58>
    4f56:	f000 f90f 	bl	5178 <__clzsi2>
    4f5a:	4b15      	ldr	r3, [pc, #84]	; (4fb0 <__aeabi_ui2d+0x60>)
    4f5c:	4a15      	ldr	r2, [pc, #84]	; (4fb4 <__aeabi_ui2d+0x64>)
    4f5e:	1a1b      	subs	r3, r3, r0
    4f60:	1ad2      	subs	r2, r2, r3
    4f62:	2a1f      	cmp	r2, #31
    4f64:	dd15      	ble.n	4f92 <__aeabi_ui2d+0x42>
    4f66:	4a14      	ldr	r2, [pc, #80]	; (4fb8 <__aeabi_ui2d+0x68>)
    4f68:	1ad2      	subs	r2, r2, r3
    4f6a:	4094      	lsls	r4, r2
    4f6c:	2200      	movs	r2, #0
    4f6e:	0324      	lsls	r4, r4, #12
    4f70:	055b      	lsls	r3, r3, #21
    4f72:	0b24      	lsrs	r4, r4, #12
    4f74:	0d5b      	lsrs	r3, r3, #21
    4f76:	2100      	movs	r1, #0
    4f78:	0010      	movs	r0, r2
    4f7a:	0324      	lsls	r4, r4, #12
    4f7c:	0d0a      	lsrs	r2, r1, #20
    4f7e:	0b24      	lsrs	r4, r4, #12
    4f80:	0512      	lsls	r2, r2, #20
    4f82:	4322      	orrs	r2, r4
    4f84:	4c0d      	ldr	r4, [pc, #52]	; (4fbc <__aeabi_ui2d+0x6c>)
    4f86:	051b      	lsls	r3, r3, #20
    4f88:	4022      	ands	r2, r4
    4f8a:	4313      	orrs	r3, r2
    4f8c:	005b      	lsls	r3, r3, #1
    4f8e:	0859      	lsrs	r1, r3, #1
    4f90:	bd10      	pop	{r4, pc}
    4f92:	0021      	movs	r1, r4
    4f94:	4091      	lsls	r1, r2
    4f96:	000a      	movs	r2, r1
    4f98:	210b      	movs	r1, #11
    4f9a:	1a08      	subs	r0, r1, r0
    4f9c:	40c4      	lsrs	r4, r0
    4f9e:	055b      	lsls	r3, r3, #21
    4fa0:	0324      	lsls	r4, r4, #12
    4fa2:	0b24      	lsrs	r4, r4, #12
    4fa4:	0d5b      	lsrs	r3, r3, #21
    4fa6:	e7e6      	b.n	4f76 <__aeabi_ui2d+0x26>
    4fa8:	2300      	movs	r3, #0
    4faa:	2400      	movs	r4, #0
    4fac:	2200      	movs	r2, #0
    4fae:	e7e2      	b.n	4f76 <__aeabi_ui2d+0x26>
    4fb0:	0000041e 	.word	0x0000041e
    4fb4:	00000433 	.word	0x00000433
    4fb8:	00000413 	.word	0x00000413
    4fbc:	800fffff 	.word	0x800fffff

00004fc0 <__aeabi_f2d>:
    4fc0:	0041      	lsls	r1, r0, #1
    4fc2:	0e09      	lsrs	r1, r1, #24
    4fc4:	1c4b      	adds	r3, r1, #1
    4fc6:	b570      	push	{r4, r5, r6, lr}
    4fc8:	b2db      	uxtb	r3, r3
    4fca:	0246      	lsls	r6, r0, #9
    4fcc:	0a75      	lsrs	r5, r6, #9
    4fce:	0fc4      	lsrs	r4, r0, #31
    4fd0:	2b01      	cmp	r3, #1
    4fd2:	dd14      	ble.n	4ffe <__aeabi_f2d+0x3e>
    4fd4:	23e0      	movs	r3, #224	; 0xe0
    4fd6:	009b      	lsls	r3, r3, #2
    4fd8:	076d      	lsls	r5, r5, #29
    4fda:	0b36      	lsrs	r6, r6, #12
    4fdc:	18cb      	adds	r3, r1, r3
    4fde:	2100      	movs	r1, #0
    4fe0:	0d0a      	lsrs	r2, r1, #20
    4fe2:	0028      	movs	r0, r5
    4fe4:	0512      	lsls	r2, r2, #20
    4fe6:	4d1c      	ldr	r5, [pc, #112]	; (5058 <__aeabi_f2d+0x98>)
    4fe8:	4332      	orrs	r2, r6
    4fea:	055b      	lsls	r3, r3, #21
    4fec:	402a      	ands	r2, r5
    4fee:	085b      	lsrs	r3, r3, #1
    4ff0:	4313      	orrs	r3, r2
    4ff2:	005b      	lsls	r3, r3, #1
    4ff4:	07e4      	lsls	r4, r4, #31
    4ff6:	085b      	lsrs	r3, r3, #1
    4ff8:	4323      	orrs	r3, r4
    4ffa:	0019      	movs	r1, r3
    4ffc:	bd70      	pop	{r4, r5, r6, pc}
    4ffe:	2900      	cmp	r1, #0
    5000:	d114      	bne.n	502c <__aeabi_f2d+0x6c>
    5002:	2d00      	cmp	r5, #0
    5004:	d01e      	beq.n	5044 <__aeabi_f2d+0x84>
    5006:	0028      	movs	r0, r5
    5008:	f000 f8b6 	bl	5178 <__clzsi2>
    500c:	280a      	cmp	r0, #10
    500e:	dc1c      	bgt.n	504a <__aeabi_f2d+0x8a>
    5010:	230b      	movs	r3, #11
    5012:	002a      	movs	r2, r5
    5014:	1a1b      	subs	r3, r3, r0
    5016:	40da      	lsrs	r2, r3
    5018:	0003      	movs	r3, r0
    501a:	3315      	adds	r3, #21
    501c:	409d      	lsls	r5, r3
    501e:	4b0f      	ldr	r3, [pc, #60]	; (505c <__aeabi_f2d+0x9c>)
    5020:	0312      	lsls	r2, r2, #12
    5022:	1a1b      	subs	r3, r3, r0
    5024:	055b      	lsls	r3, r3, #21
    5026:	0b16      	lsrs	r6, r2, #12
    5028:	0d5b      	lsrs	r3, r3, #21
    502a:	e7d8      	b.n	4fde <__aeabi_f2d+0x1e>
    502c:	2d00      	cmp	r5, #0
    502e:	d006      	beq.n	503e <__aeabi_f2d+0x7e>
    5030:	0b32      	lsrs	r2, r6, #12
    5032:	2680      	movs	r6, #128	; 0x80
    5034:	0336      	lsls	r6, r6, #12
    5036:	076d      	lsls	r5, r5, #29
    5038:	4316      	orrs	r6, r2
    503a:	4b09      	ldr	r3, [pc, #36]	; (5060 <__aeabi_f2d+0xa0>)
    503c:	e7cf      	b.n	4fde <__aeabi_f2d+0x1e>
    503e:	4b08      	ldr	r3, [pc, #32]	; (5060 <__aeabi_f2d+0xa0>)
    5040:	2600      	movs	r6, #0
    5042:	e7cc      	b.n	4fde <__aeabi_f2d+0x1e>
    5044:	2300      	movs	r3, #0
    5046:	2600      	movs	r6, #0
    5048:	e7c9      	b.n	4fde <__aeabi_f2d+0x1e>
    504a:	0003      	movs	r3, r0
    504c:	002a      	movs	r2, r5
    504e:	3b0b      	subs	r3, #11
    5050:	409a      	lsls	r2, r3
    5052:	2500      	movs	r5, #0
    5054:	e7e3      	b.n	501e <__aeabi_f2d+0x5e>
    5056:	46c0      	nop			; (mov r8, r8)
    5058:	800fffff 	.word	0x800fffff
    505c:	00000389 	.word	0x00000389
    5060:	000007ff 	.word	0x000007ff

00005064 <__aeabi_d2f>:
    5064:	b5f0      	push	{r4, r5, r6, r7, lr}
    5066:	004c      	lsls	r4, r1, #1
    5068:	0d64      	lsrs	r4, r4, #21
    506a:	030b      	lsls	r3, r1, #12
    506c:	1c62      	adds	r2, r4, #1
    506e:	0f45      	lsrs	r5, r0, #29
    5070:	0a5b      	lsrs	r3, r3, #9
    5072:	0552      	lsls	r2, r2, #21
    5074:	432b      	orrs	r3, r5
    5076:	0fc9      	lsrs	r1, r1, #31
    5078:	00c5      	lsls	r5, r0, #3
    507a:	0d52      	lsrs	r2, r2, #21
    507c:	2a01      	cmp	r2, #1
    507e:	dd28      	ble.n	50d2 <__aeabi_d2f+0x6e>
    5080:	4a3a      	ldr	r2, [pc, #232]	; (516c <__aeabi_d2f+0x108>)
    5082:	18a6      	adds	r6, r4, r2
    5084:	2efe      	cmp	r6, #254	; 0xfe
    5086:	dc1b      	bgt.n	50c0 <__aeabi_d2f+0x5c>
    5088:	2e00      	cmp	r6, #0
    508a:	dd3e      	ble.n	510a <__aeabi_d2f+0xa6>
    508c:	0180      	lsls	r0, r0, #6
    508e:	0002      	movs	r2, r0
    5090:	1e50      	subs	r0, r2, #1
    5092:	4182      	sbcs	r2, r0
    5094:	0f6d      	lsrs	r5, r5, #29
    5096:	432a      	orrs	r2, r5
    5098:	00db      	lsls	r3, r3, #3
    509a:	4313      	orrs	r3, r2
    509c:	075a      	lsls	r2, r3, #29
    509e:	d004      	beq.n	50aa <__aeabi_d2f+0x46>
    50a0:	220f      	movs	r2, #15
    50a2:	401a      	ands	r2, r3
    50a4:	2a04      	cmp	r2, #4
    50a6:	d000      	beq.n	50aa <__aeabi_d2f+0x46>
    50a8:	3304      	adds	r3, #4
    50aa:	2280      	movs	r2, #128	; 0x80
    50ac:	04d2      	lsls	r2, r2, #19
    50ae:	401a      	ands	r2, r3
    50b0:	d05a      	beq.n	5168 <__aeabi_d2f+0x104>
    50b2:	3601      	adds	r6, #1
    50b4:	2eff      	cmp	r6, #255	; 0xff
    50b6:	d003      	beq.n	50c0 <__aeabi_d2f+0x5c>
    50b8:	019b      	lsls	r3, r3, #6
    50ba:	0a5b      	lsrs	r3, r3, #9
    50bc:	b2f4      	uxtb	r4, r6
    50be:	e001      	b.n	50c4 <__aeabi_d2f+0x60>
    50c0:	24ff      	movs	r4, #255	; 0xff
    50c2:	2300      	movs	r3, #0
    50c4:	0258      	lsls	r0, r3, #9
    50c6:	05e4      	lsls	r4, r4, #23
    50c8:	0a40      	lsrs	r0, r0, #9
    50ca:	07c9      	lsls	r1, r1, #31
    50cc:	4320      	orrs	r0, r4
    50ce:	4308      	orrs	r0, r1
    50d0:	bdf0      	pop	{r4, r5, r6, r7, pc}
    50d2:	2c00      	cmp	r4, #0
    50d4:	d007      	beq.n	50e6 <__aeabi_d2f+0x82>
    50d6:	431d      	orrs	r5, r3
    50d8:	d0f2      	beq.n	50c0 <__aeabi_d2f+0x5c>
    50da:	2080      	movs	r0, #128	; 0x80
    50dc:	00db      	lsls	r3, r3, #3
    50de:	0480      	lsls	r0, r0, #18
    50e0:	4303      	orrs	r3, r0
    50e2:	26ff      	movs	r6, #255	; 0xff
    50e4:	e7da      	b.n	509c <__aeabi_d2f+0x38>
    50e6:	432b      	orrs	r3, r5
    50e8:	d003      	beq.n	50f2 <__aeabi_d2f+0x8e>
    50ea:	2305      	movs	r3, #5
    50ec:	08db      	lsrs	r3, r3, #3
    50ee:	2cff      	cmp	r4, #255	; 0xff
    50f0:	d003      	beq.n	50fa <__aeabi_d2f+0x96>
    50f2:	025b      	lsls	r3, r3, #9
    50f4:	0a5b      	lsrs	r3, r3, #9
    50f6:	b2e4      	uxtb	r4, r4
    50f8:	e7e4      	b.n	50c4 <__aeabi_d2f+0x60>
    50fa:	2b00      	cmp	r3, #0
    50fc:	d032      	beq.n	5164 <__aeabi_d2f+0x100>
    50fe:	2080      	movs	r0, #128	; 0x80
    5100:	03c0      	lsls	r0, r0, #15
    5102:	4303      	orrs	r3, r0
    5104:	025b      	lsls	r3, r3, #9
    5106:	0a5b      	lsrs	r3, r3, #9
    5108:	e7dc      	b.n	50c4 <__aeabi_d2f+0x60>
    510a:	0032      	movs	r2, r6
    510c:	3217      	adds	r2, #23
    510e:	db14      	blt.n	513a <__aeabi_d2f+0xd6>
    5110:	2280      	movs	r2, #128	; 0x80
    5112:	271e      	movs	r7, #30
    5114:	0412      	lsls	r2, r2, #16
    5116:	4313      	orrs	r3, r2
    5118:	1bbf      	subs	r7, r7, r6
    511a:	2f1f      	cmp	r7, #31
    511c:	dc0f      	bgt.n	513e <__aeabi_d2f+0xda>
    511e:	4a14      	ldr	r2, [pc, #80]	; (5170 <__aeabi_d2f+0x10c>)
    5120:	4694      	mov	ip, r2
    5122:	4464      	add	r4, ip
    5124:	002a      	movs	r2, r5
    5126:	40a5      	lsls	r5, r4
    5128:	002e      	movs	r6, r5
    512a:	40a3      	lsls	r3, r4
    512c:	1e75      	subs	r5, r6, #1
    512e:	41ae      	sbcs	r6, r5
    5130:	40fa      	lsrs	r2, r7
    5132:	4333      	orrs	r3, r6
    5134:	4313      	orrs	r3, r2
    5136:	2600      	movs	r6, #0
    5138:	e7b0      	b.n	509c <__aeabi_d2f+0x38>
    513a:	2400      	movs	r4, #0
    513c:	e7d5      	b.n	50ea <__aeabi_d2f+0x86>
    513e:	2202      	movs	r2, #2
    5140:	4252      	negs	r2, r2
    5142:	1b96      	subs	r6, r2, r6
    5144:	001a      	movs	r2, r3
    5146:	40f2      	lsrs	r2, r6
    5148:	2f20      	cmp	r7, #32
    514a:	d009      	beq.n	5160 <__aeabi_d2f+0xfc>
    514c:	4809      	ldr	r0, [pc, #36]	; (5174 <__aeabi_d2f+0x110>)
    514e:	4684      	mov	ip, r0
    5150:	4464      	add	r4, ip
    5152:	40a3      	lsls	r3, r4
    5154:	432b      	orrs	r3, r5
    5156:	1e5d      	subs	r5, r3, #1
    5158:	41ab      	sbcs	r3, r5
    515a:	2600      	movs	r6, #0
    515c:	4313      	orrs	r3, r2
    515e:	e79d      	b.n	509c <__aeabi_d2f+0x38>
    5160:	2300      	movs	r3, #0
    5162:	e7f7      	b.n	5154 <__aeabi_d2f+0xf0>
    5164:	2300      	movs	r3, #0
    5166:	e7ad      	b.n	50c4 <__aeabi_d2f+0x60>
    5168:	0034      	movs	r4, r6
    516a:	e7bf      	b.n	50ec <__aeabi_d2f+0x88>
    516c:	fffffc80 	.word	0xfffffc80
    5170:	fffffc82 	.word	0xfffffc82
    5174:	fffffca2 	.word	0xfffffca2

00005178 <__clzsi2>:
    5178:	211c      	movs	r1, #28
    517a:	2301      	movs	r3, #1
    517c:	041b      	lsls	r3, r3, #16
    517e:	4298      	cmp	r0, r3
    5180:	d301      	bcc.n	5186 <__clzsi2+0xe>
    5182:	0c00      	lsrs	r0, r0, #16
    5184:	3910      	subs	r1, #16
    5186:	0a1b      	lsrs	r3, r3, #8
    5188:	4298      	cmp	r0, r3
    518a:	d301      	bcc.n	5190 <__clzsi2+0x18>
    518c:	0a00      	lsrs	r0, r0, #8
    518e:	3908      	subs	r1, #8
    5190:	091b      	lsrs	r3, r3, #4
    5192:	4298      	cmp	r0, r3
    5194:	d301      	bcc.n	519a <__clzsi2+0x22>
    5196:	0900      	lsrs	r0, r0, #4
    5198:	3904      	subs	r1, #4
    519a:	a202      	add	r2, pc, #8	; (adr r2, 51a4 <__clzsi2+0x2c>)
    519c:	5c10      	ldrb	r0, [r2, r0]
    519e:	1840      	adds	r0, r0, r1
    51a0:	4770      	bx	lr
    51a2:	46c0      	nop			; (mov r8, r8)
    51a4:	02020304 	.word	0x02020304
    51a8:	01010101 	.word	0x01010101
	...

000051b4 <__clzdi2>:
    51b4:	b510      	push	{r4, lr}
    51b6:	2900      	cmp	r1, #0
    51b8:	d103      	bne.n	51c2 <__clzdi2+0xe>
    51ba:	f7ff ffdd 	bl	5178 <__clzsi2>
    51be:	3020      	adds	r0, #32
    51c0:	e002      	b.n	51c8 <__clzdi2+0x14>
    51c2:	1c08      	adds	r0, r1, #0
    51c4:	f7ff ffd8 	bl	5178 <__clzsi2>
    51c8:	bd10      	pop	{r4, pc}
    51ca:	46c0      	nop			; (mov r8, r8)

000051cc <__errno>:
    51cc:	4b01      	ldr	r3, [pc, #4]	; (51d4 <__errno+0x8>)
    51ce:	6818      	ldr	r0, [r3, #0]
    51d0:	4770      	bx	lr
    51d2:	46c0      	nop			; (mov r8, r8)
    51d4:	20000004 	.word	0x20000004

000051d8 <__libc_init_array>:
    51d8:	b570      	push	{r4, r5, r6, lr}
    51da:	4e0d      	ldr	r6, [pc, #52]	; (5210 <__libc_init_array+0x38>)
    51dc:	4d0d      	ldr	r5, [pc, #52]	; (5214 <__libc_init_array+0x3c>)
    51de:	2400      	movs	r4, #0
    51e0:	1bad      	subs	r5, r5, r6
    51e2:	10ad      	asrs	r5, r5, #2
    51e4:	d005      	beq.n	51f2 <__libc_init_array+0x1a>
    51e6:	00a3      	lsls	r3, r4, #2
    51e8:	58f3      	ldr	r3, [r6, r3]
    51ea:	3401      	adds	r4, #1
    51ec:	4798      	blx	r3
    51ee:	42a5      	cmp	r5, r4
    51f0:	d1f9      	bne.n	51e6 <__libc_init_array+0xe>
    51f2:	f005 faad 	bl	a750 <_init>
    51f6:	4e08      	ldr	r6, [pc, #32]	; (5218 <__libc_init_array+0x40>)
    51f8:	4d08      	ldr	r5, [pc, #32]	; (521c <__libc_init_array+0x44>)
    51fa:	2400      	movs	r4, #0
    51fc:	1bad      	subs	r5, r5, r6
    51fe:	10ad      	asrs	r5, r5, #2
    5200:	d005      	beq.n	520e <__libc_init_array+0x36>
    5202:	00a3      	lsls	r3, r4, #2
    5204:	58f3      	ldr	r3, [r6, r3]
    5206:	3401      	adds	r4, #1
    5208:	4798      	blx	r3
    520a:	42a5      	cmp	r5, r4
    520c:	d1f9      	bne.n	5202 <__libc_init_array+0x2a>
    520e:	bd70      	pop	{r4, r5, r6, pc}
    5210:	0000a75c 	.word	0x0000a75c
    5214:	0000a75c 	.word	0x0000a75c
    5218:	0000a75c 	.word	0x0000a75c
    521c:	0000a764 	.word	0x0000a764

00005220 <memset>:
    5220:	b5f0      	push	{r4, r5, r6, r7, lr}
    5222:	0783      	lsls	r3, r0, #30
    5224:	d043      	beq.n	52ae <memset+0x8e>
    5226:	1e54      	subs	r4, r2, #1
    5228:	2a00      	cmp	r2, #0
    522a:	d03f      	beq.n	52ac <memset+0x8c>
    522c:	b2ce      	uxtb	r6, r1
    522e:	0002      	movs	r2, r0
    5230:	2503      	movs	r5, #3
    5232:	e002      	b.n	523a <memset+0x1a>
    5234:	001a      	movs	r2, r3
    5236:	3c01      	subs	r4, #1
    5238:	d338      	bcc.n	52ac <memset+0x8c>
    523a:	1c53      	adds	r3, r2, #1
    523c:	7016      	strb	r6, [r2, #0]
    523e:	422b      	tst	r3, r5
    5240:	d1f8      	bne.n	5234 <memset+0x14>
    5242:	2c03      	cmp	r4, #3
    5244:	d92a      	bls.n	529c <memset+0x7c>
    5246:	22ff      	movs	r2, #255	; 0xff
    5248:	400a      	ands	r2, r1
    524a:	0215      	lsls	r5, r2, #8
    524c:	4315      	orrs	r5, r2
    524e:	042a      	lsls	r2, r5, #16
    5250:	4315      	orrs	r5, r2
    5252:	2c0f      	cmp	r4, #15
    5254:	d914      	bls.n	5280 <memset+0x60>
    5256:	0027      	movs	r7, r4
    5258:	001a      	movs	r2, r3
    525a:	3f10      	subs	r7, #16
    525c:	093e      	lsrs	r6, r7, #4
    525e:	3601      	adds	r6, #1
    5260:	0136      	lsls	r6, r6, #4
    5262:	199e      	adds	r6, r3, r6
    5264:	6015      	str	r5, [r2, #0]
    5266:	6055      	str	r5, [r2, #4]
    5268:	6095      	str	r5, [r2, #8]
    526a:	60d5      	str	r5, [r2, #12]
    526c:	3210      	adds	r2, #16
    526e:	4296      	cmp	r6, r2
    5270:	d1f8      	bne.n	5264 <memset+0x44>
    5272:	220f      	movs	r2, #15
    5274:	4397      	bics	r7, r2
    5276:	3710      	adds	r7, #16
    5278:	19db      	adds	r3, r3, r7
    527a:	4014      	ands	r4, r2
    527c:	2c03      	cmp	r4, #3
    527e:	d90d      	bls.n	529c <memset+0x7c>
    5280:	001a      	movs	r2, r3
    5282:	1f27      	subs	r7, r4, #4
    5284:	08be      	lsrs	r6, r7, #2
    5286:	3601      	adds	r6, #1
    5288:	00b6      	lsls	r6, r6, #2
    528a:	199e      	adds	r6, r3, r6
    528c:	c220      	stmia	r2!, {r5}
    528e:	42b2      	cmp	r2, r6
    5290:	d1fc      	bne.n	528c <memset+0x6c>
    5292:	2203      	movs	r2, #3
    5294:	4397      	bics	r7, r2
    5296:	3704      	adds	r7, #4
    5298:	19db      	adds	r3, r3, r7
    529a:	4014      	ands	r4, r2
    529c:	2c00      	cmp	r4, #0
    529e:	d005      	beq.n	52ac <memset+0x8c>
    52a0:	b2c9      	uxtb	r1, r1
    52a2:	191c      	adds	r4, r3, r4
    52a4:	7019      	strb	r1, [r3, #0]
    52a6:	3301      	adds	r3, #1
    52a8:	429c      	cmp	r4, r3
    52aa:	d1fb      	bne.n	52a4 <memset+0x84>
    52ac:	bdf0      	pop	{r4, r5, r6, r7, pc}
    52ae:	0014      	movs	r4, r2
    52b0:	0003      	movs	r3, r0
    52b2:	e7c6      	b.n	5242 <memset+0x22>

000052b4 <printf>:
    52b4:	b40f      	push	{r0, r1, r2, r3}
    52b6:	b500      	push	{lr}
    52b8:	4906      	ldr	r1, [pc, #24]	; (52d4 <printf+0x20>)
    52ba:	b083      	sub	sp, #12
    52bc:	ab04      	add	r3, sp, #16
    52be:	6808      	ldr	r0, [r1, #0]
    52c0:	cb04      	ldmia	r3!, {r2}
    52c2:	6881      	ldr	r1, [r0, #8]
    52c4:	9301      	str	r3, [sp, #4]
    52c6:	f000 f96d 	bl	55a4 <_vfprintf_r>
    52ca:	b003      	add	sp, #12
    52cc:	bc08      	pop	{r3}
    52ce:	b004      	add	sp, #16
    52d0:	4718      	bx	r3
    52d2:	46c0      	nop			; (mov r8, r8)
    52d4:	20000004 	.word	0x20000004

000052d8 <_puts_r>:
    52d8:	b530      	push	{r4, r5, lr}
    52da:	0004      	movs	r4, r0
    52dc:	b089      	sub	sp, #36	; 0x24
    52de:	0008      	movs	r0, r1
    52e0:	000d      	movs	r5, r1
    52e2:	f000 f92d 	bl	5540 <strlen>
    52e6:	ab04      	add	r3, sp, #16
    52e8:	4a21      	ldr	r2, [pc, #132]	; (5370 <_puts_r+0x98>)
    52ea:	9301      	str	r3, [sp, #4]
    52ec:	2302      	movs	r3, #2
    52ee:	9206      	str	r2, [sp, #24]
    52f0:	2201      	movs	r2, #1
    52f2:	9302      	str	r3, [sp, #8]
    52f4:	6ba3      	ldr	r3, [r4, #56]	; 0x38
    52f6:	9005      	str	r0, [sp, #20]
    52f8:	3001      	adds	r0, #1
    52fa:	9504      	str	r5, [sp, #16]
    52fc:	9207      	str	r2, [sp, #28]
    52fe:	9003      	str	r0, [sp, #12]
    5300:	68a5      	ldr	r5, [r4, #8]
    5302:	2b00      	cmp	r3, #0
    5304:	d02f      	beq.n	5366 <_puts_r+0x8e>
    5306:	6e6b      	ldr	r3, [r5, #100]	; 0x64
    5308:	07db      	lsls	r3, r3, #31
    530a:	d424      	bmi.n	5356 <_puts_r+0x7e>
    530c:	230c      	movs	r3, #12
    530e:	5eea      	ldrsh	r2, [r5, r3]
    5310:	b291      	uxth	r1, r2
    5312:	058b      	lsls	r3, r1, #22
    5314:	d51c      	bpl.n	5350 <_puts_r+0x78>
    5316:	2380      	movs	r3, #128	; 0x80
    5318:	019b      	lsls	r3, r3, #6
    531a:	4219      	tst	r1, r3
    531c:	d105      	bne.n	532a <_puts_r+0x52>
    531e:	4313      	orrs	r3, r2
    5320:	81ab      	strh	r3, [r5, #12]
    5322:	6e6a      	ldr	r2, [r5, #100]	; 0x64
    5324:	4b13      	ldr	r3, [pc, #76]	; (5374 <_puts_r+0x9c>)
    5326:	4013      	ands	r3, r2
    5328:	666b      	str	r3, [r5, #100]	; 0x64
    532a:	0020      	movs	r0, r4
    532c:	aa01      	add	r2, sp, #4
    532e:	0029      	movs	r1, r5
    5330:	f003 f85e 	bl	83f0 <__sfvwrite_r>
    5334:	1e44      	subs	r4, r0, #1
    5336:	41a0      	sbcs	r0, r4
    5338:	4244      	negs	r4, r0
    533a:	200a      	movs	r0, #10
    533c:	6e6b      	ldr	r3, [r5, #100]	; 0x64
    533e:	4304      	orrs	r4, r0
    5340:	07db      	lsls	r3, r3, #31
    5342:	d402      	bmi.n	534a <_puts_r+0x72>
    5344:	89ab      	ldrh	r3, [r5, #12]
    5346:	059b      	lsls	r3, r3, #22
    5348:	d509      	bpl.n	535e <_puts_r+0x86>
    534a:	0020      	movs	r0, r4
    534c:	b009      	add	sp, #36	; 0x24
    534e:	bd30      	pop	{r4, r5, pc}
    5350:	6da8      	ldr	r0, [r5, #88]	; 0x58
    5352:	f003 fa07 	bl	8764 <__retarget_lock_acquire_recursive>
    5356:	230c      	movs	r3, #12
    5358:	5eea      	ldrsh	r2, [r5, r3]
    535a:	b291      	uxth	r1, r2
    535c:	e7db      	b.n	5316 <_puts_r+0x3e>
    535e:	6da8      	ldr	r0, [r5, #88]	; 0x58
    5360:	f003 fa02 	bl	8768 <__retarget_lock_release_recursive>
    5364:	e7f1      	b.n	534a <_puts_r+0x72>
    5366:	0020      	movs	r0, r4
    5368:	f002 feba 	bl	80e0 <__sinit>
    536c:	e7cb      	b.n	5306 <_puts_r+0x2e>
    536e:	46c0      	nop			; (mov r8, r8)
    5370:	0000a1d4 	.word	0x0000a1d4
    5374:	ffffdfff 	.word	0xffffdfff

00005378 <puts>:
    5378:	b510      	push	{r4, lr}
    537a:	4b03      	ldr	r3, [pc, #12]	; (5388 <puts+0x10>)
    537c:	0001      	movs	r1, r0
    537e:	6818      	ldr	r0, [r3, #0]
    5380:	f7ff ffaa 	bl	52d8 <_puts_r>
    5384:	bd10      	pop	{r4, pc}
    5386:	46c0      	nop			; (mov r8, r8)
    5388:	20000004 	.word	0x20000004

0000538c <setbuf>:
    538c:	424a      	negs	r2, r1
    538e:	414a      	adcs	r2, r1
    5390:	2380      	movs	r3, #128	; 0x80
    5392:	b510      	push	{r4, lr}
    5394:	0052      	lsls	r2, r2, #1
    5396:	00db      	lsls	r3, r3, #3
    5398:	f000 f802 	bl	53a0 <setvbuf>
    539c:	bd10      	pop	{r4, pc}
    539e:	46c0      	nop			; (mov r8, r8)

000053a0 <setvbuf>:
    53a0:	b5f0      	push	{r4, r5, r6, r7, lr}
    53a2:	4647      	mov	r7, r8
    53a4:	46ce      	mov	lr, r9
    53a6:	b580      	push	{r7, lr}
    53a8:	001f      	movs	r7, r3
    53aa:	4b63      	ldr	r3, [pc, #396]	; (5538 <setvbuf+0x198>)
    53ac:	b083      	sub	sp, #12
    53ae:	681d      	ldr	r5, [r3, #0]
    53b0:	0004      	movs	r4, r0
    53b2:	4688      	mov	r8, r1
    53b4:	0016      	movs	r6, r2
    53b6:	2d00      	cmp	r5, #0
    53b8:	d002      	beq.n	53c0 <setvbuf+0x20>
    53ba:	6bab      	ldr	r3, [r5, #56]	; 0x38
    53bc:	2b00      	cmp	r3, #0
    53be:	d066      	beq.n	548e <setvbuf+0xee>
    53c0:	2e02      	cmp	r6, #2
    53c2:	d005      	beq.n	53d0 <setvbuf+0x30>
    53c4:	2e01      	cmp	r6, #1
    53c6:	d900      	bls.n	53ca <setvbuf+0x2a>
    53c8:	e0a1      	b.n	550e <setvbuf+0x16e>
    53ca:	2f00      	cmp	r7, #0
    53cc:	da00      	bge.n	53d0 <setvbuf+0x30>
    53ce:	e09e      	b.n	550e <setvbuf+0x16e>
    53d0:	6e63      	ldr	r3, [r4, #100]	; 0x64
    53d2:	07db      	lsls	r3, r3, #31
    53d4:	d533      	bpl.n	543e <setvbuf+0x9e>
    53d6:	0021      	movs	r1, r4
    53d8:	0028      	movs	r0, r5
    53da:	f002 fe27 	bl	802c <_fflush_r>
    53de:	6b21      	ldr	r1, [r4, #48]	; 0x30
    53e0:	2900      	cmp	r1, #0
    53e2:	d008      	beq.n	53f6 <setvbuf+0x56>
    53e4:	0023      	movs	r3, r4
    53e6:	3340      	adds	r3, #64	; 0x40
    53e8:	4299      	cmp	r1, r3
    53ea:	d002      	beq.n	53f2 <setvbuf+0x52>
    53ec:	0028      	movs	r0, r5
    53ee:	f002 ff21 	bl	8234 <_free_r>
    53f2:	2300      	movs	r3, #0
    53f4:	6323      	str	r3, [r4, #48]	; 0x30
    53f6:	2300      	movs	r3, #0
    53f8:	61a3      	str	r3, [r4, #24]
    53fa:	6063      	str	r3, [r4, #4]
    53fc:	220c      	movs	r2, #12
    53fe:	5ea3      	ldrsh	r3, [r4, r2]
    5400:	061a      	lsls	r2, r3, #24
    5402:	d43d      	bmi.n	5480 <setvbuf+0xe0>
    5404:	4a4d      	ldr	r2, [pc, #308]	; (553c <setvbuf+0x19c>)
    5406:	4013      	ands	r3, r2
    5408:	81a3      	strh	r3, [r4, #12]
    540a:	2e02      	cmp	r6, #2
    540c:	d01e      	beq.n	544c <setvbuf+0xac>
    540e:	ab01      	add	r3, sp, #4
    5410:	466a      	mov	r2, sp
    5412:	0021      	movs	r1, r4
    5414:	0028      	movs	r0, r5
    5416:	f003 f9a9 	bl	876c <__swhatbuf_r>
    541a:	89a3      	ldrh	r3, [r4, #12]
    541c:	4318      	orrs	r0, r3
    541e:	81a0      	strh	r0, [r4, #12]
    5420:	2f00      	cmp	r7, #0
    5422:	d138      	bne.n	5496 <setvbuf+0xf6>
    5424:	9f00      	ldr	r7, [sp, #0]
    5426:	0038      	movs	r0, r7
    5428:	f003 fa18 	bl	885c <malloc>
    542c:	4680      	mov	r8, r0
    542e:	2800      	cmp	r0, #0
    5430:	d100      	bne.n	5434 <setvbuf+0x94>
    5432:	e06f      	b.n	5514 <setvbuf+0x174>
    5434:	2280      	movs	r2, #128	; 0x80
    5436:	89a3      	ldrh	r3, [r4, #12]
    5438:	4313      	orrs	r3, r2
    543a:	81a3      	strh	r3, [r4, #12]
    543c:	e02e      	b.n	549c <setvbuf+0xfc>
    543e:	89a3      	ldrh	r3, [r4, #12]
    5440:	059b      	lsls	r3, r3, #22
    5442:	d4c8      	bmi.n	53d6 <setvbuf+0x36>
    5444:	6da0      	ldr	r0, [r4, #88]	; 0x58
    5446:	f003 f98d 	bl	8764 <__retarget_lock_acquire_recursive>
    544a:	e7c4      	b.n	53d6 <setvbuf+0x36>
    544c:	2500      	movs	r5, #0
    544e:	2202      	movs	r2, #2
    5450:	4313      	orrs	r3, r2
    5452:	2200      	movs	r2, #0
    5454:	60a2      	str	r2, [r4, #8]
    5456:	0022      	movs	r2, r4
    5458:	3243      	adds	r2, #67	; 0x43
    545a:	6022      	str	r2, [r4, #0]
    545c:	6122      	str	r2, [r4, #16]
    545e:	2201      	movs	r2, #1
    5460:	6e61      	ldr	r1, [r4, #100]	; 0x64
    5462:	81a3      	strh	r3, [r4, #12]
    5464:	6162      	str	r2, [r4, #20]
    5466:	4211      	tst	r1, r2
    5468:	d104      	bne.n	5474 <setvbuf+0xd4>
    546a:	059b      	lsls	r3, r3, #22
    546c:	d402      	bmi.n	5474 <setvbuf+0xd4>
    546e:	6da0      	ldr	r0, [r4, #88]	; 0x58
    5470:	f003 f97a 	bl	8768 <__retarget_lock_release_recursive>
    5474:	0028      	movs	r0, r5
    5476:	b003      	add	sp, #12
    5478:	bc0c      	pop	{r2, r3}
    547a:	4690      	mov	r8, r2
    547c:	4699      	mov	r9, r3
    547e:	bdf0      	pop	{r4, r5, r6, r7, pc}
    5480:	6921      	ldr	r1, [r4, #16]
    5482:	0028      	movs	r0, r5
    5484:	f002 fed6 	bl	8234 <_free_r>
    5488:	220c      	movs	r2, #12
    548a:	5ea3      	ldrsh	r3, [r4, r2]
    548c:	e7ba      	b.n	5404 <setvbuf+0x64>
    548e:	0028      	movs	r0, r5
    5490:	f002 fe26 	bl	80e0 <__sinit>
    5494:	e794      	b.n	53c0 <setvbuf+0x20>
    5496:	4643      	mov	r3, r8
    5498:	2b00      	cmp	r3, #0
    549a:	d0c4      	beq.n	5426 <setvbuf+0x86>
    549c:	6bab      	ldr	r3, [r5, #56]	; 0x38
    549e:	2b00      	cmp	r3, #0
    54a0:	d027      	beq.n	54f2 <setvbuf+0x152>
    54a2:	9b00      	ldr	r3, [sp, #0]
    54a4:	429f      	cmp	r7, r3
    54a6:	d02a      	beq.n	54fe <setvbuf+0x15e>
    54a8:	2380      	movs	r3, #128	; 0x80
    54aa:	89a2      	ldrh	r2, [r4, #12]
    54ac:	011b      	lsls	r3, r3, #4
    54ae:	4313      	orrs	r3, r2
    54b0:	b21b      	sxth	r3, r3
    54b2:	81a3      	strh	r3, [r4, #12]
    54b4:	2e01      	cmp	r6, #1
    54b6:	d026      	beq.n	5506 <setvbuf+0x166>
    54b8:	4642      	mov	r2, r8
    54ba:	6022      	str	r2, [r4, #0]
    54bc:	6122      	str	r2, [r4, #16]
    54be:	2208      	movs	r2, #8
    54c0:	b29b      	uxth	r3, r3
    54c2:	6167      	str	r7, [r4, #20]
    54c4:	401a      	ands	r2, r3
    54c6:	d00b      	beq.n	54e0 <setvbuf+0x140>
    54c8:	07da      	lsls	r2, r3, #31
    54ca:	d510      	bpl.n	54ee <setvbuf+0x14e>
    54cc:	2200      	movs	r2, #0
    54ce:	2501      	movs	r5, #1
    54d0:	60a2      	str	r2, [r4, #8]
    54d2:	6e62      	ldr	r2, [r4, #100]	; 0x64
    54d4:	427f      	negs	r7, r7
    54d6:	61a7      	str	r7, [r4, #24]
    54d8:	4015      	ands	r5, r2
    54da:	d0c6      	beq.n	546a <setvbuf+0xca>
    54dc:	2500      	movs	r5, #0
    54de:	e7c9      	b.n	5474 <setvbuf+0xd4>
    54e0:	60a2      	str	r2, [r4, #8]
    54e2:	2501      	movs	r5, #1
    54e4:	6e62      	ldr	r2, [r4, #100]	; 0x64
    54e6:	4015      	ands	r5, r2
    54e8:	d0bf      	beq.n	546a <setvbuf+0xca>
    54ea:	2500      	movs	r5, #0
    54ec:	e7c2      	b.n	5474 <setvbuf+0xd4>
    54ee:	60a7      	str	r7, [r4, #8]
    54f0:	e7f7      	b.n	54e2 <setvbuf+0x142>
    54f2:	0028      	movs	r0, r5
    54f4:	f002 fdf4 	bl	80e0 <__sinit>
    54f8:	9b00      	ldr	r3, [sp, #0]
    54fa:	429f      	cmp	r7, r3
    54fc:	d1d4      	bne.n	54a8 <setvbuf+0x108>
    54fe:	220c      	movs	r2, #12
    5500:	5ea3      	ldrsh	r3, [r4, r2]
    5502:	2e01      	cmp	r6, #1
    5504:	d1d8      	bne.n	54b8 <setvbuf+0x118>
    5506:	2201      	movs	r2, #1
    5508:	4313      	orrs	r3, r2
    550a:	81a3      	strh	r3, [r4, #12]
    550c:	e7d4      	b.n	54b8 <setvbuf+0x118>
    550e:	2501      	movs	r5, #1
    5510:	426d      	negs	r5, r5
    5512:	e7af      	b.n	5474 <setvbuf+0xd4>
    5514:	9b00      	ldr	r3, [sp, #0]
    5516:	4699      	mov	r9, r3
    5518:	42bb      	cmp	r3, r7
    551a:	d005      	beq.n	5528 <setvbuf+0x188>
    551c:	0018      	movs	r0, r3
    551e:	f003 f99d 	bl	885c <malloc>
    5522:	4680      	mov	r8, r0
    5524:	2800      	cmp	r0, #0
    5526:	d104      	bne.n	5532 <setvbuf+0x192>
    5528:	2501      	movs	r5, #1
    552a:	220c      	movs	r2, #12
    552c:	5ea3      	ldrsh	r3, [r4, r2]
    552e:	426d      	negs	r5, r5
    5530:	e78d      	b.n	544e <setvbuf+0xae>
    5532:	464f      	mov	r7, r9
    5534:	e77e      	b.n	5434 <setvbuf+0x94>
    5536:	46c0      	nop			; (mov r8, r8)
    5538:	20000004 	.word	0x20000004
    553c:	fffff35c 	.word	0xfffff35c

00005540 <strlen>:
    5540:	b510      	push	{r4, lr}
    5542:	0783      	lsls	r3, r0, #30
    5544:	d025      	beq.n	5592 <strlen+0x52>
    5546:	7803      	ldrb	r3, [r0, #0]
    5548:	2b00      	cmp	r3, #0
    554a:	d024      	beq.n	5596 <strlen+0x56>
    554c:	0003      	movs	r3, r0
    554e:	2103      	movs	r1, #3
    5550:	e002      	b.n	5558 <strlen+0x18>
    5552:	781a      	ldrb	r2, [r3, #0]
    5554:	2a00      	cmp	r2, #0
    5556:	d01a      	beq.n	558e <strlen+0x4e>
    5558:	3301      	adds	r3, #1
    555a:	420b      	tst	r3, r1
    555c:	d1f9      	bne.n	5552 <strlen+0x12>
    555e:	6819      	ldr	r1, [r3, #0]
    5560:	4a0e      	ldr	r2, [pc, #56]	; (559c <strlen+0x5c>)
    5562:	4c0f      	ldr	r4, [pc, #60]	; (55a0 <strlen+0x60>)
    5564:	188a      	adds	r2, r1, r2
    5566:	438a      	bics	r2, r1
    5568:	4222      	tst	r2, r4
    556a:	d106      	bne.n	557a <strlen+0x3a>
    556c:	3304      	adds	r3, #4
    556e:	6819      	ldr	r1, [r3, #0]
    5570:	4a0a      	ldr	r2, [pc, #40]	; (559c <strlen+0x5c>)
    5572:	188a      	adds	r2, r1, r2
    5574:	438a      	bics	r2, r1
    5576:	4222      	tst	r2, r4
    5578:	d0f8      	beq.n	556c <strlen+0x2c>
    557a:	001a      	movs	r2, r3
    557c:	781b      	ldrb	r3, [r3, #0]
    557e:	2b00      	cmp	r3, #0
    5580:	d003      	beq.n	558a <strlen+0x4a>
    5582:	3201      	adds	r2, #1
    5584:	7811      	ldrb	r1, [r2, #0]
    5586:	2900      	cmp	r1, #0
    5588:	d1fb      	bne.n	5582 <strlen+0x42>
    558a:	1a10      	subs	r0, r2, r0
    558c:	bd10      	pop	{r4, pc}
    558e:	1a18      	subs	r0, r3, r0
    5590:	e7fc      	b.n	558c <strlen+0x4c>
    5592:	0003      	movs	r3, r0
    5594:	e7e3      	b.n	555e <strlen+0x1e>
    5596:	2000      	movs	r0, #0
    5598:	e7f8      	b.n	558c <strlen+0x4c>
    559a:	46c0      	nop			; (mov r8, r8)
    559c:	fefefeff 	.word	0xfefefeff
    55a0:	80808080 	.word	0x80808080

000055a4 <_vfprintf_r>:
    55a4:	b5f0      	push	{r4, r5, r6, r7, lr}
    55a6:	46de      	mov	lr, fp
    55a8:	464e      	mov	r6, r9
    55aa:	4645      	mov	r5, r8
    55ac:	4657      	mov	r7, sl
    55ae:	b5e0      	push	{r5, r6, r7, lr}
    55b0:	b0c3      	sub	sp, #268	; 0x10c
    55b2:	4689      	mov	r9, r1
    55b4:	0014      	movs	r4, r2
    55b6:	001d      	movs	r5, r3
    55b8:	930f      	str	r3, [sp, #60]	; 0x3c
    55ba:	0006      	movs	r6, r0
    55bc:	9006      	str	r0, [sp, #24]
    55be:	f003 f8bf 	bl	8740 <_localeconv_r>
    55c2:	6803      	ldr	r3, [r0, #0]
    55c4:	0018      	movs	r0, r3
    55c6:	9318      	str	r3, [sp, #96]	; 0x60
    55c8:	f7ff ffba 	bl	5540 <strlen>
    55cc:	9017      	str	r0, [sp, #92]	; 0x5c
    55ce:	2e00      	cmp	r6, #0
    55d0:	d004      	beq.n	55dc <_vfprintf_r+0x38>
    55d2:	6bb3      	ldr	r3, [r6, #56]	; 0x38
    55d4:	9307      	str	r3, [sp, #28]
    55d6:	2b00      	cmp	r3, #0
    55d8:	d100      	bne.n	55dc <_vfprintf_r+0x38>
    55da:	e0a7      	b.n	572c <_vfprintf_r+0x188>
    55dc:	464b      	mov	r3, r9
    55de:	6e5b      	ldr	r3, [r3, #100]	; 0x64
    55e0:	07db      	lsls	r3, r3, #31
    55e2:	d478      	bmi.n	56d6 <_vfprintf_r+0x132>
    55e4:	464b      	mov	r3, r9
    55e6:	210c      	movs	r1, #12
    55e8:	5e59      	ldrsh	r1, [r3, r1]
    55ea:	b28b      	uxth	r3, r1
    55ec:	059a      	lsls	r2, r3, #22
    55ee:	d56e      	bpl.n	56ce <_vfprintf_r+0x12a>
    55f0:	2280      	movs	r2, #128	; 0x80
    55f2:	0192      	lsls	r2, r2, #6
    55f4:	4213      	tst	r3, r2
    55f6:	d109      	bne.n	560c <_vfprintf_r+0x68>
    55f8:	430a      	orrs	r2, r1
    55fa:	464b      	mov	r3, r9
    55fc:	4649      	mov	r1, r9
    55fe:	819a      	strh	r2, [r3, #12]
    5600:	6e49      	ldr	r1, [r1, #100]	; 0x64
    5602:	4bcc      	ldr	r3, [pc, #816]	; (5934 <_vfprintf_r+0x390>)
    5604:	400b      	ands	r3, r1
    5606:	4649      	mov	r1, r9
    5608:	664b      	str	r3, [r1, #100]	; 0x64
    560a:	b293      	uxth	r3, r2
    560c:	071a      	lsls	r2, r3, #28
    560e:	d567      	bpl.n	56e0 <_vfprintf_r+0x13c>
    5610:	464a      	mov	r2, r9
    5612:	6912      	ldr	r2, [r2, #16]
    5614:	2a00      	cmp	r2, #0
    5616:	d063      	beq.n	56e0 <_vfprintf_r+0x13c>
    5618:	221a      	movs	r2, #26
    561a:	401a      	ands	r2, r3
    561c:	2a0a      	cmp	r2, #10
    561e:	d100      	bne.n	5622 <_vfprintf_r+0x7e>
    5620:	e088      	b.n	5734 <_vfprintf_r+0x190>
    5622:	ab32      	add	r3, sp, #200	; 0xc8
    5624:	9325      	str	r3, [sp, #148]	; 0x94
    5626:	2300      	movs	r3, #0
    5628:	46cb      	mov	fp, r9
    562a:	af25      	add	r7, sp, #148	; 0x94
    562c:	60bb      	str	r3, [r7, #8]
    562e:	607b      	str	r3, [r7, #4]
    5630:	9407      	str	r4, [sp, #28]
    5632:	9314      	str	r3, [sp, #80]	; 0x50
    5634:	9316      	str	r3, [sp, #88]	; 0x58
    5636:	9315      	str	r3, [sp, #84]	; 0x54
    5638:	ae32      	add	r6, sp, #200	; 0xc8
    563a:	9319      	str	r3, [sp, #100]	; 0x64
    563c:	931a      	str	r3, [sp, #104]	; 0x68
    563e:	930a      	str	r3, [sp, #40]	; 0x28
    5640:	9c07      	ldr	r4, [sp, #28]
    5642:	7823      	ldrb	r3, [r4, #0]
    5644:	2b00      	cmp	r3, #0
    5646:	d101      	bne.n	564c <_vfprintf_r+0xa8>
    5648:	f000 fd9e 	bl	6188 <_vfprintf_r+0xbe4>
    564c:	2b25      	cmp	r3, #37	; 0x25
    564e:	d103      	bne.n	5658 <_vfprintf_r+0xb4>
    5650:	f000 fd9a 	bl	6188 <_vfprintf_r+0xbe4>
    5654:	2b25      	cmp	r3, #37	; 0x25
    5656:	d003      	beq.n	5660 <_vfprintf_r+0xbc>
    5658:	3401      	adds	r4, #1
    565a:	7823      	ldrb	r3, [r4, #0]
    565c:	2b00      	cmp	r3, #0
    565e:	d1f9      	bne.n	5654 <_vfprintf_r+0xb0>
    5660:	9b07      	ldr	r3, [sp, #28]
    5662:	1ae5      	subs	r5, r4, r3
    5664:	d010      	beq.n	5688 <_vfprintf_r+0xe4>
    5666:	9b07      	ldr	r3, [sp, #28]
    5668:	6075      	str	r5, [r6, #4]
    566a:	6033      	str	r3, [r6, #0]
    566c:	68bb      	ldr	r3, [r7, #8]
    566e:	195b      	adds	r3, r3, r5
    5670:	60bb      	str	r3, [r7, #8]
    5672:	687b      	ldr	r3, [r7, #4]
    5674:	3301      	adds	r3, #1
    5676:	607b      	str	r3, [r7, #4]
    5678:	2b07      	cmp	r3, #7
    567a:	dc4c      	bgt.n	5716 <_vfprintf_r+0x172>
    567c:	3608      	adds	r6, #8
    567e:	9b0a      	ldr	r3, [sp, #40]	; 0x28
    5680:	469c      	mov	ip, r3
    5682:	44ac      	add	ip, r5
    5684:	4663      	mov	r3, ip
    5686:	930a      	str	r3, [sp, #40]	; 0x28
    5688:	7823      	ldrb	r3, [r4, #0]
    568a:	2b00      	cmp	r3, #0
    568c:	d101      	bne.n	5692 <_vfprintf_r+0xee>
    568e:	f000 fc99 	bl	5fc4 <_vfprintf_r+0xa20>
    5692:	1c63      	adds	r3, r4, #1
    5694:	9307      	str	r3, [sp, #28]
    5696:	2300      	movs	r3, #0
    5698:	aa16      	add	r2, sp, #88	; 0x58
    569a:	77d3      	strb	r3, [r2, #31]
    569c:	2201      	movs	r2, #1
    569e:	4252      	negs	r2, r2
    56a0:	4692      	mov	sl, r2
    56a2:	2200      	movs	r2, #0
    56a4:	920b      	str	r2, [sp, #44]	; 0x2c
    56a6:	3220      	adds	r2, #32
    56a8:	4691      	mov	r9, r2
    56aa:	3220      	adds	r2, #32
    56ac:	7863      	ldrb	r3, [r4, #1]
    56ae:	2100      	movs	r1, #0
    56b0:	2000      	movs	r0, #0
    56b2:	2400      	movs	r4, #0
    56b4:	4694      	mov	ip, r2
    56b6:	9a07      	ldr	r2, [sp, #28]
    56b8:	3201      	adds	r2, #1
    56ba:	9207      	str	r2, [sp, #28]
    56bc:	001a      	movs	r2, r3
    56be:	3a20      	subs	r2, #32
    56c0:	2a58      	cmp	r2, #88	; 0x58
    56c2:	d900      	bls.n	56c6 <_vfprintf_r+0x122>
    56c4:	e2e7      	b.n	5c96 <_vfprintf_r+0x6f2>
    56c6:	4d9c      	ldr	r5, [pc, #624]	; (5938 <_vfprintf_r+0x394>)
    56c8:	0092      	lsls	r2, r2, #2
    56ca:	58aa      	ldr	r2, [r5, r2]
    56cc:	4697      	mov	pc, r2
    56ce:	464b      	mov	r3, r9
    56d0:	6d98      	ldr	r0, [r3, #88]	; 0x58
    56d2:	f003 f847 	bl	8764 <__retarget_lock_acquire_recursive>
    56d6:	464b      	mov	r3, r9
    56d8:	210c      	movs	r1, #12
    56da:	5e59      	ldrsh	r1, [r3, r1]
    56dc:	b28b      	uxth	r3, r1
    56de:	e787      	b.n	55f0 <_vfprintf_r+0x4c>
    56e0:	4649      	mov	r1, r9
    56e2:	9806      	ldr	r0, [sp, #24]
    56e4:	f001 fb0e 	bl	6d04 <__swsetup_r>
    56e8:	464b      	mov	r3, r9
    56ea:	2800      	cmp	r0, #0
    56ec:	d03a      	beq.n	5764 <_vfprintf_r+0x1c0>
    56ee:	6e5b      	ldr	r3, [r3, #100]	; 0x64
    56f0:	07db      	lsls	r3, r3, #31
    56f2:	d405      	bmi.n	5700 <_vfprintf_r+0x15c>
    56f4:	464b      	mov	r3, r9
    56f6:	899b      	ldrh	r3, [r3, #12]
    56f8:	059b      	lsls	r3, r3, #22
    56fa:	d401      	bmi.n	5700 <_vfprintf_r+0x15c>
    56fc:	f000 ffcf 	bl	669e <_vfprintf_r+0x10fa>
    5700:	2301      	movs	r3, #1
    5702:	425b      	negs	r3, r3
    5704:	930a      	str	r3, [sp, #40]	; 0x28
    5706:	980a      	ldr	r0, [sp, #40]	; 0x28
    5708:	b043      	add	sp, #268	; 0x10c
    570a:	bc3c      	pop	{r2, r3, r4, r5}
    570c:	4690      	mov	r8, r2
    570e:	4699      	mov	r9, r3
    5710:	46a2      	mov	sl, r4
    5712:	46ab      	mov	fp, r5
    5714:	bdf0      	pop	{r4, r5, r6, r7, pc}
    5716:	003a      	movs	r2, r7
    5718:	4659      	mov	r1, fp
    571a:	9806      	ldr	r0, [sp, #24]
    571c:	f004 f9e6 	bl	9aec <__sprint_r>
    5720:	2800      	cmp	r0, #0
    5722:	d001      	beq.n	5728 <_vfprintf_r+0x184>
    5724:	f000 fcce 	bl	60c4 <_vfprintf_r+0xb20>
    5728:	ae32      	add	r6, sp, #200	; 0xc8
    572a:	e7a8      	b.n	567e <_vfprintf_r+0xda>
    572c:	9806      	ldr	r0, [sp, #24]
    572e:	f002 fcd7 	bl	80e0 <__sinit>
    5732:	e753      	b.n	55dc <_vfprintf_r+0x38>
    5734:	464a      	mov	r2, r9
    5736:	210e      	movs	r1, #14
    5738:	5e52      	ldrsh	r2, [r2, r1]
    573a:	2a00      	cmp	r2, #0
    573c:	da00      	bge.n	5740 <_vfprintf_r+0x19c>
    573e:	e770      	b.n	5622 <_vfprintf_r+0x7e>
    5740:	464a      	mov	r2, r9
    5742:	6e52      	ldr	r2, [r2, #100]	; 0x64
    5744:	07d2      	lsls	r2, r2, #31
    5746:	d405      	bmi.n	5754 <_vfprintf_r+0x1b0>
    5748:	059b      	lsls	r3, r3, #22
    574a:	d403      	bmi.n	5754 <_vfprintf_r+0x1b0>
    574c:	464b      	mov	r3, r9
    574e:	6d98      	ldr	r0, [r3, #88]	; 0x58
    5750:	f003 f80a 	bl	8768 <__retarget_lock_release_recursive>
    5754:	002b      	movs	r3, r5
    5756:	0022      	movs	r2, r4
    5758:	4649      	mov	r1, r9
    575a:	9806      	ldr	r0, [sp, #24]
    575c:	f001 fa8e 	bl	6c7c <__sbprintf>
    5760:	900a      	str	r0, [sp, #40]	; 0x28
    5762:	e7d0      	b.n	5706 <_vfprintf_r+0x162>
    5764:	899b      	ldrh	r3, [r3, #12]
    5766:	e757      	b.n	5618 <_vfprintf_r+0x74>
    5768:	9b0b      	ldr	r3, [sp, #44]	; 0x2c
    576a:	920f      	str	r2, [sp, #60]	; 0x3c
    576c:	425b      	negs	r3, r3
    576e:	930b      	str	r3, [sp, #44]	; 0x2c
    5770:	2304      	movs	r3, #4
    5772:	431c      	orrs	r4, r3
    5774:	9b07      	ldr	r3, [sp, #28]
    5776:	781b      	ldrb	r3, [r3, #0]
    5778:	e79d      	b.n	56b6 <_vfprintf_r+0x112>
    577a:	9b07      	ldr	r3, [sp, #28]
    577c:	2101      	movs	r1, #1
    577e:	781b      	ldrb	r3, [r3, #0]
    5780:	202b      	movs	r0, #43	; 0x2b
    5782:	e798      	b.n	56b6 <_vfprintf_r+0x112>
    5784:	9b07      	ldr	r3, [sp, #28]
    5786:	1c5a      	adds	r2, r3, #1
    5788:	781b      	ldrb	r3, [r3, #0]
    578a:	4690      	mov	r8, r2
    578c:	2b2a      	cmp	r3, #42	; 0x2a
    578e:	d101      	bne.n	5794 <_vfprintf_r+0x1f0>
    5790:	f001 fa38 	bl	6c04 <_vfprintf_r+0x1660>
    5794:	001a      	movs	r2, r3
    5796:	2500      	movs	r5, #0
    5798:	3a30      	subs	r2, #48	; 0x30
    579a:	46aa      	mov	sl, r5
    579c:	2a09      	cmp	r2, #9
    579e:	d901      	bls.n	57a4 <_vfprintf_r+0x200>
    57a0:	f001 f96d 	bl	6a7e <_vfprintf_r+0x14da>
    57a4:	0025      	movs	r5, r4
    57a6:	4643      	mov	r3, r8
    57a8:	4654      	mov	r4, sl
    57aa:	4688      	mov	r8, r1
    57ac:	4682      	mov	sl, r0
    57ae:	00a1      	lsls	r1, r4, #2
    57b0:	190c      	adds	r4, r1, r4
    57b2:	7818      	ldrb	r0, [r3, #0]
    57b4:	0064      	lsls	r4, r4, #1
    57b6:	18a4      	adds	r4, r4, r2
    57b8:	0002      	movs	r2, r0
    57ba:	1c59      	adds	r1, r3, #1
    57bc:	3a30      	subs	r2, #48	; 0x30
    57be:	000b      	movs	r3, r1
    57c0:	2a09      	cmp	r2, #9
    57c2:	d9f4      	bls.n	57ae <_vfprintf_r+0x20a>
    57c4:	9107      	str	r1, [sp, #28]
    57c6:	0003      	movs	r3, r0
    57c8:	4641      	mov	r1, r8
    57ca:	4650      	mov	r0, sl
    57cc:	46a2      	mov	sl, r4
    57ce:	002c      	movs	r4, r5
    57d0:	e774      	b.n	56bc <_vfprintf_r+0x118>
    57d2:	9312      	str	r3, [sp, #72]	; 0x48
    57d4:	2900      	cmp	r1, #0
    57d6:	d001      	beq.n	57dc <_vfprintf_r+0x238>
    57d8:	f001 fa2e 	bl	6c38 <_vfprintf_r+0x1694>
    57dc:	4b57      	ldr	r3, [pc, #348]	; (593c <_vfprintf_r+0x398>)
    57de:	9319      	str	r3, [sp, #100]	; 0x64
    57e0:	06a3      	lsls	r3, r4, #26
    57e2:	d501      	bpl.n	57e8 <_vfprintf_r+0x244>
    57e4:	f000 fe9a 	bl	651c <_vfprintf_r+0xf78>
    57e8:	06e3      	lsls	r3, r4, #27
    57ea:	d501      	bpl.n	57f0 <_vfprintf_r+0x24c>
    57ec:	f000 fd9a 	bl	6324 <_vfprintf_r+0xd80>
    57f0:	0663      	lsls	r3, r4, #25
    57f2:	d401      	bmi.n	57f8 <_vfprintf_r+0x254>
    57f4:	f000 fd96 	bl	6324 <_vfprintf_r+0xd80>
    57f8:	9b0f      	ldr	r3, [sp, #60]	; 0x3c
    57fa:	881a      	ldrh	r2, [r3, #0]
    57fc:	920c      	str	r2, [sp, #48]	; 0x30
    57fe:	2200      	movs	r2, #0
    5800:	3304      	adds	r3, #4
    5802:	920d      	str	r2, [sp, #52]	; 0x34
    5804:	930f      	str	r3, [sp, #60]	; 0x3c
    5806:	07e3      	lsls	r3, r4, #31
    5808:	d401      	bmi.n	580e <_vfprintf_r+0x26a>
    580a:	f000 fd76 	bl	62fa <_vfprintf_r+0xd56>
    580e:	990c      	ldr	r1, [sp, #48]	; 0x30
    5810:	9a0d      	ldr	r2, [sp, #52]	; 0x34
    5812:	000b      	movs	r3, r1
    5814:	4313      	orrs	r3, r2
    5816:	001a      	movs	r2, r3
    5818:	2302      	movs	r3, #2
    581a:	2a00      	cmp	r2, #0
    581c:	d008      	beq.n	5830 <_vfprintf_r+0x28c>
    581e:	2030      	movs	r0, #48	; 0x30
    5820:	a91e      	add	r1, sp, #120	; 0x78
    5822:	7008      	strb	r0, [r1, #0]
    5824:	2548      	movs	r5, #72	; 0x48
    5826:	4668      	mov	r0, sp
    5828:	1940      	adds	r0, r0, r5
    582a:	7800      	ldrb	r0, [r0, #0]
    582c:	431c      	orrs	r4, r3
    582e:	7048      	strb	r0, [r1, #1]
    5830:	2100      	movs	r1, #0
    5832:	4688      	mov	r8, r1
    5834:	a816      	add	r0, sp, #88	; 0x58
    5836:	77c1      	strb	r1, [r0, #31]
    5838:	4651      	mov	r1, sl
    583a:	3101      	adds	r1, #1
    583c:	d100      	bne.n	5840 <_vfprintf_r+0x29c>
    583e:	e0e6      	b.n	5a0e <_vfprintf_r+0x46a>
    5840:	2180      	movs	r1, #128	; 0x80
    5842:	0020      	movs	r0, r4
    5844:	4388      	bics	r0, r1
    5846:	9009      	str	r0, [sp, #36]	; 0x24
    5848:	2a00      	cmp	r2, #0
    584a:	d000      	beq.n	584e <_vfprintf_r+0x2aa>
    584c:	e0e3      	b.n	5a16 <_vfprintf_r+0x472>
    584e:	4652      	mov	r2, sl
    5850:	2a00      	cmp	r2, #0
    5852:	d001      	beq.n	5858 <_vfprintf_r+0x2b4>
    5854:	f000 fc38 	bl	60c8 <_vfprintf_r+0xb24>
    5858:	2b00      	cmp	r3, #0
    585a:	d001      	beq.n	5860 <_vfprintf_r+0x2bc>
    585c:	f000 fd0c 	bl	6278 <_vfprintf_r+0xcd4>
    5860:	2001      	movs	r0, #1
    5862:	ab32      	add	r3, sp, #200	; 0xc8
    5864:	4020      	ands	r0, r4
    5866:	900e      	str	r0, [sp, #56]	; 0x38
    5868:	9311      	str	r3, [sp, #68]	; 0x44
    586a:	d008      	beq.n	587e <_vfprintf_r+0x2da>
    586c:	2327      	movs	r3, #39	; 0x27
    586e:	2130      	movs	r1, #48	; 0x30
    5870:	aa28      	add	r2, sp, #160	; 0xa0
    5872:	54d1      	strb	r1, [r2, r3]
    5874:	aa16      	add	r2, sp, #88	; 0x58
    5876:	4694      	mov	ip, r2
    5878:	3348      	adds	r3, #72	; 0x48
    587a:	4463      	add	r3, ip
    587c:	9311      	str	r3, [sp, #68]	; 0x44
    587e:	4653      	mov	r3, sl
    5880:	9a0e      	ldr	r2, [sp, #56]	; 0x38
    5882:	9308      	str	r3, [sp, #32]
    5884:	4592      	cmp	sl, r2
    5886:	da00      	bge.n	588a <_vfprintf_r+0x2e6>
    5888:	9208      	str	r2, [sp, #32]
    588a:	2300      	movs	r3, #0
    588c:	9313      	str	r3, [sp, #76]	; 0x4c
    588e:	4643      	mov	r3, r8
    5890:	2b00      	cmp	r3, #0
    5892:	d002      	beq.n	589a <_vfprintf_r+0x2f6>
    5894:	9b08      	ldr	r3, [sp, #32]
    5896:	3301      	adds	r3, #1
    5898:	9308      	str	r3, [sp, #32]
    589a:	2302      	movs	r3, #2
    589c:	9a09      	ldr	r2, [sp, #36]	; 0x24
    589e:	401a      	ands	r2, r3
    58a0:	4691      	mov	r9, r2
    58a2:	d002      	beq.n	58aa <_vfprintf_r+0x306>
    58a4:	9b08      	ldr	r3, [sp, #32]
    58a6:	3302      	adds	r3, #2
    58a8:	9308      	str	r3, [sp, #32]
    58aa:	2384      	movs	r3, #132	; 0x84
    58ac:	9a09      	ldr	r2, [sp, #36]	; 0x24
    58ae:	401a      	ands	r2, r3
    58b0:	9210      	str	r2, [sp, #64]	; 0x40
    58b2:	d000      	beq.n	58b6 <_vfprintf_r+0x312>
    58b4:	e207      	b.n	5cc6 <_vfprintf_r+0x722>
    58b6:	9b0b      	ldr	r3, [sp, #44]	; 0x2c
    58b8:	9a08      	ldr	r2, [sp, #32]
    58ba:	1a9c      	subs	r4, r3, r2
    58bc:	2c00      	cmp	r4, #0
    58be:	dc00      	bgt.n	58c2 <_vfprintf_r+0x31e>
    58c0:	e201      	b.n	5cc6 <_vfprintf_r+0x722>
    58c2:	491f      	ldr	r1, [pc, #124]	; (5940 <_vfprintf_r+0x39c>)
    58c4:	68ba      	ldr	r2, [r7, #8]
    58c6:	687b      	ldr	r3, [r7, #4]
    58c8:	4688      	mov	r8, r1
    58ca:	2c10      	cmp	r4, #16
    58cc:	dd21      	ble.n	5912 <_vfprintf_r+0x36e>
    58ce:	0031      	movs	r1, r6
    58d0:	2510      	movs	r5, #16
    58d2:	465e      	mov	r6, fp
    58d4:	e003      	b.n	58de <_vfprintf_r+0x33a>
    58d6:	3c10      	subs	r4, #16
    58d8:	3108      	adds	r1, #8
    58da:	2c10      	cmp	r4, #16
    58dc:	dd17      	ble.n	590e <_vfprintf_r+0x36a>
    58de:	4640      	mov	r0, r8
    58e0:	3210      	adds	r2, #16
    58e2:	3301      	adds	r3, #1
    58e4:	6008      	str	r0, [r1, #0]
    58e6:	604d      	str	r5, [r1, #4]
    58e8:	60ba      	str	r2, [r7, #8]
    58ea:	607b      	str	r3, [r7, #4]
    58ec:	2b07      	cmp	r3, #7
    58ee:	ddf2      	ble.n	58d6 <_vfprintf_r+0x332>
    58f0:	003a      	movs	r2, r7
    58f2:	0031      	movs	r1, r6
    58f4:	9806      	ldr	r0, [sp, #24]
    58f6:	f004 f8f9 	bl	9aec <__sprint_r>
    58fa:	2800      	cmp	r0, #0
    58fc:	d001      	beq.n	5902 <_vfprintf_r+0x35e>
    58fe:	f000 fccf 	bl	62a0 <_vfprintf_r+0xcfc>
    5902:	3c10      	subs	r4, #16
    5904:	68ba      	ldr	r2, [r7, #8]
    5906:	687b      	ldr	r3, [r7, #4]
    5908:	a932      	add	r1, sp, #200	; 0xc8
    590a:	2c10      	cmp	r4, #16
    590c:	dce7      	bgt.n	58de <_vfprintf_r+0x33a>
    590e:	46b3      	mov	fp, r6
    5910:	000e      	movs	r6, r1
    5912:	4641      	mov	r1, r8
    5914:	6074      	str	r4, [r6, #4]
    5916:	3301      	adds	r3, #1
    5918:	18a4      	adds	r4, r4, r2
    591a:	6031      	str	r1, [r6, #0]
    591c:	60bc      	str	r4, [r7, #8]
    591e:	607b      	str	r3, [r7, #4]
    5920:	2b07      	cmp	r3, #7
    5922:	dd01      	ble.n	5928 <_vfprintf_r+0x384>
    5924:	f000 fcae 	bl	6284 <_vfprintf_r+0xce0>
    5928:	ab16      	add	r3, sp, #88	; 0x58
    592a:	7fdb      	ldrb	r3, [r3, #31]
    592c:	3608      	adds	r6, #8
    592e:	4698      	mov	r8, r3
    5930:	e1ca      	b.n	5cc8 <_vfprintf_r+0x724>
    5932:	46c0      	nop			; (mov r8, r8)
    5934:	ffffdfff 	.word	0xffffdfff
    5938:	0000a364 	.word	0x0000a364
    593c:	0000a4ec 	.word	0x0000a4ec
    5940:	0000a50c 	.word	0x0000a50c
    5944:	2200      	movs	r2, #0
    5946:	9d07      	ldr	r5, [sp, #28]
    5948:	3b30      	subs	r3, #48	; 0x30
    594a:	46a8      	mov	r8, r5
    594c:	920b      	str	r2, [sp, #44]	; 0x2c
    594e:	001a      	movs	r2, r3
    5950:	9408      	str	r4, [sp, #32]
    5952:	002c      	movs	r4, r5
    5954:	4655      	mov	r5, sl
    5956:	4682      	mov	sl, r0
    5958:	4640      	mov	r0, r8
    595a:	4688      	mov	r8, r1
    595c:	0011      	movs	r1, r2
    595e:	2200      	movs	r2, #0
    5960:	0093      	lsls	r3, r2, #2
    5962:	189a      	adds	r2, r3, r2
    5964:	7803      	ldrb	r3, [r0, #0]
    5966:	0052      	lsls	r2, r2, #1
    5968:	188a      	adds	r2, r1, r2
    596a:	0019      	movs	r1, r3
    596c:	3401      	adds	r4, #1
    596e:	3930      	subs	r1, #48	; 0x30
    5970:	0020      	movs	r0, r4
    5972:	2909      	cmp	r1, #9
    5974:	d9f4      	bls.n	5960 <_vfprintf_r+0x3bc>
    5976:	9407      	str	r4, [sp, #28]
    5978:	4650      	mov	r0, sl
    597a:	9c08      	ldr	r4, [sp, #32]
    597c:	920b      	str	r2, [sp, #44]	; 0x2c
    597e:	4641      	mov	r1, r8
    5980:	46aa      	mov	sl, r5
    5982:	e69b      	b.n	56bc <_vfprintf_r+0x118>
    5984:	9a0f      	ldr	r2, [sp, #60]	; 0x3c
    5986:	9312      	str	r3, [sp, #72]	; 0x48
    5988:	6813      	ldr	r3, [r2, #0]
    598a:	2120      	movs	r1, #32
    598c:	9308      	str	r3, [sp, #32]
    598e:	466b      	mov	r3, sp
    5990:	185b      	adds	r3, r3, r1
    5992:	781b      	ldrb	r3, [r3, #0]
    5994:	ad28      	add	r5, sp, #160	; 0xa0
    5996:	702b      	strb	r3, [r5, #0]
    5998:	2300      	movs	r3, #0
    599a:	a916      	add	r1, sp, #88	; 0x58
    599c:	77cb      	strb	r3, [r1, #31]
    599e:	0013      	movs	r3, r2
    59a0:	3304      	adds	r3, #4
    59a2:	930f      	str	r3, [sp, #60]	; 0x3c
    59a4:	2300      	movs	r3, #0
    59a6:	9409      	str	r4, [sp, #36]	; 0x24
    59a8:	4698      	mov	r8, r3
    59aa:	3301      	adds	r3, #1
    59ac:	9308      	str	r3, [sp, #32]
    59ae:	930e      	str	r3, [sp, #56]	; 0x38
    59b0:	2300      	movs	r3, #0
    59b2:	9511      	str	r5, [sp, #68]	; 0x44
    59b4:	469a      	mov	sl, r3
    59b6:	9313      	str	r3, [sp, #76]	; 0x4c
    59b8:	e76f      	b.n	589a <_vfprintf_r+0x2f6>
    59ba:	9312      	str	r3, [sp, #72]	; 0x48
    59bc:	2900      	cmp	r1, #0
    59be:	d001      	beq.n	59c4 <_vfprintf_r+0x420>
    59c0:	f001 f94d 	bl	6c5e <_vfprintf_r+0x16ba>
    59c4:	9a0f      	ldr	r2, [sp, #60]	; 0x3c
    59c6:	06a3      	lsls	r3, r4, #26
    59c8:	d501      	bpl.n	59ce <_vfprintf_r+0x42a>
    59ca:	f000 fd5a 	bl	6482 <_vfprintf_r+0xede>
    59ce:	06e3      	lsls	r3, r4, #27
    59d0:	d501      	bpl.n	59d6 <_vfprintf_r+0x432>
    59d2:	f000 fcab 	bl	632c <_vfprintf_r+0xd88>
    59d6:	0663      	lsls	r3, r4, #25
    59d8:	d401      	bmi.n	59de <_vfprintf_r+0x43a>
    59da:	f000 fca7 	bl	632c <_vfprintf_r+0xd88>
    59de:	2100      	movs	r1, #0
    59e0:	5e53      	ldrsh	r3, [r2, r1]
    59e2:	930c      	str	r3, [sp, #48]	; 0x30
    59e4:	3204      	adds	r2, #4
    59e6:	17db      	asrs	r3, r3, #31
    59e8:	930d      	str	r3, [sp, #52]	; 0x34
    59ea:	920f      	str	r2, [sp, #60]	; 0x3c
    59ec:	2b00      	cmp	r3, #0
    59ee:	da01      	bge.n	59f4 <_vfprintf_r+0x450>
    59f0:	f000 fdb2 	bl	6558 <_vfprintf_r+0xfb4>
    59f4:	990c      	ldr	r1, [sp, #48]	; 0x30
    59f6:	9a0d      	ldr	r2, [sp, #52]	; 0x34
    59f8:	0008      	movs	r0, r1
    59fa:	4651      	mov	r1, sl
    59fc:	ab16      	add	r3, sp, #88	; 0x58
    59fe:	7fdb      	ldrb	r3, [r3, #31]
    5a00:	4310      	orrs	r0, r2
    5a02:	4698      	mov	r8, r3
    5a04:	0002      	movs	r2, r0
    5a06:	2301      	movs	r3, #1
    5a08:	3101      	adds	r1, #1
    5a0a:	d000      	beq.n	5a0e <_vfprintf_r+0x46a>
    5a0c:	e718      	b.n	5840 <_vfprintf_r+0x29c>
    5a0e:	2a00      	cmp	r2, #0
    5a10:	d100      	bne.n	5a14 <_vfprintf_r+0x470>
    5a12:	e35a      	b.n	60ca <_vfprintf_r+0xb26>
    5a14:	9409      	str	r4, [sp, #36]	; 0x24
    5a16:	2b01      	cmp	r3, #1
    5a18:	d101      	bne.n	5a1e <_vfprintf_r+0x47a>
    5a1a:	f000 fc06 	bl	622a <_vfprintf_r+0xc86>
    5a1e:	2b02      	cmp	r3, #2
    5a20:	d000      	beq.n	5a24 <_vfprintf_r+0x480>
    5a22:	e380      	b.n	6126 <_vfprintf_r+0xb82>
    5a24:	9c19      	ldr	r4, [sp, #100]	; 0x64
    5a26:	200f      	movs	r0, #15
    5a28:	46a1      	mov	r9, r4
    5a2a:	46b4      	mov	ip, r6
    5a2c:	ab32      	add	r3, sp, #200	; 0xc8
    5a2e:	0019      	movs	r1, r3
    5a30:	9a0c      	ldr	r2, [sp, #48]	; 0x30
    5a32:	9b0d      	ldr	r3, [sp, #52]	; 0x34
    5a34:	0004      	movs	r4, r0
    5a36:	464d      	mov	r5, r9
    5a38:	4014      	ands	r4, r2
    5a3a:	5d2c      	ldrb	r4, [r5, r4]
    5a3c:	071e      	lsls	r6, r3, #28
    5a3e:	0915      	lsrs	r5, r2, #4
    5a40:	3901      	subs	r1, #1
    5a42:	432e      	orrs	r6, r5
    5a44:	700c      	strb	r4, [r1, #0]
    5a46:	091c      	lsrs	r4, r3, #4
    5a48:	0023      	movs	r3, r4
    5a4a:	0034      	movs	r4, r6
    5a4c:	0032      	movs	r2, r6
    5a4e:	431c      	orrs	r4, r3
    5a50:	d1f0      	bne.n	5a34 <_vfprintf_r+0x490>
    5a52:	920c      	str	r2, [sp, #48]	; 0x30
    5a54:	930d      	str	r3, [sp, #52]	; 0x34
    5a56:	ab32      	add	r3, sp, #200	; 0xc8
    5a58:	1a5b      	subs	r3, r3, r1
    5a5a:	9111      	str	r1, [sp, #68]	; 0x44
    5a5c:	4666      	mov	r6, ip
    5a5e:	930e      	str	r3, [sp, #56]	; 0x38
    5a60:	e70d      	b.n	587e <_vfprintf_r+0x2da>
    5a62:	4663      	mov	r3, ip
    5a64:	431c      	orrs	r4, r3
    5a66:	9b07      	ldr	r3, [sp, #28]
    5a68:	781b      	ldrb	r3, [r3, #0]
    5a6a:	e624      	b.n	56b6 <_vfprintf_r+0x112>
    5a6c:	9b07      	ldr	r3, [sp, #28]
    5a6e:	781b      	ldrb	r3, [r3, #0]
    5a70:	2b6c      	cmp	r3, #108	; 0x6c
    5a72:	d101      	bne.n	5a78 <_vfprintf_r+0x4d4>
    5a74:	f000 fe8c 	bl	6790 <_vfprintf_r+0x11ec>
    5a78:	2210      	movs	r2, #16
    5a7a:	4314      	orrs	r4, r2
    5a7c:	e61b      	b.n	56b6 <_vfprintf_r+0x112>
    5a7e:	2900      	cmp	r1, #0
    5a80:	d001      	beq.n	5a86 <_vfprintf_r+0x4e2>
    5a82:	f001 f8d5 	bl	6c30 <_vfprintf_r+0x168c>
    5a86:	06a3      	lsls	r3, r4, #26
    5a88:	d501      	bpl.n	5a8e <_vfprintf_r+0x4ea>
    5a8a:	f000 fe76 	bl	677a <_vfprintf_r+0x11d6>
    5a8e:	06e3      	lsls	r3, r4, #27
    5a90:	d500      	bpl.n	5a94 <_vfprintf_r+0x4f0>
    5a92:	e110      	b.n	5cb6 <_vfprintf_r+0x712>
    5a94:	0663      	lsls	r3, r4, #25
    5a96:	d400      	bmi.n	5a9a <_vfprintf_r+0x4f6>
    5a98:	e10d      	b.n	5cb6 <_vfprintf_r+0x712>
    5a9a:	4669      	mov	r1, sp
    5a9c:	9b0f      	ldr	r3, [sp, #60]	; 0x3c
    5a9e:	8d09      	ldrh	r1, [r1, #40]	; 0x28
    5aa0:	681a      	ldr	r2, [r3, #0]
    5aa2:	3304      	adds	r3, #4
    5aa4:	9208      	str	r2, [sp, #32]
    5aa6:	8011      	strh	r1, [r2, #0]
    5aa8:	930f      	str	r3, [sp, #60]	; 0x3c
    5aaa:	e5c9      	b.n	5640 <_vfprintf_r+0x9c>
    5aac:	990f      	ldr	r1, [sp, #60]	; 0x3c
    5aae:	2230      	movs	r2, #48	; 0x30
    5ab0:	680b      	ldr	r3, [r1, #0]
    5ab2:	930c      	str	r3, [sp, #48]	; 0x30
    5ab4:	2300      	movs	r3, #0
    5ab6:	930d      	str	r3, [sp, #52]	; 0x34
    5ab8:	3302      	adds	r3, #2
    5aba:	431c      	orrs	r4, r3
    5abc:	ab1e      	add	r3, sp, #120	; 0x78
    5abe:	701a      	strb	r2, [r3, #0]
    5ac0:	3248      	adds	r2, #72	; 0x48
    5ac2:	705a      	strb	r2, [r3, #1]
    5ac4:	000b      	movs	r3, r1
    5ac6:	3304      	adds	r3, #4
    5ac8:	930f      	str	r3, [sp, #60]	; 0x3c
    5aca:	4bc1      	ldr	r3, [pc, #772]	; (5dd0 <_vfprintf_r+0x82c>)
    5acc:	9212      	str	r2, [sp, #72]	; 0x48
    5ace:	9319      	str	r3, [sp, #100]	; 0x64
    5ad0:	9a0c      	ldr	r2, [sp, #48]	; 0x30
    5ad2:	2302      	movs	r3, #2
    5ad4:	e6ac      	b.n	5830 <_vfprintf_r+0x28c>
    5ad6:	464b      	mov	r3, r9
    5ad8:	431c      	orrs	r4, r3
    5ada:	9b07      	ldr	r3, [sp, #28]
    5adc:	781b      	ldrb	r3, [r3, #0]
    5ade:	e5ea      	b.n	56b6 <_vfprintf_r+0x112>
    5ae0:	9312      	str	r3, [sp, #72]	; 0x48
    5ae2:	9b0f      	ldr	r3, [sp, #60]	; 0x3c
    5ae4:	a916      	add	r1, sp, #88	; 0x58
    5ae6:	1d1d      	adds	r5, r3, #4
    5ae8:	681b      	ldr	r3, [r3, #0]
    5aea:	001a      	movs	r2, r3
    5aec:	9311      	str	r3, [sp, #68]	; 0x44
    5aee:	2300      	movs	r3, #0
    5af0:	77cb      	strb	r3, [r1, #31]
    5af2:	2a00      	cmp	r2, #0
    5af4:	d101      	bne.n	5afa <_vfprintf_r+0x556>
    5af6:	f000 ff01 	bl	68fc <_vfprintf_r+0x1358>
    5afa:	4653      	mov	r3, sl
    5afc:	3301      	adds	r3, #1
    5afe:	d101      	bne.n	5b04 <_vfprintf_r+0x560>
    5b00:	f000 fe64 	bl	67cc <_vfprintf_r+0x1228>
    5b04:	4652      	mov	r2, sl
    5b06:	2100      	movs	r1, #0
    5b08:	9811      	ldr	r0, [sp, #68]	; 0x44
    5b0a:	f003 f965 	bl	8dd8 <memchr>
    5b0e:	2800      	cmp	r0, #0
    5b10:	d101      	bne.n	5b16 <_vfprintf_r+0x572>
    5b12:	f000 ff78 	bl	6a06 <_vfprintf_r+0x1462>
    5b16:	9b11      	ldr	r3, [sp, #68]	; 0x44
    5b18:	1ac3      	subs	r3, r0, r3
    5b1a:	001a      	movs	r2, r3
    5b1c:	930e      	str	r3, [sp, #56]	; 0x38
    5b1e:	43db      	mvns	r3, r3
    5b20:	17db      	asrs	r3, r3, #31
    5b22:	401a      	ands	r2, r3
    5b24:	ab16      	add	r3, sp, #88	; 0x58
    5b26:	7fdb      	ldrb	r3, [r3, #31]
    5b28:	9208      	str	r2, [sp, #32]
    5b2a:	4698      	mov	r8, r3
    5b2c:	2300      	movs	r3, #0
    5b2e:	950f      	str	r5, [sp, #60]	; 0x3c
    5b30:	9409      	str	r4, [sp, #36]	; 0x24
    5b32:	469a      	mov	sl, r3
    5b34:	9313      	str	r3, [sp, #76]	; 0x4c
    5b36:	e6aa      	b.n	588e <_vfprintf_r+0x2ea>
    5b38:	2308      	movs	r3, #8
    5b3a:	431c      	orrs	r4, r3
    5b3c:	9b07      	ldr	r3, [sp, #28]
    5b3e:	781b      	ldrb	r3, [r3, #0]
    5b40:	e5b9      	b.n	56b6 <_vfprintf_r+0x112>
    5b42:	9312      	str	r3, [sp, #72]	; 0x48
    5b44:	2310      	movs	r3, #16
    5b46:	431c      	orrs	r4, r3
    5b48:	06a3      	lsls	r3, r4, #26
    5b4a:	d501      	bpl.n	5b50 <_vfprintf_r+0x5ac>
    5b4c:	f000 fca7 	bl	649e <_vfprintf_r+0xefa>
    5b50:	06e3      	lsls	r3, r4, #27
    5b52:	d500      	bpl.n	5b56 <_vfprintf_r+0x5b2>
    5b54:	e3ee      	b.n	6334 <_vfprintf_r+0xd90>
    5b56:	0663      	lsls	r3, r4, #25
    5b58:	d400      	bmi.n	5b5c <_vfprintf_r+0x5b8>
    5b5a:	e3eb      	b.n	6334 <_vfprintf_r+0xd90>
    5b5c:	9b0f      	ldr	r3, [sp, #60]	; 0x3c
    5b5e:	881a      	ldrh	r2, [r3, #0]
    5b60:	920c      	str	r2, [sp, #48]	; 0x30
    5b62:	2200      	movs	r2, #0
    5b64:	3304      	adds	r3, #4
    5b66:	920d      	str	r2, [sp, #52]	; 0x34
    5b68:	930f      	str	r3, [sp, #60]	; 0x3c
    5b6a:	9a0c      	ldr	r2, [sp, #48]	; 0x30
    5b6c:	2300      	movs	r3, #0
    5b6e:	e65f      	b.n	5830 <_vfprintf_r+0x28c>
    5b70:	9312      	str	r3, [sp, #72]	; 0x48
    5b72:	2310      	movs	r3, #16
    5b74:	431c      	orrs	r4, r3
    5b76:	06a3      	lsls	r3, r4, #26
    5b78:	d501      	bpl.n	5b7e <_vfprintf_r+0x5da>
    5b7a:	f000 fcba 	bl	64f2 <_vfprintf_r+0xf4e>
    5b7e:	06e3      	lsls	r3, r4, #27
    5b80:	d500      	bpl.n	5b84 <_vfprintf_r+0x5e0>
    5b82:	e3da      	b.n	633a <_vfprintf_r+0xd96>
    5b84:	0663      	lsls	r3, r4, #25
    5b86:	d400      	bmi.n	5b8a <_vfprintf_r+0x5e6>
    5b88:	e3d7      	b.n	633a <_vfprintf_r+0xd96>
    5b8a:	9b0f      	ldr	r3, [sp, #60]	; 0x3c
    5b8c:	881a      	ldrh	r2, [r3, #0]
    5b8e:	920c      	str	r2, [sp, #48]	; 0x30
    5b90:	2200      	movs	r2, #0
    5b92:	3304      	adds	r3, #4
    5b94:	920d      	str	r2, [sp, #52]	; 0x34
    5b96:	930f      	str	r3, [sp, #60]	; 0x3c
    5b98:	9a0c      	ldr	r2, [sp, #48]	; 0x30
    5b9a:	2301      	movs	r3, #1
    5b9c:	e648      	b.n	5830 <_vfprintf_r+0x28c>
    5b9e:	9312      	str	r3, [sp, #72]	; 0x48
    5ba0:	2900      	cmp	r1, #0
    5ba2:	d001      	beq.n	5ba8 <_vfprintf_r+0x604>
    5ba4:	f001 f857 	bl	6c56 <_vfprintf_r+0x16b2>
    5ba8:	4b8a      	ldr	r3, [pc, #552]	; (5dd4 <_vfprintf_r+0x830>)
    5baa:	9319      	str	r3, [sp, #100]	; 0x64
    5bac:	e618      	b.n	57e0 <_vfprintf_r+0x23c>
    5bae:	2301      	movs	r3, #1
    5bb0:	431c      	orrs	r4, r3
    5bb2:	9b07      	ldr	r3, [sp, #28]
    5bb4:	781b      	ldrb	r3, [r3, #0]
    5bb6:	e57e      	b.n	56b6 <_vfprintf_r+0x112>
    5bb8:	2380      	movs	r3, #128	; 0x80
    5bba:	431c      	orrs	r4, r3
    5bbc:	9b07      	ldr	r3, [sp, #28]
    5bbe:	781b      	ldrb	r3, [r3, #0]
    5bc0:	e579      	b.n	56b6 <_vfprintf_r+0x112>
    5bc2:	9b07      	ldr	r3, [sp, #28]
    5bc4:	781b      	ldrb	r3, [r3, #0]
    5bc6:	2800      	cmp	r0, #0
    5bc8:	d000      	beq.n	5bcc <_vfprintf_r+0x628>
    5bca:	e574      	b.n	56b6 <_vfprintf_r+0x112>
    5bcc:	2101      	movs	r1, #1
    5bce:	3020      	adds	r0, #32
    5bd0:	e571      	b.n	56b6 <_vfprintf_r+0x112>
    5bd2:	9312      	str	r3, [sp, #72]	; 0x48
    5bd4:	2900      	cmp	r1, #0
    5bd6:	d001      	beq.n	5bdc <_vfprintf_r+0x638>
    5bd8:	f001 f839 	bl	6c4e <_vfprintf_r+0x16aa>
    5bdc:	2207      	movs	r2, #7
    5bde:	9b0f      	ldr	r3, [sp, #60]	; 0x3c
    5be0:	3307      	adds	r3, #7
    5be2:	4393      	bics	r3, r2
    5be4:	3201      	adds	r2, #1
    5be6:	4694      	mov	ip, r2
    5be8:	449c      	add	ip, r3
    5bea:	4662      	mov	r2, ip
    5bec:	920f      	str	r2, [sp, #60]	; 0x3c
    5bee:	681a      	ldr	r2, [r3, #0]
    5bf0:	9216      	str	r2, [sp, #88]	; 0x58
    5bf2:	685b      	ldr	r3, [r3, #4]
    5bf4:	2201      	movs	r2, #1
    5bf6:	9315      	str	r3, [sp, #84]	; 0x54
    5bf8:	9b15      	ldr	r3, [sp, #84]	; 0x54
    5bfa:	9d16      	ldr	r5, [sp, #88]	; 0x58
    5bfc:	005b      	lsls	r3, r3, #1
    5bfe:	085b      	lsrs	r3, r3, #1
    5c00:	4698      	mov	r8, r3
    5c02:	4252      	negs	r2, r2
    5c04:	4b74      	ldr	r3, [pc, #464]	; (5dd8 <_vfprintf_r+0x834>)
    5c06:	0028      	movs	r0, r5
    5c08:	4641      	mov	r1, r8
    5c0a:	f7ff f90b 	bl	4e24 <__aeabi_dcmpun>
    5c0e:	2800      	cmp	r0, #0
    5c10:	d001      	beq.n	5c16 <_vfprintf_r+0x672>
    5c12:	f000 fcb4 	bl	657e <_vfprintf_r+0xfda>
    5c16:	2201      	movs	r2, #1
    5c18:	4b6f      	ldr	r3, [pc, #444]	; (5dd8 <_vfprintf_r+0x834>)
    5c1a:	4252      	negs	r2, r2
    5c1c:	0028      	movs	r0, r5
    5c1e:	4641      	mov	r1, r8
    5c20:	f7fd f85c 	bl	2cdc <__aeabi_dcmple>
    5c24:	2800      	cmp	r0, #0
    5c26:	d001      	beq.n	5c2c <_vfprintf_r+0x688>
    5c28:	f000 fca9 	bl	657e <_vfprintf_r+0xfda>
    5c2c:	2200      	movs	r2, #0
    5c2e:	2300      	movs	r3, #0
    5c30:	9816      	ldr	r0, [sp, #88]	; 0x58
    5c32:	9915      	ldr	r1, [sp, #84]	; 0x54
    5c34:	f7fd f848 	bl	2cc8 <__aeabi_dcmplt>
    5c38:	2800      	cmp	r0, #0
    5c3a:	d001      	beq.n	5c40 <_vfprintf_r+0x69c>
    5c3c:	f000 fd55 	bl	66ea <_vfprintf_r+0x1146>
    5c40:	ab16      	add	r3, sp, #88	; 0x58
    5c42:	7fdb      	ldrb	r3, [r3, #31]
    5c44:	4698      	mov	r8, r3
    5c46:	9b12      	ldr	r3, [sp, #72]	; 0x48
    5c48:	2b47      	cmp	r3, #71	; 0x47
    5c4a:	dd01      	ble.n	5c50 <_vfprintf_r+0x6ac>
    5c4c:	f000 fdb4 	bl	67b8 <_vfprintf_r+0x1214>
    5c50:	4b62      	ldr	r3, [pc, #392]	; (5ddc <_vfprintf_r+0x838>)
    5c52:	9311      	str	r3, [sp, #68]	; 0x44
    5c54:	2380      	movs	r3, #128	; 0x80
    5c56:	439c      	bics	r4, r3
    5c58:	3b7d      	subs	r3, #125	; 0x7d
    5c5a:	9308      	str	r3, [sp, #32]
    5c5c:	930e      	str	r3, [sp, #56]	; 0x38
    5c5e:	2300      	movs	r3, #0
    5c60:	9409      	str	r4, [sp, #36]	; 0x24
    5c62:	469a      	mov	sl, r3
    5c64:	9313      	str	r3, [sp, #76]	; 0x4c
    5c66:	e612      	b.n	588e <_vfprintf_r+0x2ea>
    5c68:	9b0f      	ldr	r3, [sp, #60]	; 0x3c
    5c6a:	1d1a      	adds	r2, r3, #4
    5c6c:	681b      	ldr	r3, [r3, #0]
    5c6e:	930b      	str	r3, [sp, #44]	; 0x2c
    5c70:	2b00      	cmp	r3, #0
    5c72:	da00      	bge.n	5c76 <_vfprintf_r+0x6d2>
    5c74:	e578      	b.n	5768 <_vfprintf_r+0x1c4>
    5c76:	9b07      	ldr	r3, [sp, #28]
    5c78:	920f      	str	r2, [sp, #60]	; 0x3c
    5c7a:	781b      	ldrb	r3, [r3, #0]
    5c7c:	e51b      	b.n	56b6 <_vfprintf_r+0x112>
    5c7e:	9312      	str	r3, [sp, #72]	; 0x48
    5c80:	2900      	cmp	r1, #0
    5c82:	d001      	beq.n	5c88 <_vfprintf_r+0x6e4>
    5c84:	f000 ffcc 	bl	6c20 <_vfprintf_r+0x167c>
    5c88:	2310      	movs	r3, #16
    5c8a:	431c      	orrs	r4, r3
    5c8c:	e69a      	b.n	59c4 <_vfprintf_r+0x420>
    5c8e:	9312      	str	r3, [sp, #72]	; 0x48
    5c90:	e771      	b.n	5b76 <_vfprintf_r+0x5d2>
    5c92:	9312      	str	r3, [sp, #72]	; 0x48
    5c94:	e758      	b.n	5b48 <_vfprintf_r+0x5a4>
    5c96:	9312      	str	r3, [sp, #72]	; 0x48
    5c98:	2900      	cmp	r1, #0
    5c9a:	d001      	beq.n	5ca0 <_vfprintf_r+0x6fc>
    5c9c:	f000 ffd3 	bl	6c46 <_vfprintf_r+0x16a2>
    5ca0:	9b12      	ldr	r3, [sp, #72]	; 0x48
    5ca2:	2b00      	cmp	r3, #0
    5ca4:	d100      	bne.n	5ca8 <_vfprintf_r+0x704>
    5ca6:	e18d      	b.n	5fc4 <_vfprintf_r+0xa20>
    5ca8:	ad28      	add	r5, sp, #160	; 0xa0
    5caa:	702b      	strb	r3, [r5, #0]
    5cac:	2300      	movs	r3, #0
    5cae:	aa16      	add	r2, sp, #88	; 0x58
    5cb0:	77d3      	strb	r3, [r2, #31]
    5cb2:	9409      	str	r4, [sp, #36]	; 0x24
    5cb4:	e678      	b.n	59a8 <_vfprintf_r+0x404>
    5cb6:	9a0f      	ldr	r2, [sp, #60]	; 0x3c
    5cb8:	990a      	ldr	r1, [sp, #40]	; 0x28
    5cba:	6813      	ldr	r3, [r2, #0]
    5cbc:	6019      	str	r1, [r3, #0]
    5cbe:	0013      	movs	r3, r2
    5cc0:	3304      	adds	r3, #4
    5cc2:	930f      	str	r3, [sp, #60]	; 0x3c
    5cc4:	e4bc      	b.n	5640 <_vfprintf_r+0x9c>
    5cc6:	68bc      	ldr	r4, [r7, #8]
    5cc8:	4643      	mov	r3, r8
    5cca:	2b00      	cmp	r3, #0
    5ccc:	d00f      	beq.n	5cee <_vfprintf_r+0x74a>
    5cce:	aa16      	add	r2, sp, #88	; 0x58
    5cd0:	231f      	movs	r3, #31
    5cd2:	4694      	mov	ip, r2
    5cd4:	4463      	add	r3, ip
    5cd6:	6033      	str	r3, [r6, #0]
    5cd8:	2301      	movs	r3, #1
    5cda:	6073      	str	r3, [r6, #4]
    5cdc:	687b      	ldr	r3, [r7, #4]
    5cde:	3401      	adds	r4, #1
    5ce0:	3301      	adds	r3, #1
    5ce2:	60bc      	str	r4, [r7, #8]
    5ce4:	607b      	str	r3, [r7, #4]
    5ce6:	2b07      	cmp	r3, #7
    5ce8:	dd00      	ble.n	5cec <_vfprintf_r+0x748>
    5cea:	e203      	b.n	60f4 <_vfprintf_r+0xb50>
    5cec:	3608      	adds	r6, #8
    5cee:	464b      	mov	r3, r9
    5cf0:	2b00      	cmp	r3, #0
    5cf2:	d00c      	beq.n	5d0e <_vfprintf_r+0x76a>
    5cf4:	ab1e      	add	r3, sp, #120	; 0x78
    5cf6:	6033      	str	r3, [r6, #0]
    5cf8:	2302      	movs	r3, #2
    5cfa:	6073      	str	r3, [r6, #4]
    5cfc:	687b      	ldr	r3, [r7, #4]
    5cfe:	3402      	adds	r4, #2
    5d00:	3301      	adds	r3, #1
    5d02:	60bc      	str	r4, [r7, #8]
    5d04:	607b      	str	r3, [r7, #4]
    5d06:	2b07      	cmp	r3, #7
    5d08:	dd00      	ble.n	5d0c <_vfprintf_r+0x768>
    5d0a:	e1fd      	b.n	6108 <_vfprintf_r+0xb64>
    5d0c:	3608      	adds	r6, #8
    5d0e:	9b10      	ldr	r3, [sp, #64]	; 0x40
    5d10:	2b80      	cmp	r3, #128	; 0x80
    5d12:	d100      	bne.n	5d16 <_vfprintf_r+0x772>
    5d14:	e173      	b.n	5ffe <_vfprintf_r+0xa5a>
    5d16:	4653      	mov	r3, sl
    5d18:	9a0e      	ldr	r2, [sp, #56]	; 0x38
    5d1a:	1a9d      	subs	r5, r3, r2
    5d1c:	2d00      	cmp	r5, #0
    5d1e:	dd32      	ble.n	5d86 <_vfprintf_r+0x7e2>
    5d20:	4a2f      	ldr	r2, [pc, #188]	; (5de0 <_vfprintf_r+0x83c>)
    5d22:	687b      	ldr	r3, [r7, #4]
    5d24:	4691      	mov	r9, r2
    5d26:	2d10      	cmp	r5, #16
    5d28:	dd22      	ble.n	5d70 <_vfprintf_r+0x7cc>
    5d2a:	2210      	movs	r2, #16
    5d2c:	4692      	mov	sl, r2
    5d2e:	0022      	movs	r2, r4
    5d30:	465c      	mov	r4, fp
    5d32:	e003      	b.n	5d3c <_vfprintf_r+0x798>
    5d34:	3d10      	subs	r5, #16
    5d36:	3608      	adds	r6, #8
    5d38:	2d10      	cmp	r5, #16
    5d3a:	dd17      	ble.n	5d6c <_vfprintf_r+0x7c8>
    5d3c:	4649      	mov	r1, r9
    5d3e:	6031      	str	r1, [r6, #0]
    5d40:	4651      	mov	r1, sl
    5d42:	3210      	adds	r2, #16
    5d44:	3301      	adds	r3, #1
    5d46:	6071      	str	r1, [r6, #4]
    5d48:	60ba      	str	r2, [r7, #8]
    5d4a:	607b      	str	r3, [r7, #4]
    5d4c:	2b07      	cmp	r3, #7
    5d4e:	ddf1      	ble.n	5d34 <_vfprintf_r+0x790>
    5d50:	003a      	movs	r2, r7
    5d52:	0021      	movs	r1, r4
    5d54:	9806      	ldr	r0, [sp, #24]
    5d56:	f003 fec9 	bl	9aec <__sprint_r>
    5d5a:	2800      	cmp	r0, #0
    5d5c:	d000      	beq.n	5d60 <_vfprintf_r+0x7bc>
    5d5e:	e18a      	b.n	6076 <_vfprintf_r+0xad2>
    5d60:	3d10      	subs	r5, #16
    5d62:	68ba      	ldr	r2, [r7, #8]
    5d64:	687b      	ldr	r3, [r7, #4]
    5d66:	ae32      	add	r6, sp, #200	; 0xc8
    5d68:	2d10      	cmp	r5, #16
    5d6a:	dce7      	bgt.n	5d3c <_vfprintf_r+0x798>
    5d6c:	46a3      	mov	fp, r4
    5d6e:	0014      	movs	r4, r2
    5d70:	464a      	mov	r2, r9
    5d72:	1964      	adds	r4, r4, r5
    5d74:	3301      	adds	r3, #1
    5d76:	6032      	str	r2, [r6, #0]
    5d78:	6075      	str	r5, [r6, #4]
    5d7a:	60bc      	str	r4, [r7, #8]
    5d7c:	607b      	str	r3, [r7, #4]
    5d7e:	2b07      	cmp	r3, #7
    5d80:	dd00      	ble.n	5d84 <_vfprintf_r+0x7e0>
    5d82:	e1ad      	b.n	60e0 <_vfprintf_r+0xb3c>
    5d84:	3608      	adds	r6, #8
    5d86:	9b09      	ldr	r3, [sp, #36]	; 0x24
    5d88:	05db      	lsls	r3, r3, #23
    5d8a:	d500      	bpl.n	5d8e <_vfprintf_r+0x7ea>
    5d8c:	e0be      	b.n	5f0c <_vfprintf_r+0x968>
    5d8e:	9b11      	ldr	r3, [sp, #68]	; 0x44
    5d90:	6033      	str	r3, [r6, #0]
    5d92:	9b0e      	ldr	r3, [sp, #56]	; 0x38
    5d94:	469c      	mov	ip, r3
    5d96:	6073      	str	r3, [r6, #4]
    5d98:	687b      	ldr	r3, [r7, #4]
    5d9a:	4464      	add	r4, ip
    5d9c:	3301      	adds	r3, #1
    5d9e:	60bc      	str	r4, [r7, #8]
    5da0:	607b      	str	r3, [r7, #4]
    5da2:	2b07      	cmp	r3, #7
    5da4:	dd00      	ble.n	5da8 <_vfprintf_r+0x804>
    5da6:	e0a6      	b.n	5ef6 <_vfprintf_r+0x952>
    5da8:	3608      	adds	r6, #8
    5daa:	9b09      	ldr	r3, [sp, #36]	; 0x24
    5dac:	075b      	lsls	r3, r3, #29
    5dae:	d54a      	bpl.n	5e46 <_vfprintf_r+0x8a2>
    5db0:	9b0b      	ldr	r3, [sp, #44]	; 0x2c
    5db2:	9a08      	ldr	r2, [sp, #32]
    5db4:	1a9d      	subs	r5, r3, r2
    5db6:	2d00      	cmp	r5, #0
    5db8:	dd45      	ble.n	5e46 <_vfprintf_r+0x8a2>
    5dba:	4a0a      	ldr	r2, [pc, #40]	; (5de4 <_vfprintf_r+0x840>)
    5dbc:	687b      	ldr	r3, [r7, #4]
    5dbe:	4690      	mov	r8, r2
    5dc0:	2d10      	cmp	r5, #16
    5dc2:	dd2f      	ble.n	5e24 <_vfprintf_r+0x880>
    5dc4:	2210      	movs	r2, #16
    5dc6:	4691      	mov	r9, r2
    5dc8:	0022      	movs	r2, r4
    5dca:	465c      	mov	r4, fp
    5dcc:	e010      	b.n	5df0 <_vfprintf_r+0x84c>
    5dce:	46c0      	nop			; (mov r8, r8)
    5dd0:	0000a4ec 	.word	0x0000a4ec
    5dd4:	0000a4d8 	.word	0x0000a4d8
    5dd8:	7fefffff 	.word	0x7fefffff
    5ddc:	0000a4c8 	.word	0x0000a4c8
    5de0:	0000a51c 	.word	0x0000a51c
    5de4:	0000a50c 	.word	0x0000a50c
    5de8:	3d10      	subs	r5, #16
    5dea:	3608      	adds	r6, #8
    5dec:	2d10      	cmp	r5, #16
    5dee:	dd17      	ble.n	5e20 <_vfprintf_r+0x87c>
    5df0:	49d1      	ldr	r1, [pc, #836]	; (6138 <_vfprintf_r+0xb94>)
    5df2:	3210      	adds	r2, #16
    5df4:	6031      	str	r1, [r6, #0]
    5df6:	4649      	mov	r1, r9
    5df8:	3301      	adds	r3, #1
    5dfa:	6071      	str	r1, [r6, #4]
    5dfc:	60ba      	str	r2, [r7, #8]
    5dfe:	607b      	str	r3, [r7, #4]
    5e00:	2b07      	cmp	r3, #7
    5e02:	ddf1      	ble.n	5de8 <_vfprintf_r+0x844>
    5e04:	003a      	movs	r2, r7
    5e06:	0021      	movs	r1, r4
    5e08:	9806      	ldr	r0, [sp, #24]
    5e0a:	f003 fe6f 	bl	9aec <__sprint_r>
    5e0e:	2800      	cmp	r0, #0
    5e10:	d000      	beq.n	5e14 <_vfprintf_r+0x870>
    5e12:	e130      	b.n	6076 <_vfprintf_r+0xad2>
    5e14:	3d10      	subs	r5, #16
    5e16:	68ba      	ldr	r2, [r7, #8]
    5e18:	687b      	ldr	r3, [r7, #4]
    5e1a:	ae32      	add	r6, sp, #200	; 0xc8
    5e1c:	2d10      	cmp	r5, #16
    5e1e:	dce7      	bgt.n	5df0 <_vfprintf_r+0x84c>
    5e20:	46a3      	mov	fp, r4
    5e22:	0014      	movs	r4, r2
    5e24:	4642      	mov	r2, r8
    5e26:	1964      	adds	r4, r4, r5
    5e28:	3301      	adds	r3, #1
    5e2a:	c624      	stmia	r6!, {r2, r5}
    5e2c:	60bc      	str	r4, [r7, #8]
    5e2e:	607b      	str	r3, [r7, #4]
    5e30:	2b07      	cmp	r3, #7
    5e32:	dd08      	ble.n	5e46 <_vfprintf_r+0x8a2>
    5e34:	003a      	movs	r2, r7
    5e36:	4659      	mov	r1, fp
    5e38:	9806      	ldr	r0, [sp, #24]
    5e3a:	f003 fe57 	bl	9aec <__sprint_r>
    5e3e:	2800      	cmp	r0, #0
    5e40:	d000      	beq.n	5e44 <_vfprintf_r+0x8a0>
    5e42:	e13f      	b.n	60c4 <_vfprintf_r+0xb20>
    5e44:	68bc      	ldr	r4, [r7, #8]
    5e46:	9b0b      	ldr	r3, [sp, #44]	; 0x2c
    5e48:	9908      	ldr	r1, [sp, #32]
    5e4a:	428b      	cmp	r3, r1
    5e4c:	da00      	bge.n	5e50 <_vfprintf_r+0x8ac>
    5e4e:	000b      	movs	r3, r1
    5e50:	9a0a      	ldr	r2, [sp, #40]	; 0x28
    5e52:	4694      	mov	ip, r2
    5e54:	449c      	add	ip, r3
    5e56:	4663      	mov	r3, ip
    5e58:	930a      	str	r3, [sp, #40]	; 0x28
    5e5a:	2c00      	cmp	r4, #0
    5e5c:	d000      	beq.n	5e60 <_vfprintf_r+0x8bc>
    5e5e:	e129      	b.n	60b4 <_vfprintf_r+0xb10>
    5e60:	2300      	movs	r3, #0
    5e62:	ae32      	add	r6, sp, #200	; 0xc8
    5e64:	607b      	str	r3, [r7, #4]
    5e66:	f7ff fbeb 	bl	5640 <_vfprintf_r+0x9c>
    5e6a:	9b14      	ldr	r3, [sp, #80]	; 0x50
    5e6c:	2b01      	cmp	r3, #1
    5e6e:	dc00      	bgt.n	5e72 <_vfprintf_r+0x8ce>
    5e70:	e103      	b.n	607a <_vfprintf_r+0xad6>
    5e72:	9b11      	ldr	r3, [sp, #68]	; 0x44
    5e74:	3401      	adds	r4, #1
    5e76:	6033      	str	r3, [r6, #0]
    5e78:	2301      	movs	r3, #1
    5e7a:	6073      	str	r3, [r6, #4]
    5e7c:	687b      	ldr	r3, [r7, #4]
    5e7e:	60bc      	str	r4, [r7, #8]
    5e80:	3301      	adds	r3, #1
    5e82:	607b      	str	r3, [r7, #4]
    5e84:	2b07      	cmp	r3, #7
    5e86:	dd00      	ble.n	5e8a <_vfprintf_r+0x8e6>
    5e88:	e2ef      	b.n	646a <_vfprintf_r+0xec6>
    5e8a:	3608      	adds	r6, #8
    5e8c:	9a18      	ldr	r2, [sp, #96]	; 0x60
    5e8e:	3301      	adds	r3, #1
    5e90:	6032      	str	r2, [r6, #0]
    5e92:	9a17      	ldr	r2, [sp, #92]	; 0x5c
    5e94:	4698      	mov	r8, r3
    5e96:	4694      	mov	ip, r2
    5e98:	4464      	add	r4, ip
    5e9a:	6072      	str	r2, [r6, #4]
    5e9c:	60bc      	str	r4, [r7, #8]
    5e9e:	607b      	str	r3, [r7, #4]
    5ea0:	2b07      	cmp	r3, #7
    5ea2:	dd00      	ble.n	5ea6 <_vfprintf_r+0x902>
    5ea4:	e318      	b.n	64d8 <_vfprintf_r+0xf34>
    5ea6:	3608      	adds	r6, #8
    5ea8:	2200      	movs	r2, #0
    5eaa:	2300      	movs	r3, #0
    5eac:	9816      	ldr	r0, [sp, #88]	; 0x58
    5eae:	9915      	ldr	r1, [sp, #84]	; 0x54
    5eb0:	f7fc ff04 	bl	2cbc <__aeabi_dcmpeq>
    5eb4:	2800      	cmp	r0, #0
    5eb6:	d000      	beq.n	5eba <_vfprintf_r+0x916>
    5eb8:	e1f4      	b.n	62a4 <_vfprintf_r+0xd00>
    5eba:	9d11      	ldr	r5, [sp, #68]	; 0x44
    5ebc:	9b14      	ldr	r3, [sp, #80]	; 0x50
    5ebe:	3501      	adds	r5, #1
    5ec0:	3b01      	subs	r3, #1
    5ec2:	6035      	str	r5, [r6, #0]
    5ec4:	6073      	str	r3, [r6, #4]
    5ec6:	18e4      	adds	r4, r4, r3
    5ec8:	2301      	movs	r3, #1
    5eca:	469c      	mov	ip, r3
    5ecc:	44e0      	add	r8, ip
    5ece:	4643      	mov	r3, r8
    5ed0:	60bc      	str	r4, [r7, #8]
    5ed2:	607b      	str	r3, [r7, #4]
    5ed4:	2b07      	cmp	r3, #7
    5ed6:	dd00      	ble.n	5eda <_vfprintf_r+0x936>
    5ed8:	e0e0      	b.n	609c <_vfprintf_r+0xaf8>
    5eda:	3608      	adds	r6, #8
    5edc:	ab21      	add	r3, sp, #132	; 0x84
    5ede:	6033      	str	r3, [r6, #0]
    5ee0:	9b1a      	ldr	r3, [sp, #104]	; 0x68
    5ee2:	469c      	mov	ip, r3
    5ee4:	6073      	str	r3, [r6, #4]
    5ee6:	4643      	mov	r3, r8
    5ee8:	4464      	add	r4, ip
    5eea:	3301      	adds	r3, #1
    5eec:	60bc      	str	r4, [r7, #8]
    5eee:	607b      	str	r3, [r7, #4]
    5ef0:	2b07      	cmp	r3, #7
    5ef2:	dc00      	bgt.n	5ef6 <_vfprintf_r+0x952>
    5ef4:	e758      	b.n	5da8 <_vfprintf_r+0x804>
    5ef6:	003a      	movs	r2, r7
    5ef8:	4659      	mov	r1, fp
    5efa:	9806      	ldr	r0, [sp, #24]
    5efc:	f003 fdf6 	bl	9aec <__sprint_r>
    5f00:	2800      	cmp	r0, #0
    5f02:	d000      	beq.n	5f06 <_vfprintf_r+0x962>
    5f04:	e0de      	b.n	60c4 <_vfprintf_r+0xb20>
    5f06:	68bc      	ldr	r4, [r7, #8]
    5f08:	ae32      	add	r6, sp, #200	; 0xc8
    5f0a:	e74e      	b.n	5daa <_vfprintf_r+0x806>
    5f0c:	9b12      	ldr	r3, [sp, #72]	; 0x48
    5f0e:	2b65      	cmp	r3, #101	; 0x65
    5f10:	ddab      	ble.n	5e6a <_vfprintf_r+0x8c6>
    5f12:	2200      	movs	r2, #0
    5f14:	2300      	movs	r3, #0
    5f16:	9816      	ldr	r0, [sp, #88]	; 0x58
    5f18:	9915      	ldr	r1, [sp, #84]	; 0x54
    5f1a:	f7fc fecf 	bl	2cbc <__aeabi_dcmpeq>
    5f1e:	2800      	cmp	r0, #0
    5f20:	d100      	bne.n	5f24 <_vfprintf_r+0x980>
    5f22:	e134      	b.n	618e <_vfprintf_r+0xbea>
    5f24:	4b85      	ldr	r3, [pc, #532]	; (613c <_vfprintf_r+0xb98>)
    5f26:	3401      	adds	r4, #1
    5f28:	6033      	str	r3, [r6, #0]
    5f2a:	2301      	movs	r3, #1
    5f2c:	6073      	str	r3, [r6, #4]
    5f2e:	687b      	ldr	r3, [r7, #4]
    5f30:	60bc      	str	r4, [r7, #8]
    5f32:	3301      	adds	r3, #1
    5f34:	607b      	str	r3, [r7, #4]
    5f36:	2b07      	cmp	r3, #7
    5f38:	dd00      	ble.n	5f3c <_vfprintf_r+0x998>
    5f3a:	e3dc      	b.n	66f6 <_vfprintf_r+0x1152>
    5f3c:	3608      	adds	r6, #8
    5f3e:	9b1f      	ldr	r3, [sp, #124]	; 0x7c
    5f40:	9a14      	ldr	r2, [sp, #80]	; 0x50
    5f42:	4293      	cmp	r3, r2
    5f44:	db03      	blt.n	5f4e <_vfprintf_r+0x9aa>
    5f46:	9b09      	ldr	r3, [sp, #36]	; 0x24
    5f48:	07db      	lsls	r3, r3, #31
    5f4a:	d400      	bmi.n	5f4e <_vfprintf_r+0x9aa>
    5f4c:	e3b7      	b.n	66be <_vfprintf_r+0x111a>
    5f4e:	9b18      	ldr	r3, [sp, #96]	; 0x60
    5f50:	68ba      	ldr	r2, [r7, #8]
    5f52:	6033      	str	r3, [r6, #0]
    5f54:	9b17      	ldr	r3, [sp, #92]	; 0x5c
    5f56:	469c      	mov	ip, r3
    5f58:	6073      	str	r3, [r6, #4]
    5f5a:	687b      	ldr	r3, [r7, #4]
    5f5c:	4462      	add	r2, ip
    5f5e:	3301      	adds	r3, #1
    5f60:	0014      	movs	r4, r2
    5f62:	60ba      	str	r2, [r7, #8]
    5f64:	607b      	str	r3, [r7, #4]
    5f66:	2b07      	cmp	r3, #7
    5f68:	dd01      	ble.n	5f6e <_vfprintf_r+0x9ca>
    5f6a:	f000 fc19 	bl	67a0 <_vfprintf_r+0x11fc>
    5f6e:	3608      	adds	r6, #8
    5f70:	9b14      	ldr	r3, [sp, #80]	; 0x50
    5f72:	1e5d      	subs	r5, r3, #1
    5f74:	2d00      	cmp	r5, #0
    5f76:	dc00      	bgt.n	5f7a <_vfprintf_r+0x9d6>
    5f78:	e717      	b.n	5daa <_vfprintf_r+0x806>
    5f7a:	4a71      	ldr	r2, [pc, #452]	; (6140 <_vfprintf_r+0xb9c>)
    5f7c:	687b      	ldr	r3, [r7, #4]
    5f7e:	4691      	mov	r9, r2
    5f80:	2d10      	cmp	r5, #16
    5f82:	dc00      	bgt.n	5f86 <_vfprintf_r+0x9e2>
    5f84:	e1c3      	b.n	630e <_vfprintf_r+0xd6a>
    5f86:	2210      	movs	r2, #16
    5f88:	4690      	mov	r8, r2
    5f8a:	0022      	movs	r2, r4
    5f8c:	464c      	mov	r4, r9
    5f8e:	46d9      	mov	r9, fp
    5f90:	e004      	b.n	5f9c <_vfprintf_r+0x9f8>
    5f92:	3608      	adds	r6, #8
    5f94:	3d10      	subs	r5, #16
    5f96:	2d10      	cmp	r5, #16
    5f98:	dc00      	bgt.n	5f9c <_vfprintf_r+0x9f8>
    5f9a:	e37c      	b.n	6696 <_vfprintf_r+0x10f2>
    5f9c:	4641      	mov	r1, r8
    5f9e:	3210      	adds	r2, #16
    5fa0:	3301      	adds	r3, #1
    5fa2:	6034      	str	r4, [r6, #0]
    5fa4:	6071      	str	r1, [r6, #4]
    5fa6:	60ba      	str	r2, [r7, #8]
    5fa8:	607b      	str	r3, [r7, #4]
    5faa:	2b07      	cmp	r3, #7
    5fac:	ddf1      	ble.n	5f92 <_vfprintf_r+0x9ee>
    5fae:	003a      	movs	r2, r7
    5fb0:	4649      	mov	r1, r9
    5fb2:	9806      	ldr	r0, [sp, #24]
    5fb4:	f003 fd9a 	bl	9aec <__sprint_r>
    5fb8:	2800      	cmp	r0, #0
    5fba:	d10b      	bne.n	5fd4 <_vfprintf_r+0xa30>
    5fbc:	68ba      	ldr	r2, [r7, #8]
    5fbe:	687b      	ldr	r3, [r7, #4]
    5fc0:	ae32      	add	r6, sp, #200	; 0xc8
    5fc2:	e7e7      	b.n	5f94 <_vfprintf_r+0x9f0>
    5fc4:	68bb      	ldr	r3, [r7, #8]
    5fc6:	46d9      	mov	r9, fp
    5fc8:	2b00      	cmp	r3, #0
    5fca:	d001      	beq.n	5fd0 <_vfprintf_r+0xa2c>
    5fcc:	f000 fd4c 	bl	6a68 <_vfprintf_r+0x14c4>
    5fd0:	2300      	movs	r3, #0
    5fd2:	607b      	str	r3, [r7, #4]
    5fd4:	464b      	mov	r3, r9
    5fd6:	6e5b      	ldr	r3, [r3, #100]	; 0x64
    5fd8:	07db      	lsls	r3, r3, #31
    5fda:	d40d      	bmi.n	5ff8 <_vfprintf_r+0xa54>
    5fdc:	464b      	mov	r3, r9
    5fde:	899b      	ldrh	r3, [r3, #12]
    5fe0:	059a      	lsls	r2, r3, #22
    5fe2:	d505      	bpl.n	5ff0 <_vfprintf_r+0xa4c>
    5fe4:	065b      	lsls	r3, r3, #25
    5fe6:	d401      	bmi.n	5fec <_vfprintf_r+0xa48>
    5fe8:	f7ff fb8d 	bl	5706 <_vfprintf_r+0x162>
    5fec:	f7ff fb88 	bl	5700 <_vfprintf_r+0x15c>
    5ff0:	464b      	mov	r3, r9
    5ff2:	6d98      	ldr	r0, [r3, #88]	; 0x58
    5ff4:	f002 fbb8 	bl	8768 <__retarget_lock_release_recursive>
    5ff8:	464b      	mov	r3, r9
    5ffa:	899b      	ldrh	r3, [r3, #12]
    5ffc:	e7f2      	b.n	5fe4 <_vfprintf_r+0xa40>
    5ffe:	9b0b      	ldr	r3, [sp, #44]	; 0x2c
    6000:	9a08      	ldr	r2, [sp, #32]
    6002:	1a9d      	subs	r5, r3, r2
    6004:	2d00      	cmp	r5, #0
    6006:	dc00      	bgt.n	600a <_vfprintf_r+0xa66>
    6008:	e685      	b.n	5d16 <_vfprintf_r+0x772>
    600a:	4a4d      	ldr	r2, [pc, #308]	; (6140 <_vfprintf_r+0xb9c>)
    600c:	687b      	ldr	r3, [r7, #4]
    600e:	4691      	mov	r9, r2
    6010:	2d10      	cmp	r5, #16
    6012:	dd24      	ble.n	605e <_vfprintf_r+0xaba>
    6014:	2210      	movs	r2, #16
    6016:	0021      	movs	r1, r4
    6018:	4690      	mov	r8, r2
    601a:	465c      	mov	r4, fp
    601c:	0032      	movs	r2, r6
    601e:	464e      	mov	r6, r9
    6020:	e003      	b.n	602a <_vfprintf_r+0xa86>
    6022:	3d10      	subs	r5, #16
    6024:	3208      	adds	r2, #8
    6026:	2d10      	cmp	r5, #16
    6028:	dd15      	ble.n	6056 <_vfprintf_r+0xab2>
    602a:	4640      	mov	r0, r8
    602c:	3110      	adds	r1, #16
    602e:	3301      	adds	r3, #1
    6030:	6016      	str	r6, [r2, #0]
    6032:	6050      	str	r0, [r2, #4]
    6034:	60b9      	str	r1, [r7, #8]
    6036:	607b      	str	r3, [r7, #4]
    6038:	2b07      	cmp	r3, #7
    603a:	ddf2      	ble.n	6022 <_vfprintf_r+0xa7e>
    603c:	003a      	movs	r2, r7
    603e:	0021      	movs	r1, r4
    6040:	9806      	ldr	r0, [sp, #24]
    6042:	f003 fd53 	bl	9aec <__sprint_r>
    6046:	2800      	cmp	r0, #0
    6048:	d115      	bne.n	6076 <_vfprintf_r+0xad2>
    604a:	3d10      	subs	r5, #16
    604c:	68b9      	ldr	r1, [r7, #8]
    604e:	687b      	ldr	r3, [r7, #4]
    6050:	aa32      	add	r2, sp, #200	; 0xc8
    6052:	2d10      	cmp	r5, #16
    6054:	dce9      	bgt.n	602a <_vfprintf_r+0xa86>
    6056:	46a3      	mov	fp, r4
    6058:	46b1      	mov	r9, r6
    605a:	000c      	movs	r4, r1
    605c:	0016      	movs	r6, r2
    605e:	464a      	mov	r2, r9
    6060:	1964      	adds	r4, r4, r5
    6062:	3301      	adds	r3, #1
    6064:	6032      	str	r2, [r6, #0]
    6066:	6075      	str	r5, [r6, #4]
    6068:	60bc      	str	r4, [r7, #8]
    606a:	607b      	str	r3, [r7, #4]
    606c:	2b07      	cmp	r3, #7
    606e:	dd00      	ble.n	6072 <_vfprintf_r+0xace>
    6070:	e263      	b.n	653a <_vfprintf_r+0xf96>
    6072:	3608      	adds	r6, #8
    6074:	e64f      	b.n	5d16 <_vfprintf_r+0x772>
    6076:	46a1      	mov	r9, r4
    6078:	e7ac      	b.n	5fd4 <_vfprintf_r+0xa30>
    607a:	2301      	movs	r3, #1
    607c:	9a09      	ldr	r2, [sp, #36]	; 0x24
    607e:	4213      	tst	r3, r2
    6080:	d000      	beq.n	6084 <_vfprintf_r+0xae0>
    6082:	e6f6      	b.n	5e72 <_vfprintf_r+0x8ce>
    6084:	6073      	str	r3, [r6, #4]
    6086:	687b      	ldr	r3, [r7, #4]
    6088:	9a11      	ldr	r2, [sp, #68]	; 0x44
    608a:	3301      	adds	r3, #1
    608c:	3401      	adds	r4, #1
    608e:	6032      	str	r2, [r6, #0]
    6090:	60bc      	str	r4, [r7, #8]
    6092:	4698      	mov	r8, r3
    6094:	607b      	str	r3, [r7, #4]
    6096:	2b07      	cmp	r3, #7
    6098:	dc00      	bgt.n	609c <_vfprintf_r+0xaf8>
    609a:	e71e      	b.n	5eda <_vfprintf_r+0x936>
    609c:	003a      	movs	r2, r7
    609e:	4659      	mov	r1, fp
    60a0:	9806      	ldr	r0, [sp, #24]
    60a2:	f003 fd23 	bl	9aec <__sprint_r>
    60a6:	2800      	cmp	r0, #0
    60a8:	d10c      	bne.n	60c4 <_vfprintf_r+0xb20>
    60aa:	687b      	ldr	r3, [r7, #4]
    60ac:	68bc      	ldr	r4, [r7, #8]
    60ae:	4698      	mov	r8, r3
    60b0:	ae32      	add	r6, sp, #200	; 0xc8
    60b2:	e713      	b.n	5edc <_vfprintf_r+0x938>
    60b4:	003a      	movs	r2, r7
    60b6:	4659      	mov	r1, fp
    60b8:	9806      	ldr	r0, [sp, #24]
    60ba:	f003 fd17 	bl	9aec <__sprint_r>
    60be:	2800      	cmp	r0, #0
    60c0:	d100      	bne.n	60c4 <_vfprintf_r+0xb20>
    60c2:	e6cd      	b.n	5e60 <_vfprintf_r+0x8bc>
    60c4:	46d9      	mov	r9, fp
    60c6:	e785      	b.n	5fd4 <_vfprintf_r+0xa30>
    60c8:	9c09      	ldr	r4, [sp, #36]	; 0x24
    60ca:	2b01      	cmp	r3, #1
    60cc:	d100      	bne.n	60d0 <_vfprintf_r+0xb2c>
    60ce:	e148      	b.n	6362 <_vfprintf_r+0xdbe>
    60d0:	2b02      	cmp	r3, #2
    60d2:	d123      	bne.n	611c <_vfprintf_r+0xb78>
    60d4:	9409      	str	r4, [sp, #36]	; 0x24
    60d6:	2300      	movs	r3, #0
    60d8:	2400      	movs	r4, #0
    60da:	930c      	str	r3, [sp, #48]	; 0x30
    60dc:	940d      	str	r4, [sp, #52]	; 0x34
    60de:	e4a1      	b.n	5a24 <_vfprintf_r+0x480>
    60e0:	003a      	movs	r2, r7
    60e2:	4659      	mov	r1, fp
    60e4:	9806      	ldr	r0, [sp, #24]
    60e6:	f003 fd01 	bl	9aec <__sprint_r>
    60ea:	2800      	cmp	r0, #0
    60ec:	d1ea      	bne.n	60c4 <_vfprintf_r+0xb20>
    60ee:	68bc      	ldr	r4, [r7, #8]
    60f0:	ae32      	add	r6, sp, #200	; 0xc8
    60f2:	e648      	b.n	5d86 <_vfprintf_r+0x7e2>
    60f4:	003a      	movs	r2, r7
    60f6:	4659      	mov	r1, fp
    60f8:	9806      	ldr	r0, [sp, #24]
    60fa:	f003 fcf7 	bl	9aec <__sprint_r>
    60fe:	2800      	cmp	r0, #0
    6100:	d1e0      	bne.n	60c4 <_vfprintf_r+0xb20>
    6102:	68bc      	ldr	r4, [r7, #8]
    6104:	ae32      	add	r6, sp, #200	; 0xc8
    6106:	e5f2      	b.n	5cee <_vfprintf_r+0x74a>
    6108:	003a      	movs	r2, r7
    610a:	4659      	mov	r1, fp
    610c:	9806      	ldr	r0, [sp, #24]
    610e:	f003 fced 	bl	9aec <__sprint_r>
    6112:	2800      	cmp	r0, #0
    6114:	d1d6      	bne.n	60c4 <_vfprintf_r+0xb20>
    6116:	68bc      	ldr	r4, [r7, #8]
    6118:	ae32      	add	r6, sp, #200	; 0xc8
    611a:	e5f8      	b.n	5d0e <_vfprintf_r+0x76a>
    611c:	9409      	str	r4, [sp, #36]	; 0x24
    611e:	2300      	movs	r3, #0
    6120:	2400      	movs	r4, #0
    6122:	930c      	str	r3, [sp, #48]	; 0x30
    6124:	940d      	str	r4, [sp, #52]	; 0x34
    6126:	980c      	ldr	r0, [sp, #48]	; 0x30
    6128:	990d      	ldr	r1, [sp, #52]	; 0x34
    612a:	4653      	mov	r3, sl
    612c:	aa32      	add	r2, sp, #200	; 0xc8
    612e:	4691      	mov	r9, r2
    6130:	9308      	str	r3, [sp, #32]
    6132:	46b2      	mov	sl, r6
    6134:	e007      	b.n	6146 <_vfprintf_r+0xba2>
    6136:	46c0      	nop			; (mov r8, r8)
    6138:	0000a50c 	.word	0x0000a50c
    613c:	0000a508 	.word	0x0000a508
    6140:	0000a51c 	.word	0x0000a51c
    6144:	46a1      	mov	r9, r4
    6146:	074a      	lsls	r2, r1, #29
    6148:	4694      	mov	ip, r2
    614a:	464b      	mov	r3, r9
    614c:	4665      	mov	r5, ip
    614e:	1e5c      	subs	r4, r3, #1
    6150:	08c6      	lsrs	r6, r0, #3
    6152:	2307      	movs	r3, #7
    6154:	08ca      	lsrs	r2, r1, #3
    6156:	4335      	orrs	r5, r6
    6158:	0011      	movs	r1, r2
    615a:	002a      	movs	r2, r5
    615c:	4003      	ands	r3, r0
    615e:	3330      	adds	r3, #48	; 0x30
    6160:	7023      	strb	r3, [r4, #0]
    6162:	0028      	movs	r0, r5
    6164:	430a      	orrs	r2, r1
    6166:	d1ed      	bne.n	6144 <_vfprintf_r+0xba0>
    6168:	900c      	str	r0, [sp, #48]	; 0x30
    616a:	910d      	str	r1, [sp, #52]	; 0x34
    616c:	9908      	ldr	r1, [sp, #32]
    616e:	4656      	mov	r6, sl
    6170:	468a      	mov	sl, r1
    6172:	9909      	ldr	r1, [sp, #36]	; 0x24
    6174:	464a      	mov	r2, r9
    6176:	9411      	str	r4, [sp, #68]	; 0x44
    6178:	07c9      	lsls	r1, r1, #31
    617a:	d500      	bpl.n	617e <_vfprintf_r+0xbda>
    617c:	e0e0      	b.n	6340 <_vfprintf_r+0xd9c>
    617e:	ab32      	add	r3, sp, #200	; 0xc8
    6180:	1b1b      	subs	r3, r3, r4
    6182:	930e      	str	r3, [sp, #56]	; 0x38
    6184:	f7ff fb7b 	bl	587e <_vfprintf_r+0x2da>
    6188:	9c07      	ldr	r4, [sp, #28]
    618a:	f7ff fa7d 	bl	5688 <_vfprintf_r+0xe4>
    618e:	981f      	ldr	r0, [sp, #124]	; 0x7c
    6190:	2800      	cmp	r0, #0
    6192:	dc00      	bgt.n	6196 <_vfprintf_r+0xbf2>
    6194:	e2b9      	b.n	670a <_vfprintf_r+0x1166>
    6196:	9a13      	ldr	r2, [sp, #76]	; 0x4c
    6198:	9914      	ldr	r1, [sp, #80]	; 0x50
    619a:	0013      	movs	r3, r2
    619c:	4690      	mov	r8, r2
    619e:	428b      	cmp	r3, r1
    61a0:	dd00      	ble.n	61a4 <_vfprintf_r+0xc00>
    61a2:	4688      	mov	r8, r1
    61a4:	4643      	mov	r3, r8
    61a6:	2b00      	cmp	r3, #0
    61a8:	dd0c      	ble.n	61c4 <_vfprintf_r+0xc20>
    61aa:	9b11      	ldr	r3, [sp, #68]	; 0x44
    61ac:	4444      	add	r4, r8
    61ae:	6033      	str	r3, [r6, #0]
    61b0:	4643      	mov	r3, r8
    61b2:	6073      	str	r3, [r6, #4]
    61b4:	687b      	ldr	r3, [r7, #4]
    61b6:	60bc      	str	r4, [r7, #8]
    61b8:	3301      	adds	r3, #1
    61ba:	607b      	str	r3, [r7, #4]
    61bc:	2b07      	cmp	r3, #7
    61be:	dd00      	ble.n	61c2 <_vfprintf_r+0xc1e>
    61c0:	e389      	b.n	68d6 <_vfprintf_r+0x1332>
    61c2:	3608      	adds	r6, #8
    61c4:	4643      	mov	r3, r8
    61c6:	43db      	mvns	r3, r3
    61c8:	4642      	mov	r2, r8
    61ca:	17db      	asrs	r3, r3, #31
    61cc:	4013      	ands	r3, r2
    61ce:	9a13      	ldr	r2, [sp, #76]	; 0x4c
    61d0:	1ad3      	subs	r3, r2, r3
    61d2:	4698      	mov	r8, r3
    61d4:	2b00      	cmp	r3, #0
    61d6:	dc00      	bgt.n	61da <_vfprintf_r+0xc36>
    61d8:	e0eb      	b.n	63b2 <_vfprintf_r+0xe0e>
    61da:	2b10      	cmp	r3, #16
    61dc:	dc01      	bgt.n	61e2 <_vfprintf_r+0xc3e>
    61de:	f000 fcd9 	bl	6b94 <_vfprintf_r+0x15f0>
    61e2:	4adc      	ldr	r2, [pc, #880]	; (6554 <_vfprintf_r+0xfb0>)
    61e4:	687b      	ldr	r3, [r7, #4]
    61e6:	4691      	mov	r9, r2
    61e8:	2210      	movs	r2, #16
    61ea:	464d      	mov	r5, r9
    61ec:	4692      	mov	sl, r2
    61ee:	0022      	movs	r2, r4
    61f0:	4644      	mov	r4, r8
    61f2:	46d8      	mov	r8, fp
    61f4:	e004      	b.n	6200 <_vfprintf_r+0xc5c>
    61f6:	3608      	adds	r6, #8
    61f8:	3c10      	subs	r4, #16
    61fa:	2c10      	cmp	r4, #16
    61fc:	dc00      	bgt.n	6200 <_vfprintf_r+0xc5c>
    61fe:	e0bf      	b.n	6380 <_vfprintf_r+0xddc>
    6200:	4651      	mov	r1, sl
    6202:	3210      	adds	r2, #16
    6204:	3301      	adds	r3, #1
    6206:	6035      	str	r5, [r6, #0]
    6208:	6071      	str	r1, [r6, #4]
    620a:	60ba      	str	r2, [r7, #8]
    620c:	607b      	str	r3, [r7, #4]
    620e:	2b07      	cmp	r3, #7
    6210:	ddf1      	ble.n	61f6 <_vfprintf_r+0xc52>
    6212:	003a      	movs	r2, r7
    6214:	4641      	mov	r1, r8
    6216:	9806      	ldr	r0, [sp, #24]
    6218:	f003 fc68 	bl	9aec <__sprint_r>
    621c:	2800      	cmp	r0, #0
    621e:	d000      	beq.n	6222 <_vfprintf_r+0xc7e>
    6220:	e3b6      	b.n	6990 <_vfprintf_r+0x13ec>
    6222:	68ba      	ldr	r2, [r7, #8]
    6224:	687b      	ldr	r3, [r7, #4]
    6226:	ae32      	add	r6, sp, #200	; 0xc8
    6228:	e7e6      	b.n	61f8 <_vfprintf_r+0xc54>
    622a:	9b0d      	ldr	r3, [sp, #52]	; 0x34
    622c:	2b00      	cmp	r3, #0
    622e:	d100      	bne.n	6232 <_vfprintf_r+0xc8e>
    6230:	e092      	b.n	6358 <_vfprintf_r+0xdb4>
    6232:	9c0c      	ldr	r4, [sp, #48]	; 0x30
    6234:	9d0d      	ldr	r5, [sp, #52]	; 0x34
    6236:	ab32      	add	r3, sp, #200	; 0xc8
    6238:	46b1      	mov	r9, r6
    623a:	001e      	movs	r6, r3
    623c:	0020      	movs	r0, r4
    623e:	0029      	movs	r1, r5
    6240:	220a      	movs	r2, #10
    6242:	2300      	movs	r3, #0
    6244:	f7fc fd68 	bl	2d18 <__aeabi_uldivmod>
    6248:	3e01      	subs	r6, #1
    624a:	3230      	adds	r2, #48	; 0x30
    624c:	7032      	strb	r2, [r6, #0]
    624e:	2300      	movs	r3, #0
    6250:	0020      	movs	r0, r4
    6252:	0029      	movs	r1, r5
    6254:	220a      	movs	r2, #10
    6256:	f7fc fd5f 	bl	2d18 <__aeabi_uldivmod>
    625a:	0003      	movs	r3, r0
    625c:	0004      	movs	r4, r0
    625e:	000d      	movs	r5, r1
    6260:	430b      	orrs	r3, r1
    6262:	d1eb      	bne.n	623c <_vfprintf_r+0xc98>
    6264:	0032      	movs	r2, r6
    6266:	ab32      	add	r3, sp, #200	; 0xc8
    6268:	1a9b      	subs	r3, r3, r2
    626a:	9611      	str	r6, [sp, #68]	; 0x44
    626c:	940c      	str	r4, [sp, #48]	; 0x30
    626e:	950d      	str	r5, [sp, #52]	; 0x34
    6270:	464e      	mov	r6, r9
    6272:	930e      	str	r3, [sp, #56]	; 0x38
    6274:	f7ff fb03 	bl	587e <_vfprintf_r+0x2da>
    6278:	2300      	movs	r3, #0
    627a:	930e      	str	r3, [sp, #56]	; 0x38
    627c:	ab32      	add	r3, sp, #200	; 0xc8
    627e:	9311      	str	r3, [sp, #68]	; 0x44
    6280:	f7ff fafd 	bl	587e <_vfprintf_r+0x2da>
    6284:	003a      	movs	r2, r7
    6286:	4659      	mov	r1, fp
    6288:	9806      	ldr	r0, [sp, #24]
    628a:	f003 fc2f 	bl	9aec <__sprint_r>
    628e:	2800      	cmp	r0, #0
    6290:	d000      	beq.n	6294 <_vfprintf_r+0xcf0>
    6292:	e717      	b.n	60c4 <_vfprintf_r+0xb20>
    6294:	ab16      	add	r3, sp, #88	; 0x58
    6296:	7fdb      	ldrb	r3, [r3, #31]
    6298:	68bc      	ldr	r4, [r7, #8]
    629a:	4698      	mov	r8, r3
    629c:	ae32      	add	r6, sp, #200	; 0xc8
    629e:	e513      	b.n	5cc8 <_vfprintf_r+0x724>
    62a0:	46b1      	mov	r9, r6
    62a2:	e697      	b.n	5fd4 <_vfprintf_r+0xa30>
    62a4:	9b14      	ldr	r3, [sp, #80]	; 0x50
    62a6:	1e5d      	subs	r5, r3, #1
    62a8:	2d00      	cmp	r5, #0
    62aa:	dc00      	bgt.n	62ae <_vfprintf_r+0xd0a>
    62ac:	e616      	b.n	5edc <_vfprintf_r+0x938>
    62ae:	4ba9      	ldr	r3, [pc, #676]	; (6554 <_vfprintf_r+0xfb0>)
    62b0:	4699      	mov	r9, r3
    62b2:	2d10      	cmp	r5, #16
    62b4:	dc00      	bgt.n	62b8 <_vfprintf_r+0xd14>
    62b6:	e10a      	b.n	64ce <_vfprintf_r+0xf2a>
    62b8:	2310      	movs	r3, #16
    62ba:	0022      	movs	r2, r4
    62bc:	469a      	mov	sl, r3
    62be:	465c      	mov	r4, fp
    62c0:	4643      	mov	r3, r8
    62c2:	e004      	b.n	62ce <_vfprintf_r+0xd2a>
    62c4:	3608      	adds	r6, #8
    62c6:	3d10      	subs	r5, #16
    62c8:	2d10      	cmp	r5, #16
    62ca:	dc00      	bgt.n	62ce <_vfprintf_r+0xd2a>
    62cc:	e0fc      	b.n	64c8 <_vfprintf_r+0xf24>
    62ce:	4649      	mov	r1, r9
    62d0:	6031      	str	r1, [r6, #0]
    62d2:	4651      	mov	r1, sl
    62d4:	3210      	adds	r2, #16
    62d6:	3301      	adds	r3, #1
    62d8:	6071      	str	r1, [r6, #4]
    62da:	60ba      	str	r2, [r7, #8]
    62dc:	607b      	str	r3, [r7, #4]
    62de:	2b07      	cmp	r3, #7
    62e0:	ddf0      	ble.n	62c4 <_vfprintf_r+0xd20>
    62e2:	003a      	movs	r2, r7
    62e4:	0021      	movs	r1, r4
    62e6:	9806      	ldr	r0, [sp, #24]
    62e8:	f003 fc00 	bl	9aec <__sprint_r>
    62ec:	2800      	cmp	r0, #0
    62ee:	d000      	beq.n	62f2 <_vfprintf_r+0xd4e>
    62f0:	e6c1      	b.n	6076 <_vfprintf_r+0xad2>
    62f2:	68ba      	ldr	r2, [r7, #8]
    62f4:	687b      	ldr	r3, [r7, #4]
    62f6:	ae32      	add	r6, sp, #200	; 0xc8
    62f8:	e7e5      	b.n	62c6 <_vfprintf_r+0xd22>
    62fa:	990c      	ldr	r1, [sp, #48]	; 0x30
    62fc:	9a0d      	ldr	r2, [sp, #52]	; 0x34
    62fe:	0008      	movs	r0, r1
    6300:	4310      	orrs	r0, r2
    6302:	2302      	movs	r3, #2
    6304:	0002      	movs	r2, r0
    6306:	f7ff fa93 	bl	5830 <_vfprintf_r+0x28c>
    630a:	46a3      	mov	fp, r4
    630c:	0014      	movs	r4, r2
    630e:	464a      	mov	r2, r9
    6310:	1964      	adds	r4, r4, r5
    6312:	3301      	adds	r3, #1
    6314:	6032      	str	r2, [r6, #0]
    6316:	6075      	str	r5, [r6, #4]
    6318:	60bc      	str	r4, [r7, #8]
    631a:	607b      	str	r3, [r7, #4]
    631c:	2b07      	cmp	r3, #7
    631e:	dc00      	bgt.n	6322 <_vfprintf_r+0xd7e>
    6320:	e542      	b.n	5da8 <_vfprintf_r+0x804>
    6322:	e5e8      	b.n	5ef6 <_vfprintf_r+0x952>
    6324:	9b0f      	ldr	r3, [sp, #60]	; 0x3c
    6326:	681a      	ldr	r2, [r3, #0]
    6328:	f7ff fa68 	bl	57fc <_vfprintf_r+0x258>
    632c:	6813      	ldr	r3, [r2, #0]
    632e:	9308      	str	r3, [sp, #32]
    6330:	f7ff fb57 	bl	59e2 <_vfprintf_r+0x43e>
    6334:	9b0f      	ldr	r3, [sp, #60]	; 0x3c
    6336:	681a      	ldr	r2, [r3, #0]
    6338:	e412      	b.n	5b60 <_vfprintf_r+0x5bc>
    633a:	9b0f      	ldr	r3, [sp, #60]	; 0x3c
    633c:	681a      	ldr	r2, [r3, #0]
    633e:	e426      	b.n	5b8e <_vfprintf_r+0x5ea>
    6340:	2b30      	cmp	r3, #48	; 0x30
    6342:	d100      	bne.n	6346 <_vfprintf_r+0xda2>
    6344:	e23c      	b.n	67c0 <_vfprintf_r+0x121c>
    6346:	2330      	movs	r3, #48	; 0x30
    6348:	3a02      	subs	r2, #2
    634a:	7013      	strb	r3, [r2, #0]
    634c:	ab32      	add	r3, sp, #200	; 0xc8
    634e:	1a9b      	subs	r3, r3, r2
    6350:	930e      	str	r3, [sp, #56]	; 0x38
    6352:	9211      	str	r2, [sp, #68]	; 0x44
    6354:	f7ff fa93 	bl	587e <_vfprintf_r+0x2da>
    6358:	9b0c      	ldr	r3, [sp, #48]	; 0x30
    635a:	2b09      	cmp	r3, #9
    635c:	d900      	bls.n	6360 <_vfprintf_r+0xdbc>
    635e:	e768      	b.n	6232 <_vfprintf_r+0xc8e>
    6360:	9c09      	ldr	r4, [sp, #36]	; 0x24
    6362:	2227      	movs	r2, #39	; 0x27
    6364:	9b0c      	ldr	r3, [sp, #48]	; 0x30
    6366:	a928      	add	r1, sp, #160	; 0xa0
    6368:	3330      	adds	r3, #48	; 0x30
    636a:	548b      	strb	r3, [r1, r2]
    636c:	2301      	movs	r3, #1
    636e:	aa16      	add	r2, sp, #88	; 0x58
    6370:	4694      	mov	ip, r2
    6372:	930e      	str	r3, [sp, #56]	; 0x38
    6374:	336e      	adds	r3, #110	; 0x6e
    6376:	4463      	add	r3, ip
    6378:	9409      	str	r4, [sp, #36]	; 0x24
    637a:	9311      	str	r3, [sp, #68]	; 0x44
    637c:	f7ff fa7f 	bl	587e <_vfprintf_r+0x2da>
    6380:	46c3      	mov	fp, r8
    6382:	46a9      	mov	r9, r5
    6384:	46a0      	mov	r8, r4
    6386:	0014      	movs	r4, r2
    6388:	464a      	mov	r2, r9
    638a:	6032      	str	r2, [r6, #0]
    638c:	4642      	mov	r2, r8
    638e:	4444      	add	r4, r8
    6390:	3301      	adds	r3, #1
    6392:	6072      	str	r2, [r6, #4]
    6394:	60bc      	str	r4, [r7, #8]
    6396:	607b      	str	r3, [r7, #4]
    6398:	2b07      	cmp	r3, #7
    639a:	dc00      	bgt.n	639e <_vfprintf_r+0xdfa>
    639c:	e18d      	b.n	66ba <_vfprintf_r+0x1116>
    639e:	003a      	movs	r2, r7
    63a0:	4659      	mov	r1, fp
    63a2:	9806      	ldr	r0, [sp, #24]
    63a4:	f003 fba2 	bl	9aec <__sprint_r>
    63a8:	2800      	cmp	r0, #0
    63aa:	d000      	beq.n	63ae <_vfprintf_r+0xe0a>
    63ac:	e68a      	b.n	60c4 <_vfprintf_r+0xb20>
    63ae:	68bc      	ldr	r4, [r7, #8]
    63b0:	ae32      	add	r6, sp, #200	; 0xc8
    63b2:	9b1f      	ldr	r3, [sp, #124]	; 0x7c
    63b4:	9a14      	ldr	r2, [sp, #80]	; 0x50
    63b6:	4293      	cmp	r3, r2
    63b8:	db00      	blt.n	63bc <_vfprintf_r+0xe18>
    63ba:	e179      	b.n	66b0 <_vfprintf_r+0x110c>
    63bc:	9a18      	ldr	r2, [sp, #96]	; 0x60
    63be:	6032      	str	r2, [r6, #0]
    63c0:	9a17      	ldr	r2, [sp, #92]	; 0x5c
    63c2:	4694      	mov	ip, r2
    63c4:	6072      	str	r2, [r6, #4]
    63c6:	687a      	ldr	r2, [r7, #4]
    63c8:	4464      	add	r4, ip
    63ca:	3201      	adds	r2, #1
    63cc:	60bc      	str	r4, [r7, #8]
    63ce:	607a      	str	r2, [r7, #4]
    63d0:	2a07      	cmp	r2, #7
    63d2:	dd00      	ble.n	63d6 <_vfprintf_r+0xe32>
    63d4:	e176      	b.n	66c4 <_vfprintf_r+0x1120>
    63d6:	3608      	adds	r6, #8
    63d8:	9a14      	ldr	r2, [sp, #80]	; 0x50
    63da:	9913      	ldr	r1, [sp, #76]	; 0x4c
    63dc:	1ad3      	subs	r3, r2, r3
    63de:	1a52      	subs	r2, r2, r1
    63e0:	4690      	mov	r8, r2
    63e2:	429a      	cmp	r2, r3
    63e4:	dd00      	ble.n	63e8 <_vfprintf_r+0xe44>
    63e6:	4698      	mov	r8, r3
    63e8:	4642      	mov	r2, r8
    63ea:	2a00      	cmp	r2, #0
    63ec:	dd0f      	ble.n	640e <_vfprintf_r+0xe6a>
    63ee:	9913      	ldr	r1, [sp, #76]	; 0x4c
    63f0:	9a11      	ldr	r2, [sp, #68]	; 0x44
    63f2:	468c      	mov	ip, r1
    63f4:	4462      	add	r2, ip
    63f6:	6032      	str	r2, [r6, #0]
    63f8:	4642      	mov	r2, r8
    63fa:	6072      	str	r2, [r6, #4]
    63fc:	687a      	ldr	r2, [r7, #4]
    63fe:	4444      	add	r4, r8
    6400:	3201      	adds	r2, #1
    6402:	60bc      	str	r4, [r7, #8]
    6404:	607a      	str	r2, [r7, #4]
    6406:	2a07      	cmp	r2, #7
    6408:	dd00      	ble.n	640c <_vfprintf_r+0xe68>
    640a:	e289      	b.n	6920 <_vfprintf_r+0x137c>
    640c:	3608      	adds	r6, #8
    640e:	4642      	mov	r2, r8
    6410:	43d5      	mvns	r5, r2
    6412:	17ed      	asrs	r5, r5, #31
    6414:	4015      	ands	r5, r2
    6416:	1b5d      	subs	r5, r3, r5
    6418:	2d00      	cmp	r5, #0
    641a:	dc00      	bgt.n	641e <_vfprintf_r+0xe7a>
    641c:	e4c5      	b.n	5daa <_vfprintf_r+0x806>
    641e:	4a4d      	ldr	r2, [pc, #308]	; (6554 <_vfprintf_r+0xfb0>)
    6420:	687b      	ldr	r3, [r7, #4]
    6422:	4691      	mov	r9, r2
    6424:	2d10      	cmp	r5, #16
    6426:	dc00      	bgt.n	642a <_vfprintf_r+0xe86>
    6428:	e771      	b.n	630e <_vfprintf_r+0xd6a>
    642a:	2210      	movs	r2, #16
    642c:	4690      	mov	r8, r2
    642e:	0022      	movs	r2, r4
    6430:	465c      	mov	r4, fp
    6432:	e004      	b.n	643e <_vfprintf_r+0xe9a>
    6434:	3608      	adds	r6, #8
    6436:	3d10      	subs	r5, #16
    6438:	2d10      	cmp	r5, #16
    643a:	dc00      	bgt.n	643e <_vfprintf_r+0xe9a>
    643c:	e765      	b.n	630a <_vfprintf_r+0xd66>
    643e:	4649      	mov	r1, r9
    6440:	6031      	str	r1, [r6, #0]
    6442:	4641      	mov	r1, r8
    6444:	3210      	adds	r2, #16
    6446:	3301      	adds	r3, #1
    6448:	6071      	str	r1, [r6, #4]
    644a:	60ba      	str	r2, [r7, #8]
    644c:	607b      	str	r3, [r7, #4]
    644e:	2b07      	cmp	r3, #7
    6450:	ddf0      	ble.n	6434 <_vfprintf_r+0xe90>
    6452:	003a      	movs	r2, r7
    6454:	0021      	movs	r1, r4
    6456:	9806      	ldr	r0, [sp, #24]
    6458:	f003 fb48 	bl	9aec <__sprint_r>
    645c:	2800      	cmp	r0, #0
    645e:	d000      	beq.n	6462 <_vfprintf_r+0xebe>
    6460:	e609      	b.n	6076 <_vfprintf_r+0xad2>
    6462:	68ba      	ldr	r2, [r7, #8]
    6464:	687b      	ldr	r3, [r7, #4]
    6466:	ae32      	add	r6, sp, #200	; 0xc8
    6468:	e7e5      	b.n	6436 <_vfprintf_r+0xe92>
    646a:	003a      	movs	r2, r7
    646c:	4659      	mov	r1, fp
    646e:	9806      	ldr	r0, [sp, #24]
    6470:	f003 fb3c 	bl	9aec <__sprint_r>
    6474:	2800      	cmp	r0, #0
    6476:	d000      	beq.n	647a <_vfprintf_r+0xed6>
    6478:	e624      	b.n	60c4 <_vfprintf_r+0xb20>
    647a:	68bc      	ldr	r4, [r7, #8]
    647c:	687b      	ldr	r3, [r7, #4]
    647e:	ae32      	add	r6, sp, #200	; 0xc8
    6480:	e504      	b.n	5e8c <_vfprintf_r+0x8e8>
    6482:	2307      	movs	r3, #7
    6484:	3207      	adds	r2, #7
    6486:	439a      	bics	r2, r3
    6488:	3301      	adds	r3, #1
    648a:	469c      	mov	ip, r3
    648c:	4494      	add	ip, r2
    648e:	4663      	mov	r3, ip
    6490:	930f      	str	r3, [sp, #60]	; 0x3c
    6492:	6853      	ldr	r3, [r2, #4]
    6494:	6812      	ldr	r2, [r2, #0]
    6496:	930d      	str	r3, [sp, #52]	; 0x34
    6498:	920c      	str	r2, [sp, #48]	; 0x30
    649a:	f7ff faa7 	bl	59ec <_vfprintf_r+0x448>
    649e:	2207      	movs	r2, #7
    64a0:	9b0f      	ldr	r3, [sp, #60]	; 0x3c
    64a2:	3307      	adds	r3, #7
    64a4:	4393      	bics	r3, r2
    64a6:	3201      	adds	r2, #1
    64a8:	4694      	mov	ip, r2
    64aa:	449c      	add	ip, r3
    64ac:	4662      	mov	r2, ip
    64ae:	920f      	str	r2, [sp, #60]	; 0x3c
    64b0:	681a      	ldr	r2, [r3, #0]
    64b2:	685b      	ldr	r3, [r3, #4]
    64b4:	0011      	movs	r1, r2
    64b6:	001a      	movs	r2, r3
    64b8:	0008      	movs	r0, r1
    64ba:	4310      	orrs	r0, r2
    64bc:	910c      	str	r1, [sp, #48]	; 0x30
    64be:	920d      	str	r2, [sp, #52]	; 0x34
    64c0:	2300      	movs	r3, #0
    64c2:	0002      	movs	r2, r0
    64c4:	f7ff f9b4 	bl	5830 <_vfprintf_r+0x28c>
    64c8:	46a3      	mov	fp, r4
    64ca:	4698      	mov	r8, r3
    64cc:	0014      	movs	r4, r2
    64ce:	464b      	mov	r3, r9
    64d0:	6075      	str	r5, [r6, #4]
    64d2:	6033      	str	r3, [r6, #0]
    64d4:	1964      	adds	r4, r4, r5
    64d6:	e4f7      	b.n	5ec8 <_vfprintf_r+0x924>
    64d8:	003a      	movs	r2, r7
    64da:	4659      	mov	r1, fp
    64dc:	9806      	ldr	r0, [sp, #24]
    64de:	f003 fb05 	bl	9aec <__sprint_r>
    64e2:	2800      	cmp	r0, #0
    64e4:	d000      	beq.n	64e8 <_vfprintf_r+0xf44>
    64e6:	e5ed      	b.n	60c4 <_vfprintf_r+0xb20>
    64e8:	687b      	ldr	r3, [r7, #4]
    64ea:	68bc      	ldr	r4, [r7, #8]
    64ec:	4698      	mov	r8, r3
    64ee:	ae32      	add	r6, sp, #200	; 0xc8
    64f0:	e4da      	b.n	5ea8 <_vfprintf_r+0x904>
    64f2:	2207      	movs	r2, #7
    64f4:	9b0f      	ldr	r3, [sp, #60]	; 0x3c
    64f6:	3307      	adds	r3, #7
    64f8:	4393      	bics	r3, r2
    64fa:	3201      	adds	r2, #1
    64fc:	4694      	mov	ip, r2
    64fe:	449c      	add	ip, r3
    6500:	4662      	mov	r2, ip
    6502:	920f      	str	r2, [sp, #60]	; 0x3c
    6504:	681a      	ldr	r2, [r3, #0]
    6506:	685b      	ldr	r3, [r3, #4]
    6508:	0011      	movs	r1, r2
    650a:	001a      	movs	r2, r3
    650c:	0008      	movs	r0, r1
    650e:	4310      	orrs	r0, r2
    6510:	910c      	str	r1, [sp, #48]	; 0x30
    6512:	920d      	str	r2, [sp, #52]	; 0x34
    6514:	2301      	movs	r3, #1
    6516:	0002      	movs	r2, r0
    6518:	f7ff f98a 	bl	5830 <_vfprintf_r+0x28c>
    651c:	2207      	movs	r2, #7
    651e:	9b0f      	ldr	r3, [sp, #60]	; 0x3c
    6520:	3307      	adds	r3, #7
    6522:	4393      	bics	r3, r2
    6524:	3201      	adds	r2, #1
    6526:	4694      	mov	ip, r2
    6528:	449c      	add	ip, r3
    652a:	4662      	mov	r2, ip
    652c:	920f      	str	r2, [sp, #60]	; 0x3c
    652e:	681a      	ldr	r2, [r3, #0]
    6530:	685b      	ldr	r3, [r3, #4]
    6532:	920c      	str	r2, [sp, #48]	; 0x30
    6534:	930d      	str	r3, [sp, #52]	; 0x34
    6536:	f7ff f966 	bl	5806 <_vfprintf_r+0x262>
    653a:	003a      	movs	r2, r7
    653c:	4659      	mov	r1, fp
    653e:	9806      	ldr	r0, [sp, #24]
    6540:	f003 fad4 	bl	9aec <__sprint_r>
    6544:	2800      	cmp	r0, #0
    6546:	d000      	beq.n	654a <_vfprintf_r+0xfa6>
    6548:	e5bc      	b.n	60c4 <_vfprintf_r+0xb20>
    654a:	68bc      	ldr	r4, [r7, #8]
    654c:	ae32      	add	r6, sp, #200	; 0xc8
    654e:	f7ff fbe2 	bl	5d16 <_vfprintf_r+0x772>
    6552:	46c0      	nop			; (mov r8, r8)
    6554:	0000a51c 	.word	0x0000a51c
    6558:	980c      	ldr	r0, [sp, #48]	; 0x30
    655a:	990d      	ldr	r1, [sp, #52]	; 0x34
    655c:	2300      	movs	r3, #0
    655e:	4242      	negs	r2, r0
    6560:	418b      	sbcs	r3, r1
    6562:	0011      	movs	r1, r2
    6564:	001a      	movs	r2, r3
    6566:	232d      	movs	r3, #45	; 0x2d
    6568:	a816      	add	r0, sp, #88	; 0x58
    656a:	77c3      	strb	r3, [r0, #31]
    656c:	0008      	movs	r0, r1
    656e:	4310      	orrs	r0, r2
    6570:	910c      	str	r1, [sp, #48]	; 0x30
    6572:	920d      	str	r2, [sp, #52]	; 0x34
    6574:	4698      	mov	r8, r3
    6576:	0002      	movs	r2, r0
    6578:	3b2c      	subs	r3, #44	; 0x2c
    657a:	f7ff f95d 	bl	5838 <_vfprintf_r+0x294>
    657e:	9916      	ldr	r1, [sp, #88]	; 0x58
    6580:	9d15      	ldr	r5, [sp, #84]	; 0x54
    6582:	000a      	movs	r2, r1
    6584:	0008      	movs	r0, r1
    6586:	002b      	movs	r3, r5
    6588:	0029      	movs	r1, r5
    658a:	f7fe fc4b 	bl	4e24 <__aeabi_dcmpun>
    658e:	2800      	cmp	r0, #0
    6590:	d000      	beq.n	6594 <_vfprintf_r+0xff0>
    6592:	e2c6      	b.n	6b22 <_vfprintf_r+0x157e>
    6594:	4653      	mov	r3, sl
    6596:	3301      	adds	r3, #1
    6598:	d100      	bne.n	659c <_vfprintf_r+0xff8>
    659a:	e09f      	b.n	66dc <_vfprintf_r+0x1138>
    659c:	2320      	movs	r3, #32
    659e:	9a12      	ldr	r2, [sp, #72]	; 0x48
    65a0:	439a      	bics	r2, r3
    65a2:	920e      	str	r2, [sp, #56]	; 0x38
    65a4:	2a47      	cmp	r2, #71	; 0x47
    65a6:	d100      	bne.n	65aa <_vfprintf_r+0x1006>
    65a8:	e1a1      	b.n	68ee <_vfprintf_r+0x134a>
    65aa:	2380      	movs	r3, #128	; 0x80
    65ac:	005b      	lsls	r3, r3, #1
    65ae:	4323      	orrs	r3, r4
    65b0:	9309      	str	r3, [sp, #36]	; 0x24
    65b2:	9b15      	ldr	r3, [sp, #84]	; 0x54
    65b4:	2b00      	cmp	r3, #0
    65b6:	da00      	bge.n	65ba <_vfprintf_r+0x1016>
    65b8:	e1ed      	b.n	6996 <_vfprintf_r+0x13f2>
    65ba:	9a16      	ldr	r2, [sp, #88]	; 0x58
    65bc:	9308      	str	r3, [sp, #32]
    65be:	2300      	movs	r3, #0
    65c0:	4691      	mov	r9, r2
    65c2:	9310      	str	r3, [sp, #64]	; 0x40
    65c4:	9b12      	ldr	r3, [sp, #72]	; 0x48
    65c6:	2b66      	cmp	r3, #102	; 0x66
    65c8:	d100      	bne.n	65cc <_vfprintf_r+0x1028>
    65ca:	e1b8      	b.n	693e <_vfprintf_r+0x139a>
    65cc:	2b46      	cmp	r3, #70	; 0x46
    65ce:	d100      	bne.n	65d2 <_vfprintf_r+0x102e>
    65d0:	e237      	b.n	6a42 <_vfprintf_r+0x149e>
    65d2:	9a0e      	ldr	r2, [sp, #56]	; 0x38
    65d4:	9806      	ldr	r0, [sp, #24]
    65d6:	3a45      	subs	r2, #69	; 0x45
    65d8:	0013      	movs	r3, r2
    65da:	4259      	negs	r1, r3
    65dc:	4159      	adcs	r1, r3
    65de:	ab20      	add	r3, sp, #128	; 0x80
    65e0:	000d      	movs	r5, r1
    65e2:	9303      	str	r3, [sp, #12]
    65e4:	ab1f      	add	r3, sp, #124	; 0x7c
    65e6:	9302      	str	r3, [sp, #8]
    65e8:	2302      	movs	r3, #2
    65ea:	aa23      	add	r2, sp, #140	; 0x8c
    65ec:	4455      	add	r5, sl
    65ee:	921b      	str	r2, [sp, #108]	; 0x6c
    65f0:	9204      	str	r2, [sp, #16]
    65f2:	9300      	str	r3, [sp, #0]
    65f4:	9501      	str	r5, [sp, #4]
    65f6:	9b08      	ldr	r3, [sp, #32]
    65f8:	464a      	mov	r2, r9
    65fa:	f000 fcab 	bl	6f54 <_dtoa_r>
    65fe:	9b12      	ldr	r3, [sp, #72]	; 0x48
    6600:	9011      	str	r0, [sp, #68]	; 0x44
    6602:	2b67      	cmp	r3, #103	; 0x67
    6604:	d000      	beq.n	6608 <_vfprintf_r+0x1064>
    6606:	e20b      	b.n	6a20 <_vfprintf_r+0x147c>
    6608:	9b11      	ldr	r3, [sp, #68]	; 0x44
    660a:	4698      	mov	r8, r3
    660c:	44a8      	add	r8, r5
    660e:	07e3      	lsls	r3, r4, #31
    6610:	d400      	bmi.n	6614 <_vfprintf_r+0x1070>
    6612:	e277      	b.n	6b04 <_vfprintf_r+0x1560>
    6614:	2300      	movs	r3, #0
    6616:	2200      	movs	r2, #0
    6618:	4648      	mov	r0, r9
    661a:	9908      	ldr	r1, [sp, #32]
    661c:	f7fc fb4e 	bl	2cbc <__aeabi_dcmpeq>
    6620:	4643      	mov	r3, r8
    6622:	2800      	cmp	r0, #0
    6624:	d10a      	bne.n	663c <_vfprintf_r+0x1098>
    6626:	9b23      	ldr	r3, [sp, #140]	; 0x8c
    6628:	4543      	cmp	r3, r8
    662a:	d207      	bcs.n	663c <_vfprintf_r+0x1098>
    662c:	2130      	movs	r1, #48	; 0x30
    662e:	4640      	mov	r0, r8
    6630:	1c5a      	adds	r2, r3, #1
    6632:	9223      	str	r2, [sp, #140]	; 0x8c
    6634:	7019      	strb	r1, [r3, #0]
    6636:	9b23      	ldr	r3, [sp, #140]	; 0x8c
    6638:	4298      	cmp	r0, r3
    663a:	d8f9      	bhi.n	6630 <_vfprintf_r+0x108c>
    663c:	9a11      	ldr	r2, [sp, #68]	; 0x44
    663e:	1a9b      	subs	r3, r3, r2
    6640:	9314      	str	r3, [sp, #80]	; 0x50
    6642:	9b0e      	ldr	r3, [sp, #56]	; 0x38
    6644:	2b47      	cmp	r3, #71	; 0x47
    6646:	d100      	bne.n	664a <_vfprintf_r+0x10a6>
    6648:	e0d0      	b.n	67ec <_vfprintf_r+0x1248>
    664a:	9b12      	ldr	r3, [sp, #72]	; 0x48
    664c:	2b65      	cmp	r3, #101	; 0x65
    664e:	dc00      	bgt.n	6652 <_vfprintf_r+0x10ae>
    6650:	e2d5      	b.n	6bfe <_vfprintf_r+0x165a>
    6652:	9b12      	ldr	r3, [sp, #72]	; 0x48
    6654:	2b66      	cmp	r3, #102	; 0x66
    6656:	d100      	bne.n	665a <_vfprintf_r+0x10b6>
    6658:	e1c6      	b.n	69e8 <_vfprintf_r+0x1444>
    665a:	9b1f      	ldr	r3, [sp, #124]	; 0x7c
    665c:	9313      	str	r3, [sp, #76]	; 0x4c
    665e:	9b14      	ldr	r3, [sp, #80]	; 0x50
    6660:	9a13      	ldr	r2, [sp, #76]	; 0x4c
    6662:	0019      	movs	r1, r3
    6664:	4291      	cmp	r1, r2
    6666:	dd00      	ble.n	666a <_vfprintf_r+0x10c6>
    6668:	e1a0      	b.n	69ac <_vfprintf_r+0x1408>
    666a:	07e3      	lsls	r3, r4, #31
    666c:	d500      	bpl.n	6670 <_vfprintf_r+0x10cc>
    666e:	e242      	b.n	6af6 <_vfprintf_r+0x1552>
    6670:	43d3      	mvns	r3, r2
    6672:	17db      	asrs	r3, r3, #31
    6674:	0011      	movs	r1, r2
    6676:	401a      	ands	r2, r3
    6678:	2367      	movs	r3, #103	; 0x67
    667a:	9208      	str	r2, [sp, #32]
    667c:	910e      	str	r1, [sp, #56]	; 0x38
    667e:	9312      	str	r3, [sp, #72]	; 0x48
    6680:	9b10      	ldr	r3, [sp, #64]	; 0x40
    6682:	2b00      	cmp	r3, #0
    6684:	d000      	beq.n	6688 <_vfprintf_r+0x10e4>
    6686:	e0a9      	b.n	67dc <_vfprintf_r+0x1238>
    6688:	ab16      	add	r3, sp, #88	; 0x58
    668a:	7fdb      	ldrb	r3, [r3, #31]
    668c:	4698      	mov	r8, r3
    668e:	2300      	movs	r3, #0
    6690:	469a      	mov	sl, r3
    6692:	f7ff f8fc 	bl	588e <_vfprintf_r+0x2ea>
    6696:	46cb      	mov	fp, r9
    6698:	46a1      	mov	r9, r4
    669a:	0014      	movs	r4, r2
    669c:	e637      	b.n	630e <_vfprintf_r+0xd6a>
    669e:	464b      	mov	r3, r9
    66a0:	6d98      	ldr	r0, [r3, #88]	; 0x58
    66a2:	f002 f861 	bl	8768 <__retarget_lock_release_recursive>
    66a6:	2301      	movs	r3, #1
    66a8:	425b      	negs	r3, r3
    66aa:	930a      	str	r3, [sp, #40]	; 0x28
    66ac:	f7ff f82b 	bl	5706 <_vfprintf_r+0x162>
    66b0:	9a09      	ldr	r2, [sp, #36]	; 0x24
    66b2:	07d2      	lsls	r2, r2, #31
    66b4:	d400      	bmi.n	66b8 <_vfprintf_r+0x1114>
    66b6:	e68f      	b.n	63d8 <_vfprintf_r+0xe34>
    66b8:	e680      	b.n	63bc <_vfprintf_r+0xe18>
    66ba:	3608      	adds	r6, #8
    66bc:	e679      	b.n	63b2 <_vfprintf_r+0xe0e>
    66be:	68bc      	ldr	r4, [r7, #8]
    66c0:	f7ff fb73 	bl	5daa <_vfprintf_r+0x806>
    66c4:	003a      	movs	r2, r7
    66c6:	4659      	mov	r1, fp
    66c8:	9806      	ldr	r0, [sp, #24]
    66ca:	f003 fa0f 	bl	9aec <__sprint_r>
    66ce:	2800      	cmp	r0, #0
    66d0:	d000      	beq.n	66d4 <_vfprintf_r+0x1130>
    66d2:	e4f7      	b.n	60c4 <_vfprintf_r+0xb20>
    66d4:	9b1f      	ldr	r3, [sp, #124]	; 0x7c
    66d6:	68bc      	ldr	r4, [r7, #8]
    66d8:	ae32      	add	r6, sp, #200	; 0xc8
    66da:	e67d      	b.n	63d8 <_vfprintf_r+0xe34>
    66dc:	2320      	movs	r3, #32
    66de:	9a12      	ldr	r2, [sp, #72]	; 0x48
    66e0:	439a      	bics	r2, r3
    66e2:	3b1a      	subs	r3, #26
    66e4:	920e      	str	r2, [sp, #56]	; 0x38
    66e6:	469a      	mov	sl, r3
    66e8:	e75f      	b.n	65aa <_vfprintf_r+0x1006>
    66ea:	232d      	movs	r3, #45	; 0x2d
    66ec:	aa16      	add	r2, sp, #88	; 0x58
    66ee:	77d3      	strb	r3, [r2, #31]
    66f0:	4698      	mov	r8, r3
    66f2:	f7ff faa8 	bl	5c46 <_vfprintf_r+0x6a2>
    66f6:	003a      	movs	r2, r7
    66f8:	4659      	mov	r1, fp
    66fa:	9806      	ldr	r0, [sp, #24]
    66fc:	f003 f9f6 	bl	9aec <__sprint_r>
    6700:	2800      	cmp	r0, #0
    6702:	d000      	beq.n	6706 <_vfprintf_r+0x1162>
    6704:	e4de      	b.n	60c4 <_vfprintf_r+0xb20>
    6706:	ae32      	add	r6, sp, #200	; 0xc8
    6708:	e419      	b.n	5f3e <_vfprintf_r+0x99a>
    670a:	4be3      	ldr	r3, [pc, #908]	; (6a98 <_vfprintf_r+0x14f4>)
    670c:	3401      	adds	r4, #1
    670e:	6033      	str	r3, [r6, #0]
    6710:	2301      	movs	r3, #1
    6712:	6073      	str	r3, [r6, #4]
    6714:	687b      	ldr	r3, [r7, #4]
    6716:	60bc      	str	r4, [r7, #8]
    6718:	3301      	adds	r3, #1
    671a:	607b      	str	r3, [r7, #4]
    671c:	2b07      	cmp	r3, #7
    671e:	dd00      	ble.n	6722 <_vfprintf_r+0x117e>
    6720:	e155      	b.n	69ce <_vfprintf_r+0x142a>
    6722:	3608      	adds	r6, #8
    6724:	2800      	cmp	r0, #0
    6726:	d107      	bne.n	6738 <_vfprintf_r+0x1194>
    6728:	9b14      	ldr	r3, [sp, #80]	; 0x50
    672a:	2b00      	cmp	r3, #0
    672c:	d104      	bne.n	6738 <_vfprintf_r+0x1194>
    672e:	9b09      	ldr	r3, [sp, #36]	; 0x24
    6730:	07db      	lsls	r3, r3, #31
    6732:	d401      	bmi.n	6738 <_vfprintf_r+0x1194>
    6734:	f7ff fb39 	bl	5daa <_vfprintf_r+0x806>
    6738:	9b18      	ldr	r3, [sp, #96]	; 0x60
    673a:	6033      	str	r3, [r6, #0]
    673c:	9b17      	ldr	r3, [sp, #92]	; 0x5c
    673e:	1919      	adds	r1, r3, r4
    6740:	6073      	str	r3, [r6, #4]
    6742:	687b      	ldr	r3, [r7, #4]
    6744:	60b9      	str	r1, [r7, #8]
    6746:	3301      	adds	r3, #1
    6748:	607b      	str	r3, [r7, #4]
    674a:	2b07      	cmp	r3, #7
    674c:	dd00      	ble.n	6750 <_vfprintf_r+0x11ac>
    674e:	e1c4      	b.n	6ada <_vfprintf_r+0x1536>
    6750:	0032      	movs	r2, r6
    6752:	3208      	adds	r2, #8
    6754:	2800      	cmp	r0, #0
    6756:	da00      	bge.n	675a <_vfprintf_r+0x11b6>
    6758:	e195      	b.n	6a86 <_vfprintf_r+0x14e2>
    675a:	9811      	ldr	r0, [sp, #68]	; 0x44
    675c:	3301      	adds	r3, #1
    675e:	6010      	str	r0, [r2, #0]
    6760:	9814      	ldr	r0, [sp, #80]	; 0x50
    6762:	607b      	str	r3, [r7, #4]
    6764:	1844      	adds	r4, r0, r1
    6766:	6050      	str	r0, [r2, #4]
    6768:	60bc      	str	r4, [r7, #8]
    676a:	2b07      	cmp	r3, #7
    676c:	dd01      	ble.n	6772 <_vfprintf_r+0x11ce>
    676e:	f7ff fbc2 	bl	5ef6 <_vfprintf_r+0x952>
    6772:	3208      	adds	r2, #8
    6774:	0016      	movs	r6, r2
    6776:	f7ff fb18 	bl	5daa <_vfprintf_r+0x806>
    677a:	990f      	ldr	r1, [sp, #60]	; 0x3c
    677c:	9a0a      	ldr	r2, [sp, #40]	; 0x28
    677e:	680b      	ldr	r3, [r1, #0]
    6780:	601a      	str	r2, [r3, #0]
    6782:	17d2      	asrs	r2, r2, #31
    6784:	605a      	str	r2, [r3, #4]
    6786:	000b      	movs	r3, r1
    6788:	3304      	adds	r3, #4
    678a:	930f      	str	r3, [sp, #60]	; 0x3c
    678c:	f7fe ff58 	bl	5640 <_vfprintf_r+0x9c>
    6790:	464b      	mov	r3, r9
    6792:	9a07      	ldr	r2, [sp, #28]
    6794:	431c      	orrs	r4, r3
    6796:	3201      	adds	r2, #1
    6798:	7813      	ldrb	r3, [r2, #0]
    679a:	9207      	str	r2, [sp, #28]
    679c:	f7fe ff8b 	bl	56b6 <_vfprintf_r+0x112>
    67a0:	003a      	movs	r2, r7
    67a2:	4659      	mov	r1, fp
    67a4:	9806      	ldr	r0, [sp, #24]
    67a6:	f003 f9a1 	bl	9aec <__sprint_r>
    67aa:	2800      	cmp	r0, #0
    67ac:	d000      	beq.n	67b0 <_vfprintf_r+0x120c>
    67ae:	e489      	b.n	60c4 <_vfprintf_r+0xb20>
    67b0:	68bc      	ldr	r4, [r7, #8]
    67b2:	ae32      	add	r6, sp, #200	; 0xc8
    67b4:	f7ff fbdc 	bl	5f70 <_vfprintf_r+0x9cc>
    67b8:	4bb8      	ldr	r3, [pc, #736]	; (6a9c <_vfprintf_r+0x14f8>)
    67ba:	9311      	str	r3, [sp, #68]	; 0x44
    67bc:	f7ff fa4a 	bl	5c54 <_vfprintf_r+0x6b0>
    67c0:	9a11      	ldr	r2, [sp, #68]	; 0x44
    67c2:	ab32      	add	r3, sp, #200	; 0xc8
    67c4:	1a9b      	subs	r3, r3, r2
    67c6:	930e      	str	r3, [sp, #56]	; 0x38
    67c8:	f7ff f859 	bl	587e <_vfprintf_r+0x2da>
    67cc:	9811      	ldr	r0, [sp, #68]	; 0x44
    67ce:	f7fe feb7 	bl	5540 <strlen>
    67d2:	0002      	movs	r2, r0
    67d4:	900e      	str	r0, [sp, #56]	; 0x38
    67d6:	0003      	movs	r3, r0
    67d8:	f7ff f9a1 	bl	5b1e <_vfprintf_r+0x57a>
    67dc:	232d      	movs	r3, #45	; 0x2d
    67de:	aa16      	add	r2, sp, #88	; 0x58
    67e0:	77d3      	strb	r3, [r2, #31]
    67e2:	4698      	mov	r8, r3
    67e4:	2300      	movs	r3, #0
    67e6:	469a      	mov	sl, r3
    67e8:	f7ff f854 	bl	5894 <_vfprintf_r+0x2f0>
    67ec:	9b1f      	ldr	r3, [sp, #124]	; 0x7c
    67ee:	9313      	str	r3, [sp, #76]	; 0x4c
    67f0:	1cda      	adds	r2, r3, #3
    67f2:	db02      	blt.n	67fa <_vfprintf_r+0x1256>
    67f4:	459a      	cmp	sl, r3
    67f6:	db00      	blt.n	67fa <_vfprintf_r+0x1256>
    67f8:	e731      	b.n	665e <_vfprintf_r+0x10ba>
    67fa:	9b12      	ldr	r3, [sp, #72]	; 0x48
    67fc:	3b02      	subs	r3, #2
    67fe:	9312      	str	r3, [sp, #72]	; 0x48
    6800:	222c      	movs	r2, #44	; 0x2c
    6802:	9b13      	ldr	r3, [sp, #76]	; 0x4c
    6804:	2148      	movs	r1, #72	; 0x48
    6806:	1e5d      	subs	r5, r3, #1
    6808:	ab16      	add	r3, sp, #88	; 0x58
    680a:	189b      	adds	r3, r3, r2
    680c:	466a      	mov	r2, sp
    680e:	1852      	adds	r2, r2, r1
    6810:	7812      	ldrb	r2, [r2, #0]
    6812:	951f      	str	r5, [sp, #124]	; 0x7c
    6814:	701a      	strb	r2, [r3, #0]
    6816:	2d00      	cmp	r5, #0
    6818:	da00      	bge.n	681c <_vfprintf_r+0x1278>
    681a:	e1cb      	b.n	6bb4 <_vfprintf_r+0x1610>
    681c:	212d      	movs	r1, #45	; 0x2d
    681e:	232b      	movs	r3, #43	; 0x2b
    6820:	aa16      	add	r2, sp, #88	; 0x58
    6822:	1852      	adds	r2, r2, r1
    6824:	7013      	strb	r3, [r2, #0]
    6826:	2d09      	cmp	r5, #9
    6828:	dc00      	bgt.n	682c <_vfprintf_r+0x1288>
    682a:	e16d      	b.n	6b08 <_vfprintf_r+0x1564>
    682c:	aa16      	add	r2, sp, #88	; 0x58
    682e:	233b      	movs	r3, #59	; 0x3b
    6830:	4694      	mov	ip, r2
    6832:	4463      	add	r3, ip
    6834:	469a      	mov	sl, r3
    6836:	46b1      	mov	r9, r6
    6838:	46a0      	mov	r8, r4
    683a:	4656      	mov	r6, sl
    683c:	e000      	b.n	6840 <_vfprintf_r+0x129c>
    683e:	0026      	movs	r6, r4
    6840:	0028      	movs	r0, r5
    6842:	210a      	movs	r1, #10
    6844:	f7fc fa24 	bl	2c90 <__aeabi_idivmod>
    6848:	1e74      	subs	r4, r6, #1
    684a:	3130      	adds	r1, #48	; 0x30
    684c:	7021      	strb	r1, [r4, #0]
    684e:	0028      	movs	r0, r5
    6850:	210a      	movs	r1, #10
    6852:	f7fc f937 	bl	2ac4 <__divsi3>
    6856:	0005      	movs	r5, r0
    6858:	2809      	cmp	r0, #9
    685a:	dcf0      	bgt.n	683e <_vfprintf_r+0x129a>
    685c:	0023      	movs	r3, r4
    685e:	4644      	mov	r4, r8
    6860:	46b0      	mov	r8, r6
    6862:	464e      	mov	r6, r9
    6864:	4699      	mov	r9, r3
    6866:	0003      	movs	r3, r0
    6868:	3330      	adds	r3, #48	; 0x30
    686a:	b2d8      	uxtb	r0, r3
    686c:	4643      	mov	r3, r8
    686e:	3b02      	subs	r3, #2
    6870:	7018      	strb	r0, [r3, #0]
    6872:	459a      	cmp	sl, r3
    6874:	d800      	bhi.n	6878 <_vfprintf_r+0x12d4>
    6876:	e1f6      	b.n	6c66 <_vfprintf_r+0x16c2>
    6878:	4642      	mov	r2, r8
    687a:	9b1b      	ldr	r3, [sp, #108]	; 0x6c
    687c:	4645      	mov	r5, r8
    687e:	1a99      	subs	r1, r3, r2
    6880:	2301      	movs	r3, #1
    6882:	3107      	adds	r1, #7
    6884:	425b      	negs	r3, r3
    6886:	e001      	b.n	688c <_vfprintf_r+0x12e8>
    6888:	5ce8      	ldrb	r0, [r5, r3]
    688a:	3301      	adds	r3, #1
    688c:	aa21      	add	r2, sp, #132	; 0x84
    688e:	18d2      	adds	r2, r2, r3
    6890:	70d0      	strb	r0, [r2, #3]
    6892:	428b      	cmp	r3, r1
    6894:	d1f8      	bne.n	6888 <_vfprintf_r+0x12e4>
    6896:	a916      	add	r1, sp, #88	; 0x58
    6898:	468c      	mov	ip, r1
    689a:	222e      	movs	r2, #46	; 0x2e
    689c:	464b      	mov	r3, r9
    689e:	4462      	add	r2, ip
    68a0:	4694      	mov	ip, r2
    68a2:	1afb      	subs	r3, r7, r3
    68a4:	4463      	add	r3, ip
    68a6:	aa21      	add	r2, sp, #132	; 0x84
    68a8:	9914      	ldr	r1, [sp, #80]	; 0x50
    68aa:	1a9b      	subs	r3, r3, r2
    68ac:	469c      	mov	ip, r3
    68ae:	000a      	movs	r2, r1
    68b0:	4462      	add	r2, ip
    68b2:	931a      	str	r3, [sp, #104]	; 0x68
    68b4:	920e      	str	r2, [sp, #56]	; 0x38
    68b6:	2901      	cmp	r1, #1
    68b8:	dc00      	bgt.n	68bc <_vfprintf_r+0x1318>
    68ba:	e170      	b.n	6b9e <_vfprintf_r+0x15fa>
    68bc:	9a17      	ldr	r2, [sp, #92]	; 0x5c
    68be:	9b0e      	ldr	r3, [sp, #56]	; 0x38
    68c0:	4694      	mov	ip, r2
    68c2:	4463      	add	r3, ip
    68c4:	001a      	movs	r2, r3
    68c6:	930e      	str	r3, [sp, #56]	; 0x38
    68c8:	43db      	mvns	r3, r3
    68ca:	17db      	asrs	r3, r3, #31
    68cc:	401a      	ands	r2, r3
    68ce:	2300      	movs	r3, #0
    68d0:	9208      	str	r2, [sp, #32]
    68d2:	9313      	str	r3, [sp, #76]	; 0x4c
    68d4:	e6d4      	b.n	6680 <_vfprintf_r+0x10dc>
    68d6:	003a      	movs	r2, r7
    68d8:	4659      	mov	r1, fp
    68da:	9806      	ldr	r0, [sp, #24]
    68dc:	f003 f906 	bl	9aec <__sprint_r>
    68e0:	2800      	cmp	r0, #0
    68e2:	d001      	beq.n	68e8 <_vfprintf_r+0x1344>
    68e4:	f7ff fbee 	bl	60c4 <_vfprintf_r+0xb20>
    68e8:	68bc      	ldr	r4, [r7, #8]
    68ea:	ae32      	add	r6, sp, #200	; 0xc8
    68ec:	e46a      	b.n	61c4 <_vfprintf_r+0xc20>
    68ee:	4653      	mov	r3, sl
    68f0:	2b00      	cmp	r3, #0
    68f2:	d000      	beq.n	68f6 <_vfprintf_r+0x1352>
    68f4:	e659      	b.n	65aa <_vfprintf_r+0x1006>
    68f6:	3301      	adds	r3, #1
    68f8:	469a      	mov	sl, r3
    68fa:	e656      	b.n	65aa <_vfprintf_r+0x1006>
    68fc:	4653      	mov	r3, sl
    68fe:	9308      	str	r3, [sp, #32]
    6900:	2b06      	cmp	r3, #6
    6902:	d901      	bls.n	6908 <_vfprintf_r+0x1364>
    6904:	2306      	movs	r3, #6
    6906:	9308      	str	r3, [sp, #32]
    6908:	9b08      	ldr	r3, [sp, #32]
    690a:	950f      	str	r5, [sp, #60]	; 0x3c
    690c:	930e      	str	r3, [sp, #56]	; 0x38
    690e:	2300      	movs	r3, #0
    6910:	4698      	mov	r8, r3
    6912:	469a      	mov	sl, r3
    6914:	9313      	str	r3, [sp, #76]	; 0x4c
    6916:	4b62      	ldr	r3, [pc, #392]	; (6aa0 <_vfprintf_r+0x14fc>)
    6918:	9409      	str	r4, [sp, #36]	; 0x24
    691a:	9311      	str	r3, [sp, #68]	; 0x44
    691c:	f7fe ffbd 	bl	589a <_vfprintf_r+0x2f6>
    6920:	003a      	movs	r2, r7
    6922:	4659      	mov	r1, fp
    6924:	9806      	ldr	r0, [sp, #24]
    6926:	f003 f8e1 	bl	9aec <__sprint_r>
    692a:	2800      	cmp	r0, #0
    692c:	d001      	beq.n	6932 <_vfprintf_r+0x138e>
    692e:	f7ff fbc9 	bl	60c4 <_vfprintf_r+0xb20>
    6932:	9b14      	ldr	r3, [sp, #80]	; 0x50
    6934:	9a1f      	ldr	r2, [sp, #124]	; 0x7c
    6936:	68bc      	ldr	r4, [r7, #8]
    6938:	1a9b      	subs	r3, r3, r2
    693a:	ae32      	add	r6, sp, #200	; 0xc8
    693c:	e567      	b.n	640e <_vfprintf_r+0xe6a>
    693e:	ab23      	add	r3, sp, #140	; 0x8c
    6940:	931b      	str	r3, [sp, #108]	; 0x6c
    6942:	9304      	str	r3, [sp, #16]
    6944:	ab20      	add	r3, sp, #128	; 0x80
    6946:	9303      	str	r3, [sp, #12]
    6948:	ab1f      	add	r3, sp, #124	; 0x7c
    694a:	9302      	str	r3, [sp, #8]
    694c:	4653      	mov	r3, sl
    694e:	9301      	str	r3, [sp, #4]
    6950:	2303      	movs	r3, #3
    6952:	464a      	mov	r2, r9
    6954:	9300      	str	r3, [sp, #0]
    6956:	9806      	ldr	r0, [sp, #24]
    6958:	9b08      	ldr	r3, [sp, #32]
    695a:	f000 fafb 	bl	6f54 <_dtoa_r>
    695e:	0003      	movs	r3, r0
    6960:	4453      	add	r3, sl
    6962:	4698      	mov	r8, r3
    6964:	4655      	mov	r5, sl
    6966:	9011      	str	r0, [sp, #68]	; 0x44
    6968:	9b11      	ldr	r3, [sp, #68]	; 0x44
    696a:	781b      	ldrb	r3, [r3, #0]
    696c:	2b30      	cmp	r3, #48	; 0x30
    696e:	d002      	beq.n	6976 <_vfprintf_r+0x13d2>
    6970:	9b1f      	ldr	r3, [sp, #124]	; 0x7c
    6972:	4498      	add	r8, r3
    6974:	e64e      	b.n	6614 <_vfprintf_r+0x1070>
    6976:	2200      	movs	r2, #0
    6978:	2300      	movs	r3, #0
    697a:	4648      	mov	r0, r9
    697c:	9908      	ldr	r1, [sp, #32]
    697e:	f7fc f99d 	bl	2cbc <__aeabi_dcmpeq>
    6982:	2800      	cmp	r0, #0
    6984:	d1f4      	bne.n	6970 <_vfprintf_r+0x13cc>
    6986:	2301      	movs	r3, #1
    6988:	1b5b      	subs	r3, r3, r5
    698a:	931f      	str	r3, [sp, #124]	; 0x7c
    698c:	4498      	add	r8, r3
    698e:	e641      	b.n	6614 <_vfprintf_r+0x1070>
    6990:	46c1      	mov	r9, r8
    6992:	f7ff fb1f 	bl	5fd4 <_vfprintf_r+0xa30>
    6996:	2280      	movs	r2, #128	; 0x80
    6998:	0612      	lsls	r2, r2, #24
    699a:	4694      	mov	ip, r2
    699c:	9b16      	ldr	r3, [sp, #88]	; 0x58
    699e:	4699      	mov	r9, r3
    69a0:	9b15      	ldr	r3, [sp, #84]	; 0x54
    69a2:	4463      	add	r3, ip
    69a4:	9308      	str	r3, [sp, #32]
    69a6:	232d      	movs	r3, #45	; 0x2d
    69a8:	9310      	str	r3, [sp, #64]	; 0x40
    69aa:	e60b      	b.n	65c4 <_vfprintf_r+0x1020>
    69ac:	9a17      	ldr	r2, [sp, #92]	; 0x5c
    69ae:	9b14      	ldr	r3, [sp, #80]	; 0x50
    69b0:	4694      	mov	ip, r2
    69b2:	9a13      	ldr	r2, [sp, #76]	; 0x4c
    69b4:	4463      	add	r3, ip
    69b6:	930e      	str	r3, [sp, #56]	; 0x38
    69b8:	2a00      	cmp	r2, #0
    69ba:	dc00      	bgt.n	69be <_vfprintf_r+0x141a>
    69bc:	e0e3      	b.n	6b86 <_vfprintf_r+0x15e2>
    69be:	001a      	movs	r2, r3
    69c0:	43db      	mvns	r3, r3
    69c2:	17db      	asrs	r3, r3, #31
    69c4:	401a      	ands	r2, r3
    69c6:	2367      	movs	r3, #103	; 0x67
    69c8:	9208      	str	r2, [sp, #32]
    69ca:	9312      	str	r3, [sp, #72]	; 0x48
    69cc:	e658      	b.n	6680 <_vfprintf_r+0x10dc>
    69ce:	003a      	movs	r2, r7
    69d0:	4659      	mov	r1, fp
    69d2:	9806      	ldr	r0, [sp, #24]
    69d4:	f003 f88a 	bl	9aec <__sprint_r>
    69d8:	2800      	cmp	r0, #0
    69da:	d001      	beq.n	69e0 <_vfprintf_r+0x143c>
    69dc:	f7ff fb72 	bl	60c4 <_vfprintf_r+0xb20>
    69e0:	981f      	ldr	r0, [sp, #124]	; 0x7c
    69e2:	68bc      	ldr	r4, [r7, #8]
    69e4:	ae32      	add	r6, sp, #200	; 0xc8
    69e6:	e69d      	b.n	6724 <_vfprintf_r+0x1180>
    69e8:	9b1f      	ldr	r3, [sp, #124]	; 0x7c
    69ea:	9313      	str	r3, [sp, #76]	; 0x4c
    69ec:	2b00      	cmp	r3, #0
    69ee:	dc00      	bgt.n	69f2 <_vfprintf_r+0x144e>
    69f0:	e0f2      	b.n	6bd8 <_vfprintf_r+0x1634>
    69f2:	4652      	mov	r2, sl
    69f4:	2a00      	cmp	r2, #0
    69f6:	d000      	beq.n	69fa <_vfprintf_r+0x1456>
    69f8:	e0a0      	b.n	6b3c <_vfprintf_r+0x1598>
    69fa:	07e2      	lsls	r2, r4, #31
    69fc:	d500      	bpl.n	6a00 <_vfprintf_r+0x145c>
    69fe:	e09d      	b.n	6b3c <_vfprintf_r+0x1598>
    6a00:	9308      	str	r3, [sp, #32]
    6a02:	930e      	str	r3, [sp, #56]	; 0x38
    6a04:	e63c      	b.n	6680 <_vfprintf_r+0x10dc>
    6a06:	ab16      	add	r3, sp, #88	; 0x58
    6a08:	7fdb      	ldrb	r3, [r3, #31]
    6a0a:	950f      	str	r5, [sp, #60]	; 0x3c
    6a0c:	4698      	mov	r8, r3
    6a0e:	4653      	mov	r3, sl
    6a10:	9308      	str	r3, [sp, #32]
    6a12:	930e      	str	r3, [sp, #56]	; 0x38
    6a14:	2300      	movs	r3, #0
    6a16:	9409      	str	r4, [sp, #36]	; 0x24
    6a18:	469a      	mov	sl, r3
    6a1a:	9313      	str	r3, [sp, #76]	; 0x4c
    6a1c:	f7fe ff37 	bl	588e <_vfprintf_r+0x2ea>
    6a20:	9b11      	ldr	r3, [sp, #68]	; 0x44
    6a22:	4698      	mov	r8, r3
    6a24:	9b12      	ldr	r3, [sp, #72]	; 0x48
    6a26:	44a8      	add	r8, r5
    6a28:	2b47      	cmp	r3, #71	; 0x47
    6a2a:	d000      	beq.n	6a2e <_vfprintf_r+0x148a>
    6a2c:	e5f2      	b.n	6614 <_vfprintf_r+0x1070>
    6a2e:	07e3      	lsls	r3, r4, #31
    6a30:	d400      	bmi.n	6a34 <_vfprintf_r+0x1490>
    6a32:	e0dc      	b.n	6bee <_vfprintf_r+0x164a>
    6a34:	9b11      	ldr	r3, [sp, #68]	; 0x44
    6a36:	4698      	mov	r8, r3
    6a38:	9b12      	ldr	r3, [sp, #72]	; 0x48
    6a3a:	44a8      	add	r8, r5
    6a3c:	2b46      	cmp	r3, #70	; 0x46
    6a3e:	d093      	beq.n	6968 <_vfprintf_r+0x13c4>
    6a40:	e5e8      	b.n	6614 <_vfprintf_r+0x1070>
    6a42:	ab23      	add	r3, sp, #140	; 0x8c
    6a44:	931b      	str	r3, [sp, #108]	; 0x6c
    6a46:	9304      	str	r3, [sp, #16]
    6a48:	ab20      	add	r3, sp, #128	; 0x80
    6a4a:	9303      	str	r3, [sp, #12]
    6a4c:	ab1f      	add	r3, sp, #124	; 0x7c
    6a4e:	9302      	str	r3, [sp, #8]
    6a50:	4653      	mov	r3, sl
    6a52:	9301      	str	r3, [sp, #4]
    6a54:	2303      	movs	r3, #3
    6a56:	464a      	mov	r2, r9
    6a58:	9300      	str	r3, [sp, #0]
    6a5a:	9806      	ldr	r0, [sp, #24]
    6a5c:	9b08      	ldr	r3, [sp, #32]
    6a5e:	f000 fa79 	bl	6f54 <_dtoa_r>
    6a62:	4655      	mov	r5, sl
    6a64:	9011      	str	r0, [sp, #68]	; 0x44
    6a66:	e7e5      	b.n	6a34 <_vfprintf_r+0x1490>
    6a68:	003a      	movs	r2, r7
    6a6a:	4659      	mov	r1, fp
    6a6c:	9806      	ldr	r0, [sp, #24]
    6a6e:	f003 f83d 	bl	9aec <__sprint_r>
    6a72:	2800      	cmp	r0, #0
    6a74:	d101      	bne.n	6a7a <_vfprintf_r+0x14d6>
    6a76:	f7ff faab 	bl	5fd0 <_vfprintf_r+0xa2c>
    6a7a:	f7ff faab 	bl	5fd4 <_vfprintf_r+0xa30>
    6a7e:	4642      	mov	r2, r8
    6a80:	9207      	str	r2, [sp, #28]
    6a82:	f7fe fe1b 	bl	56bc <_vfprintf_r+0x118>
    6a86:	4244      	negs	r4, r0
    6a88:	3010      	adds	r0, #16
    6a8a:	db00      	blt.n	6a8e <_vfprintf_r+0x14ea>
    6a8c:	e0d8      	b.n	6c40 <_vfprintf_r+0x169c>
    6a8e:	4805      	ldr	r0, [pc, #20]	; (6aa4 <_vfprintf_r+0x1500>)
    6a90:	2610      	movs	r6, #16
    6a92:	0005      	movs	r5, r0
    6a94:	e00c      	b.n	6ab0 <_vfprintf_r+0x150c>
    6a96:	46c0      	nop			; (mov r8, r8)
    6a98:	0000a508 	.word	0x0000a508
    6a9c:	0000a4cc 	.word	0x0000a4cc
    6aa0:	0000a500 	.word	0x0000a500
    6aa4:	0000a51c 	.word	0x0000a51c
    6aa8:	3208      	adds	r2, #8
    6aaa:	3c10      	subs	r4, #16
    6aac:	2c10      	cmp	r4, #16
    6aae:	dd51      	ble.n	6b54 <_vfprintf_r+0x15b0>
    6ab0:	3110      	adds	r1, #16
    6ab2:	3301      	adds	r3, #1
    6ab4:	6015      	str	r5, [r2, #0]
    6ab6:	6056      	str	r6, [r2, #4]
    6ab8:	60b9      	str	r1, [r7, #8]
    6aba:	607b      	str	r3, [r7, #4]
    6abc:	2b07      	cmp	r3, #7
    6abe:	ddf3      	ble.n	6aa8 <_vfprintf_r+0x1504>
    6ac0:	003a      	movs	r2, r7
    6ac2:	4659      	mov	r1, fp
    6ac4:	9806      	ldr	r0, [sp, #24]
    6ac6:	f003 f811 	bl	9aec <__sprint_r>
    6aca:	2800      	cmp	r0, #0
    6acc:	d001      	beq.n	6ad2 <_vfprintf_r+0x152e>
    6ace:	f7ff faf9 	bl	60c4 <_vfprintf_r+0xb20>
    6ad2:	68b9      	ldr	r1, [r7, #8]
    6ad4:	687b      	ldr	r3, [r7, #4]
    6ad6:	aa32      	add	r2, sp, #200	; 0xc8
    6ad8:	e7e7      	b.n	6aaa <_vfprintf_r+0x1506>
    6ada:	003a      	movs	r2, r7
    6adc:	4659      	mov	r1, fp
    6ade:	9806      	ldr	r0, [sp, #24]
    6ae0:	f003 f804 	bl	9aec <__sprint_r>
    6ae4:	2800      	cmp	r0, #0
    6ae6:	d001      	beq.n	6aec <_vfprintf_r+0x1548>
    6ae8:	f7ff faec 	bl	60c4 <_vfprintf_r+0xb20>
    6aec:	981f      	ldr	r0, [sp, #124]	; 0x7c
    6aee:	68b9      	ldr	r1, [r7, #8]
    6af0:	687b      	ldr	r3, [r7, #4]
    6af2:	aa32      	add	r2, sp, #200	; 0xc8
    6af4:	e62e      	b.n	6754 <_vfprintf_r+0x11b0>
    6af6:	9a17      	ldr	r2, [sp, #92]	; 0x5c
    6af8:	9b13      	ldr	r3, [sp, #76]	; 0x4c
    6afa:	4694      	mov	ip, r2
    6afc:	4463      	add	r3, ip
    6afe:	001a      	movs	r2, r3
    6b00:	930e      	str	r3, [sp, #56]	; 0x38
    6b02:	e75d      	b.n	69c0 <_vfprintf_r+0x141c>
    6b04:	9b23      	ldr	r3, [sp, #140]	; 0x8c
    6b06:	e599      	b.n	663c <_vfprintf_r+0x1098>
    6b08:	212e      	movs	r1, #46	; 0x2e
    6b0a:	2330      	movs	r3, #48	; 0x30
    6b0c:	aa16      	add	r2, sp, #88	; 0x58
    6b0e:	1852      	adds	r2, r2, r1
    6b10:	7013      	strb	r3, [r2, #0]
    6b12:	002b      	movs	r3, r5
    6b14:	aa16      	add	r2, sp, #88	; 0x58
    6b16:	3101      	adds	r1, #1
    6b18:	3330      	adds	r3, #48	; 0x30
    6b1a:	1852      	adds	r2, r2, r1
    6b1c:	7013      	strb	r3, [r2, #0]
    6b1e:	ab22      	add	r3, sp, #136	; 0x88
    6b20:	e6c1      	b.n	68a6 <_vfprintf_r+0x1302>
    6b22:	9b15      	ldr	r3, [sp, #84]	; 0x54
    6b24:	2b00      	cmp	r3, #0
    6b26:	db52      	blt.n	6bce <_vfprintf_r+0x162a>
    6b28:	ab16      	add	r3, sp, #88	; 0x58
    6b2a:	7fdb      	ldrb	r3, [r3, #31]
    6b2c:	4698      	mov	r8, r3
    6b2e:	9b12      	ldr	r3, [sp, #72]	; 0x48
    6b30:	2b47      	cmp	r3, #71	; 0x47
    6b32:	dc48      	bgt.n	6bc6 <_vfprintf_r+0x1622>
    6b34:	4b4e      	ldr	r3, [pc, #312]	; (6c70 <_vfprintf_r+0x16cc>)
    6b36:	9311      	str	r3, [sp, #68]	; 0x44
    6b38:	f7ff f88c 	bl	5c54 <_vfprintf_r+0x6b0>
    6b3c:	9a17      	ldr	r2, [sp, #92]	; 0x5c
    6b3e:	9b13      	ldr	r3, [sp, #76]	; 0x4c
    6b40:	4694      	mov	ip, r2
    6b42:	4463      	add	r3, ip
    6b44:	4453      	add	r3, sl
    6b46:	001a      	movs	r2, r3
    6b48:	930e      	str	r3, [sp, #56]	; 0x38
    6b4a:	43db      	mvns	r3, r3
    6b4c:	17db      	asrs	r3, r3, #31
    6b4e:	401a      	ands	r2, r3
    6b50:	9208      	str	r2, [sp, #32]
    6b52:	e595      	b.n	6680 <_vfprintf_r+0x10dc>
    6b54:	46a9      	mov	r9, r5
    6b56:	4648      	mov	r0, r9
    6b58:	1909      	adds	r1, r1, r4
    6b5a:	3301      	adds	r3, #1
    6b5c:	6010      	str	r0, [r2, #0]
    6b5e:	6054      	str	r4, [r2, #4]
    6b60:	60b9      	str	r1, [r7, #8]
    6b62:	3208      	adds	r2, #8
    6b64:	607b      	str	r3, [r7, #4]
    6b66:	2b07      	cmp	r3, #7
    6b68:	dc00      	bgt.n	6b6c <_vfprintf_r+0x15c8>
    6b6a:	e5f6      	b.n	675a <_vfprintf_r+0x11b6>
    6b6c:	003a      	movs	r2, r7
    6b6e:	4659      	mov	r1, fp
    6b70:	9806      	ldr	r0, [sp, #24]
    6b72:	f002 ffbb 	bl	9aec <__sprint_r>
    6b76:	2800      	cmp	r0, #0
    6b78:	d001      	beq.n	6b7e <_vfprintf_r+0x15da>
    6b7a:	f7ff faa3 	bl	60c4 <_vfprintf_r+0xb20>
    6b7e:	68b9      	ldr	r1, [r7, #8]
    6b80:	687b      	ldr	r3, [r7, #4]
    6b82:	aa32      	add	r2, sp, #200	; 0xc8
    6b84:	e5e9      	b.n	675a <_vfprintf_r+0x11b6>
    6b86:	9b0e      	ldr	r3, [sp, #56]	; 0x38
    6b88:	9a13      	ldr	r2, [sp, #76]	; 0x4c
    6b8a:	1a98      	subs	r0, r3, r2
    6b8c:	1c43      	adds	r3, r0, #1
    6b8e:	001a      	movs	r2, r3
    6b90:	930e      	str	r3, [sp, #56]	; 0x38
    6b92:	e715      	b.n	69c0 <_vfprintf_r+0x141c>
    6b94:	4a37      	ldr	r2, [pc, #220]	; (6c74 <_vfprintf_r+0x16d0>)
    6b96:	687b      	ldr	r3, [r7, #4]
    6b98:	4691      	mov	r9, r2
    6b9a:	f7ff fbf5 	bl	6388 <_vfprintf_r+0xde4>
    6b9e:	2301      	movs	r3, #1
    6ba0:	4023      	ands	r3, r4
    6ba2:	9313      	str	r3, [sp, #76]	; 0x4c
    6ba4:	d000      	beq.n	6ba8 <_vfprintf_r+0x1604>
    6ba6:	e689      	b.n	68bc <_vfprintf_r+0x1318>
    6ba8:	9a0e      	ldr	r2, [sp, #56]	; 0x38
    6baa:	43d3      	mvns	r3, r2
    6bac:	17db      	asrs	r3, r3, #31
    6bae:	401a      	ands	r2, r3
    6bb0:	9208      	str	r2, [sp, #32]
    6bb2:	e565      	b.n	6680 <_vfprintf_r+0x10dc>
    6bb4:	2301      	movs	r3, #1
    6bb6:	9a13      	ldr	r2, [sp, #76]	; 0x4c
    6bb8:	391b      	subs	r1, #27
    6bba:	1a9d      	subs	r5, r3, r2
    6bbc:	aa16      	add	r2, sp, #88	; 0x58
    6bbe:	332c      	adds	r3, #44	; 0x2c
    6bc0:	1852      	adds	r2, r2, r1
    6bc2:	7013      	strb	r3, [r2, #0]
    6bc4:	e62f      	b.n	6826 <_vfprintf_r+0x1282>
    6bc6:	4b2c      	ldr	r3, [pc, #176]	; (6c78 <_vfprintf_r+0x16d4>)
    6bc8:	9311      	str	r3, [sp, #68]	; 0x44
    6bca:	f7ff f843 	bl	5c54 <_vfprintf_r+0x6b0>
    6bce:	232d      	movs	r3, #45	; 0x2d
    6bd0:	aa16      	add	r2, sp, #88	; 0x58
    6bd2:	77d3      	strb	r3, [r2, #31]
    6bd4:	4698      	mov	r8, r3
    6bd6:	e7aa      	b.n	6b2e <_vfprintf_r+0x158a>
    6bd8:	4653      	mov	r3, sl
    6bda:	2b00      	cmp	r3, #0
    6bdc:	d101      	bne.n	6be2 <_vfprintf_r+0x163e>
    6bde:	07e3      	lsls	r3, r4, #31
    6be0:	d503      	bpl.n	6bea <_vfprintf_r+0x1646>
    6be2:	9b17      	ldr	r3, [sp, #92]	; 0x5c
    6be4:	1c58      	adds	r0, r3, #1
    6be6:	0003      	movs	r3, r0
    6be8:	e7ac      	b.n	6b44 <_vfprintf_r+0x15a0>
    6bea:	2301      	movs	r3, #1
    6bec:	e708      	b.n	6a00 <_vfprintf_r+0x145c>
    6bee:	9b23      	ldr	r3, [sp, #140]	; 0x8c
    6bf0:	9a11      	ldr	r2, [sp, #68]	; 0x44
    6bf2:	1a9b      	subs	r3, r3, r2
    6bf4:	9314      	str	r3, [sp, #80]	; 0x50
    6bf6:	9b0e      	ldr	r3, [sp, #56]	; 0x38
    6bf8:	2b47      	cmp	r3, #71	; 0x47
    6bfa:	d100      	bne.n	6bfe <_vfprintf_r+0x165a>
    6bfc:	e5f6      	b.n	67ec <_vfprintf_r+0x1248>
    6bfe:	9b1f      	ldr	r3, [sp, #124]	; 0x7c
    6c00:	9313      	str	r3, [sp, #76]	; 0x4c
    6c02:	e5fd      	b.n	6800 <_vfprintf_r+0x125c>
    6c04:	9b0f      	ldr	r3, [sp, #60]	; 0x3c
    6c06:	1d1d      	adds	r5, r3, #4
    6c08:	681b      	ldr	r3, [r3, #0]
    6c0a:	46a8      	mov	r8, r5
    6c0c:	469a      	mov	sl, r3
    6c0e:	2b00      	cmp	r3, #0
    6c10:	db0a      	blt.n	6c28 <_vfprintf_r+0x1684>
    6c12:	4645      	mov	r5, r8
    6c14:	9b07      	ldr	r3, [sp, #28]
    6c16:	950f      	str	r5, [sp, #60]	; 0x3c
    6c18:	785b      	ldrb	r3, [r3, #1]
    6c1a:	9207      	str	r2, [sp, #28]
    6c1c:	f7fe fd4b 	bl	56b6 <_vfprintf_r+0x112>
    6c20:	ab16      	add	r3, sp, #88	; 0x58
    6c22:	77d8      	strb	r0, [r3, #31]
    6c24:	f7ff f830 	bl	5c88 <_vfprintf_r+0x6e4>
    6c28:	2301      	movs	r3, #1
    6c2a:	425b      	negs	r3, r3
    6c2c:	469a      	mov	sl, r3
    6c2e:	e7f0      	b.n	6c12 <_vfprintf_r+0x166e>
    6c30:	ab16      	add	r3, sp, #88	; 0x58
    6c32:	77d8      	strb	r0, [r3, #31]
    6c34:	f7fe ff27 	bl	5a86 <_vfprintf_r+0x4e2>
    6c38:	ab16      	add	r3, sp, #88	; 0x58
    6c3a:	77d8      	strb	r0, [r3, #31]
    6c3c:	f7fe fdce 	bl	57dc <_vfprintf_r+0x238>
    6c40:	480c      	ldr	r0, [pc, #48]	; (6c74 <_vfprintf_r+0x16d0>)
    6c42:	4681      	mov	r9, r0
    6c44:	e787      	b.n	6b56 <_vfprintf_r+0x15b2>
    6c46:	ab16      	add	r3, sp, #88	; 0x58
    6c48:	77d8      	strb	r0, [r3, #31]
    6c4a:	f7ff f829 	bl	5ca0 <_vfprintf_r+0x6fc>
    6c4e:	ab16      	add	r3, sp, #88	; 0x58
    6c50:	77d8      	strb	r0, [r3, #31]
    6c52:	f7fe ffc3 	bl	5bdc <_vfprintf_r+0x638>
    6c56:	ab16      	add	r3, sp, #88	; 0x58
    6c58:	77d8      	strb	r0, [r3, #31]
    6c5a:	f7fe ffa5 	bl	5ba8 <_vfprintf_r+0x604>
    6c5e:	ab16      	add	r3, sp, #88	; 0x58
    6c60:	77d8      	strb	r0, [r3, #31]
    6c62:	f7fe feaf 	bl	59c4 <_vfprintf_r+0x420>
    6c66:	aa16      	add	r2, sp, #88	; 0x58
    6c68:	232e      	movs	r3, #46	; 0x2e
    6c6a:	4694      	mov	ip, r2
    6c6c:	4463      	add	r3, ip
    6c6e:	e61a      	b.n	68a6 <_vfprintf_r+0x1302>
    6c70:	0000a4d0 	.word	0x0000a4d0
    6c74:	0000a51c 	.word	0x0000a51c
    6c78:	0000a4d4 	.word	0x0000a4d4

00006c7c <__sbprintf>:
    6c7c:	b5f0      	push	{r4, r5, r6, r7, lr}
    6c7e:	0015      	movs	r5, r2
    6c80:	2202      	movs	r2, #2
    6c82:	4c1e      	ldr	r4, [pc, #120]	; (6cfc <__sbprintf+0x80>)
    6c84:	001f      	movs	r7, r3
    6c86:	898b      	ldrh	r3, [r1, #12]
    6c88:	44a5      	add	sp, r4
    6c8a:	4393      	bics	r3, r2
    6c8c:	466a      	mov	r2, sp
    6c8e:	8193      	strh	r3, [r2, #12]
    6c90:	6e4b      	ldr	r3, [r1, #100]	; 0x64
    6c92:	0006      	movs	r6, r0
    6c94:	9319      	str	r3, [sp, #100]	; 0x64
    6c96:	89cb      	ldrh	r3, [r1, #14]
    6c98:	a816      	add	r0, sp, #88	; 0x58
    6c9a:	81d3      	strh	r3, [r2, #14]
    6c9c:	69cb      	ldr	r3, [r1, #28]
    6c9e:	000c      	movs	r4, r1
    6ca0:	9307      	str	r3, [sp, #28]
    6ca2:	6a4b      	ldr	r3, [r1, #36]	; 0x24
    6ca4:	9309      	str	r3, [sp, #36]	; 0x24
    6ca6:	ab1a      	add	r3, sp, #104	; 0x68
    6ca8:	9300      	str	r3, [sp, #0]
    6caa:	9304      	str	r3, [sp, #16]
    6cac:	2380      	movs	r3, #128	; 0x80
    6cae:	00db      	lsls	r3, r3, #3
    6cb0:	9302      	str	r3, [sp, #8]
    6cb2:	9305      	str	r3, [sp, #20]
    6cb4:	2300      	movs	r3, #0
    6cb6:	9306      	str	r3, [sp, #24]
    6cb8:	f001 fd50 	bl	875c <__retarget_lock_init_recursive>
    6cbc:	002a      	movs	r2, r5
    6cbe:	003b      	movs	r3, r7
    6cc0:	4669      	mov	r1, sp
    6cc2:	0030      	movs	r0, r6
    6cc4:	f7fe fc6e 	bl	55a4 <_vfprintf_r>
    6cc8:	1e05      	subs	r5, r0, #0
    6cca:	db05      	blt.n	6cd8 <__sbprintf+0x5c>
    6ccc:	4669      	mov	r1, sp
    6cce:	0030      	movs	r0, r6
    6cd0:	f001 f9ac 	bl	802c <_fflush_r>
    6cd4:	2800      	cmp	r0, #0
    6cd6:	d10e      	bne.n	6cf6 <__sbprintf+0x7a>
    6cd8:	466b      	mov	r3, sp
    6cda:	899b      	ldrh	r3, [r3, #12]
    6cdc:	065b      	lsls	r3, r3, #25
    6cde:	d503      	bpl.n	6ce8 <__sbprintf+0x6c>
    6ce0:	2240      	movs	r2, #64	; 0x40
    6ce2:	89a3      	ldrh	r3, [r4, #12]
    6ce4:	4313      	orrs	r3, r2
    6ce6:	81a3      	strh	r3, [r4, #12]
    6ce8:	9816      	ldr	r0, [sp, #88]	; 0x58
    6cea:	f001 fd39 	bl	8760 <__retarget_lock_close_recursive>
    6cee:	0028      	movs	r0, r5
    6cf0:	4b03      	ldr	r3, [pc, #12]	; (6d00 <__sbprintf+0x84>)
    6cf2:	449d      	add	sp, r3
    6cf4:	bdf0      	pop	{r4, r5, r6, r7, pc}
    6cf6:	2501      	movs	r5, #1
    6cf8:	426d      	negs	r5, r5
    6cfa:	e7ed      	b.n	6cd8 <__sbprintf+0x5c>
    6cfc:	fffffb94 	.word	0xfffffb94
    6d00:	0000046c 	.word	0x0000046c

00006d04 <__swsetup_r>:
    6d04:	4b33      	ldr	r3, [pc, #204]	; (6dd4 <__swsetup_r+0xd0>)
    6d06:	b570      	push	{r4, r5, r6, lr}
    6d08:	0005      	movs	r5, r0
    6d0a:	6818      	ldr	r0, [r3, #0]
    6d0c:	000c      	movs	r4, r1
    6d0e:	2800      	cmp	r0, #0
    6d10:	d002      	beq.n	6d18 <__swsetup_r+0x14>
    6d12:	6b83      	ldr	r3, [r0, #56]	; 0x38
    6d14:	2b00      	cmp	r3, #0
    6d16:	d03c      	beq.n	6d92 <__swsetup_r+0x8e>
    6d18:	230c      	movs	r3, #12
    6d1a:	5ee2      	ldrsh	r2, [r4, r3]
    6d1c:	b293      	uxth	r3, r2
    6d1e:	0719      	lsls	r1, r3, #28
    6d20:	d50d      	bpl.n	6d3e <__swsetup_r+0x3a>
    6d22:	6921      	ldr	r1, [r4, #16]
    6d24:	2900      	cmp	r1, #0
    6d26:	d015      	beq.n	6d54 <__swsetup_r+0x50>
    6d28:	07da      	lsls	r2, r3, #31
    6d2a:	d521      	bpl.n	6d70 <__swsetup_r+0x6c>
    6d2c:	2300      	movs	r3, #0
    6d2e:	60a3      	str	r3, [r4, #8]
    6d30:	6963      	ldr	r3, [r4, #20]
    6d32:	2000      	movs	r0, #0
    6d34:	425b      	negs	r3, r3
    6d36:	61a3      	str	r3, [r4, #24]
    6d38:	2900      	cmp	r1, #0
    6d3a:	d021      	beq.n	6d80 <__swsetup_r+0x7c>
    6d3c:	bd70      	pop	{r4, r5, r6, pc}
    6d3e:	06d9      	lsls	r1, r3, #27
    6d40:	d53f      	bpl.n	6dc2 <__swsetup_r+0xbe>
    6d42:	075b      	lsls	r3, r3, #29
    6d44:	d428      	bmi.n	6d98 <__swsetup_r+0x94>
    6d46:	6921      	ldr	r1, [r4, #16]
    6d48:	2308      	movs	r3, #8
    6d4a:	4313      	orrs	r3, r2
    6d4c:	81a3      	strh	r3, [r4, #12]
    6d4e:	b29b      	uxth	r3, r3
    6d50:	2900      	cmp	r1, #0
    6d52:	d1e9      	bne.n	6d28 <__swsetup_r+0x24>
    6d54:	22a0      	movs	r2, #160	; 0xa0
    6d56:	2080      	movs	r0, #128	; 0x80
    6d58:	0092      	lsls	r2, r2, #2
    6d5a:	0080      	lsls	r0, r0, #2
    6d5c:	401a      	ands	r2, r3
    6d5e:	4282      	cmp	r2, r0
    6d60:	d0e2      	beq.n	6d28 <__swsetup_r+0x24>
    6d62:	0021      	movs	r1, r4
    6d64:	0028      	movs	r0, r5
    6d66:	f001 fd31 	bl	87cc <__smakebuf_r>
    6d6a:	89a3      	ldrh	r3, [r4, #12]
    6d6c:	6921      	ldr	r1, [r4, #16]
    6d6e:	e7db      	b.n	6d28 <__swsetup_r+0x24>
    6d70:	2200      	movs	r2, #0
    6d72:	079b      	lsls	r3, r3, #30
    6d74:	d400      	bmi.n	6d78 <__swsetup_r+0x74>
    6d76:	6962      	ldr	r2, [r4, #20]
    6d78:	60a2      	str	r2, [r4, #8]
    6d7a:	2000      	movs	r0, #0
    6d7c:	2900      	cmp	r1, #0
    6d7e:	d1dd      	bne.n	6d3c <__swsetup_r+0x38>
    6d80:	220c      	movs	r2, #12
    6d82:	5ea3      	ldrsh	r3, [r4, r2]
    6d84:	061a      	lsls	r2, r3, #24
    6d86:	d5d9      	bpl.n	6d3c <__swsetup_r+0x38>
    6d88:	2240      	movs	r2, #64	; 0x40
    6d8a:	4313      	orrs	r3, r2
    6d8c:	81a3      	strh	r3, [r4, #12]
    6d8e:	3801      	subs	r0, #1
    6d90:	e7d4      	b.n	6d3c <__swsetup_r+0x38>
    6d92:	f001 f9a5 	bl	80e0 <__sinit>
    6d96:	e7bf      	b.n	6d18 <__swsetup_r+0x14>
    6d98:	6b21      	ldr	r1, [r4, #48]	; 0x30
    6d9a:	2900      	cmp	r1, #0
    6d9c:	d00a      	beq.n	6db4 <__swsetup_r+0xb0>
    6d9e:	0023      	movs	r3, r4
    6da0:	3340      	adds	r3, #64	; 0x40
    6da2:	4299      	cmp	r1, r3
    6da4:	d004      	beq.n	6db0 <__swsetup_r+0xac>
    6da6:	0028      	movs	r0, r5
    6da8:	f001 fa44 	bl	8234 <_free_r>
    6dac:	230c      	movs	r3, #12
    6dae:	5ee2      	ldrsh	r2, [r4, r3]
    6db0:	2300      	movs	r3, #0
    6db2:	6323      	str	r3, [r4, #48]	; 0x30
    6db4:	2324      	movs	r3, #36	; 0x24
    6db6:	439a      	bics	r2, r3
    6db8:	2300      	movs	r3, #0
    6dba:	6921      	ldr	r1, [r4, #16]
    6dbc:	6063      	str	r3, [r4, #4]
    6dbe:	6021      	str	r1, [r4, #0]
    6dc0:	e7c2      	b.n	6d48 <__swsetup_r+0x44>
    6dc2:	2309      	movs	r3, #9
    6dc4:	602b      	str	r3, [r5, #0]
    6dc6:	2340      	movs	r3, #64	; 0x40
    6dc8:	2001      	movs	r0, #1
    6dca:	431a      	orrs	r2, r3
    6dcc:	81a2      	strh	r2, [r4, #12]
    6dce:	4240      	negs	r0, r0
    6dd0:	e7b4      	b.n	6d3c <__swsetup_r+0x38>
    6dd2:	46c0      	nop			; (mov r8, r8)
    6dd4:	20000004 	.word	0x20000004

00006dd8 <register_fini>:
    6dd8:	4b03      	ldr	r3, [pc, #12]	; (6de8 <register_fini+0x10>)
    6dda:	b510      	push	{r4, lr}
    6ddc:	2b00      	cmp	r3, #0
    6dde:	d002      	beq.n	6de6 <register_fini+0xe>
    6de0:	4802      	ldr	r0, [pc, #8]	; (6dec <register_fini+0x14>)
    6de2:	f000 f805 	bl	6df0 <atexit>
    6de6:	bd10      	pop	{r4, pc}
    6de8:	00000000 	.word	0x00000000
    6dec:	00008161 	.word	0x00008161

00006df0 <atexit>:
    6df0:	b510      	push	{r4, lr}
    6df2:	0001      	movs	r1, r0
    6df4:	2300      	movs	r3, #0
    6df6:	2200      	movs	r2, #0
    6df8:	2000      	movs	r0, #0
    6dfa:	f002 fe95 	bl	9b28 <__register_exitproc>
    6dfe:	bd10      	pop	{r4, pc}

00006e00 <quorem>:
    6e00:	b5f0      	push	{r4, r5, r6, r7, lr}
    6e02:	4645      	mov	r5, r8
    6e04:	4680      	mov	r8, r0
    6e06:	46de      	mov	lr, fp
    6e08:	4657      	mov	r7, sl
    6e0a:	464e      	mov	r6, r9
    6e0c:	4642      	mov	r2, r8
    6e0e:	b5e0      	push	{r5, r6, r7, lr}
    6e10:	690c      	ldr	r4, [r1, #16]
    6e12:	6912      	ldr	r2, [r2, #16]
    6e14:	b085      	sub	sp, #20
    6e16:	000b      	movs	r3, r1
    6e18:	9102      	str	r1, [sp, #8]
    6e1a:	2000      	movs	r0, #0
    6e1c:	4294      	cmp	r4, r2
    6e1e:	dd00      	ble.n	6e22 <quorem+0x22>
    6e20:	e090      	b.n	6f44 <quorem+0x144>
    6e22:	2214      	movs	r2, #20
    6e24:	4694      	mov	ip, r2
    6e26:	4463      	add	r3, ip
    6e28:	4699      	mov	r9, r3
    6e2a:	464a      	mov	r2, r9
    6e2c:	3c01      	subs	r4, #1
    6e2e:	00a3      	lsls	r3, r4, #2
    6e30:	18d6      	adds	r6, r2, r3
    6e32:	2214      	movs	r2, #20
    6e34:	4442      	add	r2, r8
    6e36:	4693      	mov	fp, r2
    6e38:	449b      	add	fp, r3
    6e3a:	6833      	ldr	r3, [r6, #0]
    6e3c:	0015      	movs	r5, r2
    6e3e:	1c59      	adds	r1, r3, #1
    6e40:	465b      	mov	r3, fp
    6e42:	6818      	ldr	r0, [r3, #0]
    6e44:	9201      	str	r2, [sp, #4]
    6e46:	f7fb fdb3 	bl	29b0 <__udivsi3>
    6e4a:	1e03      	subs	r3, r0, #0
    6e4c:	9000      	str	r0, [sp, #0]
    6e4e:	d042      	beq.n	6ed6 <quorem+0xd6>
    6e50:	0029      	movs	r1, r5
    6e52:	2700      	movs	r7, #0
    6e54:	464d      	mov	r5, r9
    6e56:	2000      	movs	r0, #0
    6e58:	46b1      	mov	r9, r6
    6e5a:	46a2      	mov	sl, r4
    6e5c:	003e      	movs	r6, r7
    6e5e:	0004      	movs	r4, r0
    6e60:	469c      	mov	ip, r3
    6e62:	002f      	movs	r7, r5
    6e64:	0008      	movs	r0, r1
    6e66:	9503      	str	r5, [sp, #12]
    6e68:	4663      	mov	r3, ip
    6e6a:	cf04      	ldmia	r7!, {r2}
    6e6c:	0415      	lsls	r5, r2, #16
    6e6e:	0c2d      	lsrs	r5, r5, #16
    6e70:	435d      	muls	r5, r3
    6e72:	0c12      	lsrs	r2, r2, #16
    6e74:	435a      	muls	r2, r3
    6e76:	19ad      	adds	r5, r5, r6
    6e78:	0c2b      	lsrs	r3, r5, #16
    6e7a:	18d2      	adds	r2, r2, r3
    6e7c:	6803      	ldr	r3, [r0, #0]
    6e7e:	042d      	lsls	r5, r5, #16
    6e80:	0419      	lsls	r1, r3, #16
    6e82:	0c09      	lsrs	r1, r1, #16
    6e84:	1909      	adds	r1, r1, r4
    6e86:	0c16      	lsrs	r6, r2, #16
    6e88:	0c2d      	lsrs	r5, r5, #16
    6e8a:	0412      	lsls	r2, r2, #16
    6e8c:	1b49      	subs	r1, r1, r5
    6e8e:	0c12      	lsrs	r2, r2, #16
    6e90:	0c1b      	lsrs	r3, r3, #16
    6e92:	1a9b      	subs	r3, r3, r2
    6e94:	140a      	asrs	r2, r1, #16
    6e96:	189b      	adds	r3, r3, r2
    6e98:	0409      	lsls	r1, r1, #16
    6e9a:	141c      	asrs	r4, r3, #16
    6e9c:	0c09      	lsrs	r1, r1, #16
    6e9e:	041b      	lsls	r3, r3, #16
    6ea0:	4319      	orrs	r1, r3
    6ea2:	c002      	stmia	r0!, {r1}
    6ea4:	45b9      	cmp	r9, r7
    6ea6:	d2df      	bcs.n	6e68 <quorem+0x68>
    6ea8:	9b03      	ldr	r3, [sp, #12]
    6eaa:	464e      	mov	r6, r9
    6eac:	4699      	mov	r9, r3
    6eae:	465b      	mov	r3, fp
    6eb0:	681b      	ldr	r3, [r3, #0]
    6eb2:	4654      	mov	r4, sl
    6eb4:	2b00      	cmp	r3, #0
    6eb6:	d10e      	bne.n	6ed6 <quorem+0xd6>
    6eb8:	465b      	mov	r3, fp
    6eba:	9a01      	ldr	r2, [sp, #4]
    6ebc:	3b04      	subs	r3, #4
    6ebe:	429a      	cmp	r2, r3
    6ec0:	d304      	bcc.n	6ecc <quorem+0xcc>
    6ec2:	e006      	b.n	6ed2 <quorem+0xd2>
    6ec4:	3b04      	subs	r3, #4
    6ec6:	3c01      	subs	r4, #1
    6ec8:	429a      	cmp	r2, r3
    6eca:	d202      	bcs.n	6ed2 <quorem+0xd2>
    6ecc:	6819      	ldr	r1, [r3, #0]
    6ece:	2900      	cmp	r1, #0
    6ed0:	d0f8      	beq.n	6ec4 <quorem+0xc4>
    6ed2:	4643      	mov	r3, r8
    6ed4:	611c      	str	r4, [r3, #16]
    6ed6:	9902      	ldr	r1, [sp, #8]
    6ed8:	4640      	mov	r0, r8
    6eda:	f002 fa93 	bl	9404 <__mcmp>
    6ede:	2800      	cmp	r0, #0
    6ee0:	db2f      	blt.n	6f42 <quorem+0x142>
    6ee2:	464f      	mov	r7, r9
    6ee4:	2000      	movs	r0, #0
    6ee6:	9b00      	ldr	r3, [sp, #0]
    6ee8:	9d01      	ldr	r5, [sp, #4]
    6eea:	3301      	adds	r3, #1
    6eec:	9300      	str	r3, [sp, #0]
    6eee:	682b      	ldr	r3, [r5, #0]
    6ef0:	cf02      	ldmia	r7!, {r1}
    6ef2:	041a      	lsls	r2, r3, #16
    6ef4:	0c12      	lsrs	r2, r2, #16
    6ef6:	1810      	adds	r0, r2, r0
    6ef8:	040a      	lsls	r2, r1, #16
    6efa:	0c12      	lsrs	r2, r2, #16
    6efc:	1a82      	subs	r2, r0, r2
    6efe:	0c09      	lsrs	r1, r1, #16
    6f00:	0c1b      	lsrs	r3, r3, #16
    6f02:	1a5b      	subs	r3, r3, r1
    6f04:	1411      	asrs	r1, r2, #16
    6f06:	185b      	adds	r3, r3, r1
    6f08:	0412      	lsls	r2, r2, #16
    6f0a:	1418      	asrs	r0, r3, #16
    6f0c:	0c12      	lsrs	r2, r2, #16
    6f0e:	041b      	lsls	r3, r3, #16
    6f10:	4313      	orrs	r3, r2
    6f12:	c508      	stmia	r5!, {r3}
    6f14:	42be      	cmp	r6, r7
    6f16:	d2ea      	bcs.n	6eee <quorem+0xee>
    6f18:	9901      	ldr	r1, [sp, #4]
    6f1a:	00a3      	lsls	r3, r4, #2
    6f1c:	468c      	mov	ip, r1
    6f1e:	4463      	add	r3, ip
    6f20:	681a      	ldr	r2, [r3, #0]
    6f22:	2a00      	cmp	r2, #0
    6f24:	d10d      	bne.n	6f42 <quorem+0x142>
    6f26:	3b04      	subs	r3, #4
    6f28:	000a      	movs	r2, r1
    6f2a:	4299      	cmp	r1, r3
    6f2c:	d304      	bcc.n	6f38 <quorem+0x138>
    6f2e:	e006      	b.n	6f3e <quorem+0x13e>
    6f30:	3b04      	subs	r3, #4
    6f32:	3c01      	subs	r4, #1
    6f34:	429a      	cmp	r2, r3
    6f36:	d202      	bcs.n	6f3e <quorem+0x13e>
    6f38:	6819      	ldr	r1, [r3, #0]
    6f3a:	2900      	cmp	r1, #0
    6f3c:	d0f8      	beq.n	6f30 <quorem+0x130>
    6f3e:	4643      	mov	r3, r8
    6f40:	611c      	str	r4, [r3, #16]
    6f42:	9800      	ldr	r0, [sp, #0]
    6f44:	b005      	add	sp, #20
    6f46:	bc3c      	pop	{r2, r3, r4, r5}
    6f48:	4690      	mov	r8, r2
    6f4a:	4699      	mov	r9, r3
    6f4c:	46a2      	mov	sl, r4
    6f4e:	46ab      	mov	fp, r5
    6f50:	bdf0      	pop	{r4, r5, r6, r7, pc}
    6f52:	46c0      	nop			; (mov r8, r8)

00006f54 <_dtoa_r>:
    6f54:	b5f0      	push	{r4, r5, r6, r7, lr}
    6f56:	4657      	mov	r7, sl
    6f58:	464e      	mov	r6, r9
    6f5a:	4645      	mov	r5, r8
    6f5c:	46de      	mov	lr, fp
    6f5e:	b5e0      	push	{r5, r6, r7, lr}
    6f60:	6c01      	ldr	r1, [r0, #64]	; 0x40
    6f62:	b099      	sub	sp, #100	; 0x64
    6f64:	4682      	mov	sl, r0
    6f66:	001d      	movs	r5, r3
    6f68:	0016      	movs	r6, r2
    6f6a:	001f      	movs	r7, r3
    6f6c:	2900      	cmp	r1, #0
    6f6e:	d009      	beq.n	6f84 <_dtoa_r+0x30>
    6f70:	2301      	movs	r3, #1
    6f72:	6c42      	ldr	r2, [r0, #68]	; 0x44
    6f74:	4093      	lsls	r3, r2
    6f76:	604a      	str	r2, [r1, #4]
    6f78:	608b      	str	r3, [r1, #8]
    6f7a:	f002 f837 	bl	8fec <_Bfree>
    6f7e:	2300      	movs	r3, #0
    6f80:	4652      	mov	r2, sl
    6f82:	6413      	str	r3, [r2, #64]	; 0x40
    6f84:	46b8      	mov	r8, r7
    6f86:	2f00      	cmp	r7, #0
    6f88:	db37      	blt.n	6ffa <_dtoa_r+0xa6>
    6f8a:	2300      	movs	r3, #0
    6f8c:	9a25      	ldr	r2, [sp, #148]	; 0x94
    6f8e:	6013      	str	r3, [r2, #0]
    6f90:	4642      	mov	r2, r8
    6f92:	4bd6      	ldr	r3, [pc, #856]	; (72ec <_dtoa_r+0x398>)
    6f94:	401a      	ands	r2, r3
    6f96:	429a      	cmp	r2, r3
    6f98:	d018      	beq.n	6fcc <_dtoa_r+0x78>
    6f9a:	2200      	movs	r2, #0
    6f9c:	2300      	movs	r3, #0
    6f9e:	0030      	movs	r0, r6
    6fa0:	0039      	movs	r1, r7
    6fa2:	f7fb fe8b 	bl	2cbc <__aeabi_dcmpeq>
    6fa6:	2800      	cmp	r0, #0
    6fa8:	d02f      	beq.n	700a <_dtoa_r+0xb6>
    6faa:	2301      	movs	r3, #1
    6fac:	9a24      	ldr	r2, [sp, #144]	; 0x90
    6fae:	6013      	str	r3, [r2, #0]
    6fb0:	9b26      	ldr	r3, [sp, #152]	; 0x98
    6fb2:	2b00      	cmp	r3, #0
    6fb4:	d100      	bne.n	6fb8 <_dtoa_r+0x64>
    6fb6:	e22a      	b.n	740e <_dtoa_r+0x4ba>
    6fb8:	48cd      	ldr	r0, [pc, #820]	; (72f0 <_dtoa_r+0x39c>)
    6fba:	6018      	str	r0, [r3, #0]
    6fbc:	3801      	subs	r0, #1
    6fbe:	b019      	add	sp, #100	; 0x64
    6fc0:	bc3c      	pop	{r2, r3, r4, r5}
    6fc2:	4690      	mov	r8, r2
    6fc4:	4699      	mov	r9, r3
    6fc6:	46a2      	mov	sl, r4
    6fc8:	46ab      	mov	fp, r5
    6fca:	bdf0      	pop	{r4, r5, r6, r7, pc}
    6fcc:	4bc9      	ldr	r3, [pc, #804]	; (72f4 <_dtoa_r+0x3a0>)
    6fce:	9a24      	ldr	r2, [sp, #144]	; 0x90
    6fd0:	6013      	str	r3, [r2, #0]
    6fd2:	2e00      	cmp	r6, #0
    6fd4:	d10b      	bne.n	6fee <_dtoa_r+0x9a>
    6fd6:	4643      	mov	r3, r8
    6fd8:	0318      	lsls	r0, r3, #12
    6fda:	d108      	bne.n	6fee <_dtoa_r+0x9a>
    6fdc:	9b26      	ldr	r3, [sp, #152]	; 0x98
    6fde:	48c6      	ldr	r0, [pc, #792]	; (72f8 <_dtoa_r+0x3a4>)
    6fe0:	2b00      	cmp	r3, #0
    6fe2:	d0ec      	beq.n	6fbe <_dtoa_r+0x6a>
    6fe4:	0003      	movs	r3, r0
    6fe6:	3308      	adds	r3, #8
    6fe8:	9a26      	ldr	r2, [sp, #152]	; 0x98
    6fea:	6013      	str	r3, [r2, #0]
    6fec:	e7e7      	b.n	6fbe <_dtoa_r+0x6a>
    6fee:	9b26      	ldr	r3, [sp, #152]	; 0x98
    6ff0:	48c2      	ldr	r0, [pc, #776]	; (72fc <_dtoa_r+0x3a8>)
    6ff2:	2b00      	cmp	r3, #0
    6ff4:	d0e3      	beq.n	6fbe <_dtoa_r+0x6a>
    6ff6:	1cc3      	adds	r3, r0, #3
    6ff8:	e7f6      	b.n	6fe8 <_dtoa_r+0x94>
    6ffa:	2301      	movs	r3, #1
    6ffc:	9a25      	ldr	r2, [sp, #148]	; 0x94
    6ffe:	0068      	lsls	r0, r5, #1
    7000:	6013      	str	r3, [r2, #0]
    7002:	0843      	lsrs	r3, r0, #1
    7004:	4698      	mov	r8, r3
    7006:	001f      	movs	r7, r3
    7008:	e7c2      	b.n	6f90 <_dtoa_r+0x3c>
    700a:	ab16      	add	r3, sp, #88	; 0x58
    700c:	9301      	str	r3, [sp, #4]
    700e:	ab17      	add	r3, sp, #92	; 0x5c
    7010:	9300      	str	r3, [sp, #0]
    7012:	0032      	movs	r2, r6
    7014:	003b      	movs	r3, r7
    7016:	4650      	mov	r0, sl
    7018:	f002 faaa 	bl	9570 <__d2b>
    701c:	4643      	mov	r3, r8
    701e:	4683      	mov	fp, r0
    7020:	0d1a      	lsrs	r2, r3, #20
    7022:	d100      	bne.n	7026 <_dtoa_r+0xd2>
    7024:	e1d6      	b.n	73d4 <_dtoa_r+0x480>
    7026:	033b      	lsls	r3, r7, #12
    7028:	4cb5      	ldr	r4, [pc, #724]	; (7300 <_dtoa_r+0x3ac>)
    702a:	0b1b      	lsrs	r3, r3, #12
    702c:	431c      	orrs	r4, r3
    702e:	4bb5      	ldr	r3, [pc, #724]	; (7304 <_dtoa_r+0x3b0>)
    7030:	0030      	movs	r0, r6
    7032:	4698      	mov	r8, r3
    7034:	9b16      	ldr	r3, [sp, #88]	; 0x58
    7036:	0021      	movs	r1, r4
    7038:	4699      	mov	r9, r3
    703a:	2300      	movs	r3, #0
    703c:	4490      	add	r8, r2
    703e:	930f      	str	r3, [sp, #60]	; 0x3c
    7040:	2200      	movs	r2, #0
    7042:	4bb1      	ldr	r3, [pc, #708]	; (7308 <_dtoa_r+0x3b4>)
    7044:	f7fd fbd8 	bl	47f8 <__aeabi_dsub>
    7048:	4ab0      	ldr	r2, [pc, #704]	; (730c <_dtoa_r+0x3b8>)
    704a:	4bb1      	ldr	r3, [pc, #708]	; (7310 <_dtoa_r+0x3bc>)
    704c:	f7fd f954 	bl	42f8 <__aeabi_dmul>
    7050:	4ab0      	ldr	r2, [pc, #704]	; (7314 <_dtoa_r+0x3c0>)
    7052:	4bb1      	ldr	r3, [pc, #708]	; (7318 <_dtoa_r+0x3c4>)
    7054:	f7fc fa0c 	bl	3470 <__aeabi_dadd>
    7058:	0004      	movs	r4, r0
    705a:	4640      	mov	r0, r8
    705c:	000d      	movs	r5, r1
    705e:	f7fd ff35 	bl	4ecc <__aeabi_i2d>
    7062:	4aae      	ldr	r2, [pc, #696]	; (731c <_dtoa_r+0x3c8>)
    7064:	4bae      	ldr	r3, [pc, #696]	; (7320 <_dtoa_r+0x3cc>)
    7066:	f7fd f947 	bl	42f8 <__aeabi_dmul>
    706a:	0002      	movs	r2, r0
    706c:	000b      	movs	r3, r1
    706e:	0020      	movs	r0, r4
    7070:	0029      	movs	r1, r5
    7072:	f7fc f9fd 	bl	3470 <__aeabi_dadd>
    7076:	0004      	movs	r4, r0
    7078:	000d      	movs	r5, r1
    707a:	f7fd fef3 	bl	4e64 <__aeabi_d2iz>
    707e:	2200      	movs	r2, #0
    7080:	9003      	str	r0, [sp, #12]
    7082:	2300      	movs	r3, #0
    7084:	0020      	movs	r0, r4
    7086:	0029      	movs	r1, r5
    7088:	f7fb fe1e 	bl	2cc8 <__aeabi_dcmplt>
    708c:	2800      	cmp	r0, #0
    708e:	d000      	beq.n	7092 <_dtoa_r+0x13e>
    7090:	e2b1      	b.n	75f6 <_dtoa_r+0x6a2>
    7092:	2301      	movs	r3, #1
    7094:	9c03      	ldr	r4, [sp, #12]
    7096:	930c      	str	r3, [sp, #48]	; 0x30
    7098:	2c16      	cmp	r4, #22
    709a:	d810      	bhi.n	70be <_dtoa_r+0x16a>
    709c:	49a1      	ldr	r1, [pc, #644]	; (7324 <_dtoa_r+0x3d0>)
    709e:	00e3      	lsls	r3, r4, #3
    70a0:	18c9      	adds	r1, r1, r3
    70a2:	0032      	movs	r2, r6
    70a4:	6808      	ldr	r0, [r1, #0]
    70a6:	6849      	ldr	r1, [r1, #4]
    70a8:	003b      	movs	r3, r7
    70aa:	f7fb fe21 	bl	2cf0 <__aeabi_dcmpgt>
    70ae:	2800      	cmp	r0, #0
    70b0:	d100      	bne.n	70b4 <_dtoa_r+0x160>
    70b2:	e31d      	b.n	76f0 <_dtoa_r+0x79c>
    70b4:	0023      	movs	r3, r4
    70b6:	3b01      	subs	r3, #1
    70b8:	9303      	str	r3, [sp, #12]
    70ba:	2300      	movs	r3, #0
    70bc:	930c      	str	r3, [sp, #48]	; 0x30
    70be:	464b      	mov	r3, r9
    70c0:	4642      	mov	r2, r8
    70c2:	1a9a      	subs	r2, r3, r2
    70c4:	2300      	movs	r3, #0
    70c6:	9306      	str	r3, [sp, #24]
    70c8:	0013      	movs	r3, r2
    70ca:	3b01      	subs	r3, #1
    70cc:	9304      	str	r3, [sp, #16]
    70ce:	d500      	bpl.n	70d2 <_dtoa_r+0x17e>
    70d0:	e2a1      	b.n	7616 <_dtoa_r+0x6c2>
    70d2:	9b03      	ldr	r3, [sp, #12]
    70d4:	2b00      	cmp	r3, #0
    70d6:	da00      	bge.n	70da <_dtoa_r+0x186>
    70d8:	e284      	b.n	75e4 <_dtoa_r+0x690>
    70da:	469c      	mov	ip, r3
    70dc:	930d      	str	r3, [sp, #52]	; 0x34
    70de:	2300      	movs	r3, #0
    70e0:	9a04      	ldr	r2, [sp, #16]
    70e2:	4699      	mov	r9, r3
    70e4:	0011      	movs	r1, r2
    70e6:	4461      	add	r1, ip
    70e8:	9104      	str	r1, [sp, #16]
    70ea:	9b22      	ldr	r3, [sp, #136]	; 0x88
    70ec:	2b09      	cmp	r3, #9
    70ee:	d900      	bls.n	70f2 <_dtoa_r+0x19e>
    70f0:	e18f      	b.n	7412 <_dtoa_r+0x4be>
    70f2:	2401      	movs	r4, #1
    70f4:	2b05      	cmp	r3, #5
    70f6:	dd02      	ble.n	70fe <_dtoa_r+0x1aa>
    70f8:	2400      	movs	r4, #0
    70fa:	3b04      	subs	r3, #4
    70fc:	9322      	str	r3, [sp, #136]	; 0x88
    70fe:	9b22      	ldr	r3, [sp, #136]	; 0x88
    7100:	2b03      	cmp	r3, #3
    7102:	d101      	bne.n	7108 <_dtoa_r+0x1b4>
    7104:	f000 fcce 	bl	7aa4 <_dtoa_r+0xb50>
    7108:	dc01      	bgt.n	710e <_dtoa_r+0x1ba>
    710a:	f000 fc92 	bl	7a32 <_dtoa_r+0xade>
    710e:	9b22      	ldr	r3, [sp, #136]	; 0x88
    7110:	2b04      	cmp	r3, #4
    7112:	d101      	bne.n	7118 <_dtoa_r+0x1c4>
    7114:	f000 fc40 	bl	7998 <_dtoa_r+0xa44>
    7118:	2301      	movs	r3, #1
    711a:	930b      	str	r3, [sp, #44]	; 0x2c
    711c:	9b22      	ldr	r3, [sp, #136]	; 0x88
    711e:	2b05      	cmp	r3, #5
    7120:	d001      	beq.n	7126 <_dtoa_r+0x1d2>
    7122:	f000 fc8b 	bl	7a3c <_dtoa_r+0xae8>
    7126:	9a23      	ldr	r2, [sp, #140]	; 0x8c
    7128:	9b03      	ldr	r3, [sp, #12]
    712a:	4694      	mov	ip, r2
    712c:	4463      	add	r3, ip
    712e:	930e      	str	r3, [sp, #56]	; 0x38
    7130:	3301      	adds	r3, #1
    7132:	9307      	str	r3, [sp, #28]
    7134:	1e1d      	subs	r5, r3, #0
    7136:	dc01      	bgt.n	713c <_dtoa_r+0x1e8>
    7138:	f000 fd49 	bl	7bce <_dtoa_r+0xc7a>
    713c:	9b07      	ldr	r3, [sp, #28]
    713e:	4698      	mov	r8, r3
    7140:	2300      	movs	r3, #0
    7142:	4652      	mov	r2, sl
    7144:	2100      	movs	r1, #0
    7146:	6453      	str	r3, [r2, #68]	; 0x44
    7148:	2d17      	cmp	r5, #23
    714a:	d90a      	bls.n	7162 <_dtoa_r+0x20e>
    714c:	2201      	movs	r2, #1
    714e:	3304      	adds	r3, #4
    7150:	005b      	lsls	r3, r3, #1
    7152:	0018      	movs	r0, r3
    7154:	3014      	adds	r0, #20
    7156:	0011      	movs	r1, r2
    7158:	3201      	adds	r2, #1
    715a:	4285      	cmp	r5, r0
    715c:	d2f8      	bcs.n	7150 <_dtoa_r+0x1fc>
    715e:	4653      	mov	r3, sl
    7160:	6459      	str	r1, [r3, #68]	; 0x44
    7162:	4650      	mov	r0, sl
    7164:	f001 ff1a 	bl	8f9c <_Balloc>
    7168:	4653      	mov	r3, sl
    716a:	6418      	str	r0, [r3, #64]	; 0x40
    716c:	4643      	mov	r3, r8
    716e:	900a      	str	r0, [sp, #40]	; 0x28
    7170:	2b0e      	cmp	r3, #14
    7172:	d900      	bls.n	7176 <_dtoa_r+0x222>
    7174:	e161      	b.n	743a <_dtoa_r+0x4e6>
    7176:	2c00      	cmp	r4, #0
    7178:	d100      	bne.n	717c <_dtoa_r+0x228>
    717a:	e15e      	b.n	743a <_dtoa_r+0x4e6>
    717c:	9610      	str	r6, [sp, #64]	; 0x40
    717e:	9711      	str	r7, [sp, #68]	; 0x44
    7180:	9e03      	ldr	r6, [sp, #12]
    7182:	2e00      	cmp	r6, #0
    7184:	dc01      	bgt.n	718a <_dtoa_r+0x236>
    7186:	f000 fd25 	bl	7bd4 <_dtoa_r+0xc80>
    718a:	0032      	movs	r2, r6
    718c:	210f      	movs	r1, #15
    718e:	4b65      	ldr	r3, [pc, #404]	; (7324 <_dtoa_r+0x3d0>)
    7190:	400a      	ands	r2, r1
    7192:	00d2      	lsls	r2, r2, #3
    7194:	189b      	adds	r3, r3, r2
    7196:	1136      	asrs	r6, r6, #4
    7198:	681c      	ldr	r4, [r3, #0]
    719a:	685d      	ldr	r5, [r3, #4]
    719c:	06f3      	lsls	r3, r6, #27
    719e:	d401      	bmi.n	71a4 <_dtoa_r+0x250>
    71a0:	f000 fcca 	bl	7b38 <_dtoa_r+0xbe4>
    71a4:	4b60      	ldr	r3, [pc, #384]	; (7328 <_dtoa_r+0x3d4>)
    71a6:	400e      	ands	r6, r1
    71a8:	6a1a      	ldr	r2, [r3, #32]
    71aa:	6a5b      	ldr	r3, [r3, #36]	; 0x24
    71ac:	9810      	ldr	r0, [sp, #64]	; 0x40
    71ae:	9911      	ldr	r1, [sp, #68]	; 0x44
    71b0:	f7fc fc6e 	bl	3a90 <__aeabi_ddiv>
    71b4:	2303      	movs	r3, #3
    71b6:	4698      	mov	r8, r3
    71b8:	9008      	str	r0, [sp, #32]
    71ba:	9109      	str	r1, [sp, #36]	; 0x24
    71bc:	2e00      	cmp	r6, #0
    71be:	d011      	beq.n	71e4 <_dtoa_r+0x290>
    71c0:	4f59      	ldr	r7, [pc, #356]	; (7328 <_dtoa_r+0x3d4>)
    71c2:	2301      	movs	r3, #1
    71c4:	4233      	tst	r3, r6
    71c6:	d009      	beq.n	71dc <_dtoa_r+0x288>
    71c8:	469c      	mov	ip, r3
    71ca:	683a      	ldr	r2, [r7, #0]
    71cc:	687b      	ldr	r3, [r7, #4]
    71ce:	0020      	movs	r0, r4
    71d0:	0029      	movs	r1, r5
    71d2:	44e0      	add	r8, ip
    71d4:	f7fd f890 	bl	42f8 <__aeabi_dmul>
    71d8:	0004      	movs	r4, r0
    71da:	000d      	movs	r5, r1
    71dc:	1076      	asrs	r6, r6, #1
    71de:	3708      	adds	r7, #8
    71e0:	2e00      	cmp	r6, #0
    71e2:	d1ee      	bne.n	71c2 <_dtoa_r+0x26e>
    71e4:	0022      	movs	r2, r4
    71e6:	9808      	ldr	r0, [sp, #32]
    71e8:	9909      	ldr	r1, [sp, #36]	; 0x24
    71ea:	002b      	movs	r3, r5
    71ec:	f7fc fc50 	bl	3a90 <__aeabi_ddiv>
    71f0:	0006      	movs	r6, r0
    71f2:	000f      	movs	r7, r1
    71f4:	9b0c      	ldr	r3, [sp, #48]	; 0x30
    71f6:	2b00      	cmp	r3, #0
    71f8:	d009      	beq.n	720e <_dtoa_r+0x2ba>
    71fa:	2200      	movs	r2, #0
    71fc:	4b40      	ldr	r3, [pc, #256]	; (7300 <_dtoa_r+0x3ac>)
    71fe:	0030      	movs	r0, r6
    7200:	0039      	movs	r1, r7
    7202:	f7fb fd61 	bl	2cc8 <__aeabi_dcmplt>
    7206:	2800      	cmp	r0, #0
    7208:	d001      	beq.n	720e <_dtoa_r+0x2ba>
    720a:	f000 fdc2 	bl	7d92 <_dtoa_r+0xe3e>
    720e:	4640      	mov	r0, r8
    7210:	f7fd fe5c 	bl	4ecc <__aeabi_i2d>
    7214:	0032      	movs	r2, r6
    7216:	003b      	movs	r3, r7
    7218:	f7fd f86e 	bl	42f8 <__aeabi_dmul>
    721c:	2200      	movs	r2, #0
    721e:	4b43      	ldr	r3, [pc, #268]	; (732c <_dtoa_r+0x3d8>)
    7220:	f7fc f926 	bl	3470 <__aeabi_dadd>
    7224:	4a42      	ldr	r2, [pc, #264]	; (7330 <_dtoa_r+0x3dc>)
    7226:	000b      	movs	r3, r1
    7228:	4694      	mov	ip, r2
    722a:	4463      	add	r3, ip
    722c:	9008      	str	r0, [sp, #32]
    722e:	9109      	str	r1, [sp, #36]	; 0x24
    7230:	9309      	str	r3, [sp, #36]	; 0x24
    7232:	9b07      	ldr	r3, [sp, #28]
    7234:	2b00      	cmp	r3, #0
    7236:	d101      	bne.n	723c <_dtoa_r+0x2e8>
    7238:	f000 fc50 	bl	7adc <_dtoa_r+0xb88>
    723c:	9b03      	ldr	r3, [sp, #12]
    723e:	9313      	str	r3, [sp, #76]	; 0x4c
    7240:	9b07      	ldr	r3, [sp, #28]
    7242:	9312      	str	r3, [sp, #72]	; 0x48
    7244:	9b0b      	ldr	r3, [sp, #44]	; 0x2c
    7246:	2b00      	cmp	r3, #0
    7248:	d101      	bne.n	724e <_dtoa_r+0x2fa>
    724a:	f000 fd1d 	bl	7c88 <_dtoa_r+0xd34>
    724e:	9b12      	ldr	r3, [sp, #72]	; 0x48
    7250:	2000      	movs	r0, #0
    7252:	1e5a      	subs	r2, r3, #1
    7254:	4b33      	ldr	r3, [pc, #204]	; (7324 <_dtoa_r+0x3d0>)
    7256:	00d2      	lsls	r2, r2, #3
    7258:	189b      	adds	r3, r3, r2
    725a:	681a      	ldr	r2, [r3, #0]
    725c:	685b      	ldr	r3, [r3, #4]
    725e:	4935      	ldr	r1, [pc, #212]	; (7334 <_dtoa_r+0x3e0>)
    7260:	f7fc fc16 	bl	3a90 <__aeabi_ddiv>
    7264:	9a08      	ldr	r2, [sp, #32]
    7266:	9b09      	ldr	r3, [sp, #36]	; 0x24
    7268:	f7fd fac6 	bl	47f8 <__aeabi_dsub>
    726c:	9008      	str	r0, [sp, #32]
    726e:	9109      	str	r1, [sp, #36]	; 0x24
    7270:	0039      	movs	r1, r7
    7272:	0030      	movs	r0, r6
    7274:	f7fd fdf6 	bl	4e64 <__aeabi_d2iz>
    7278:	0004      	movs	r4, r0
    727a:	f7fd fe27 	bl	4ecc <__aeabi_i2d>
    727e:	0002      	movs	r2, r0
    7280:	000b      	movs	r3, r1
    7282:	0030      	movs	r0, r6
    7284:	0039      	movs	r1, r7
    7286:	f7fd fab7 	bl	47f8 <__aeabi_dsub>
    728a:	0005      	movs	r5, r0
    728c:	000e      	movs	r6, r1
    728e:	9a0a      	ldr	r2, [sp, #40]	; 0x28
    7290:	3430      	adds	r4, #48	; 0x30
    7292:	1c51      	adds	r1, r2, #1
    7294:	b2e7      	uxtb	r7, r4
    7296:	9114      	str	r1, [sp, #80]	; 0x50
    7298:	7017      	strb	r7, [r2, #0]
    729a:	0033      	movs	r3, r6
    729c:	9808      	ldr	r0, [sp, #32]
    729e:	9909      	ldr	r1, [sp, #36]	; 0x24
    72a0:	002a      	movs	r2, r5
    72a2:	f7fb fd25 	bl	2cf0 <__aeabi_dcmpgt>
    72a6:	2800      	cmp	r0, #0
    72a8:	d001      	beq.n	72ae <_dtoa_r+0x35a>
    72aa:	f000 fdfe 	bl	7eaa <_dtoa_r+0xf56>
    72ae:	002a      	movs	r2, r5
    72b0:	0033      	movs	r3, r6
    72b2:	2000      	movs	r0, #0
    72b4:	4912      	ldr	r1, [pc, #72]	; (7300 <_dtoa_r+0x3ac>)
    72b6:	f7fd fa9f 	bl	47f8 <__aeabi_dsub>
    72ba:	0002      	movs	r2, r0
    72bc:	000b      	movs	r3, r1
    72be:	9808      	ldr	r0, [sp, #32]
    72c0:	9909      	ldr	r1, [sp, #36]	; 0x24
    72c2:	f7fb fd15 	bl	2cf0 <__aeabi_dcmpgt>
    72c6:	2800      	cmp	r0, #0
    72c8:	d001      	beq.n	72ce <_dtoa_r+0x37a>
    72ca:	f000 fde7 	bl	7e9c <_dtoa_r+0xf48>
    72ce:	9b12      	ldr	r3, [sp, #72]	; 0x48
    72d0:	2b01      	cmp	r3, #1
    72d2:	d101      	bne.n	72d8 <_dtoa_r+0x384>
    72d4:	f000 fc78 	bl	7bc8 <_dtoa_r+0xc74>
    72d8:	9a0a      	ldr	r2, [sp, #40]	; 0x28
    72da:	9b12      	ldr	r3, [sp, #72]	; 0x48
    72dc:	4694      	mov	ip, r2
    72de:	4463      	add	r3, ip
    72e0:	4698      	mov	r8, r3
    72e2:	464b      	mov	r3, r9
    72e4:	9312      	str	r3, [sp, #72]	; 0x48
    72e6:	9b14      	ldr	r3, [sp, #80]	; 0x50
    72e8:	4699      	mov	r9, r3
    72ea:	e038      	b.n	735e <_dtoa_r+0x40a>
    72ec:	7ff00000 	.word	0x7ff00000
    72f0:	0000a509 	.word	0x0000a509
    72f4:	0000270f 	.word	0x0000270f
    72f8:	0000a52c 	.word	0x0000a52c
    72fc:	0000a538 	.word	0x0000a538
    7300:	3ff00000 	.word	0x3ff00000
    7304:	fffffc01 	.word	0xfffffc01
    7308:	3ff80000 	.word	0x3ff80000
    730c:	636f4361 	.word	0x636f4361
    7310:	3fd287a7 	.word	0x3fd287a7
    7314:	8b60c8b3 	.word	0x8b60c8b3
    7318:	3fc68a28 	.word	0x3fc68a28
    731c:	509f79fb 	.word	0x509f79fb
    7320:	3fd34413 	.word	0x3fd34413
    7324:	0000a568 	.word	0x0000a568
    7328:	0000a540 	.word	0x0000a540
    732c:	401c0000 	.word	0x401c0000
    7330:	fcc00000 	.word	0xfcc00000
    7334:	3fe00000 	.word	0x3fe00000
    7338:	002a      	movs	r2, r5
    733a:	0033      	movs	r3, r6
    733c:	2000      	movs	r0, #0
    733e:	49b9      	ldr	r1, [pc, #740]	; (7624 <_dtoa_r+0x6d0>)
    7340:	f7fd fa5a 	bl	47f8 <__aeabi_dsub>
    7344:	9a08      	ldr	r2, [sp, #32]
    7346:	9b09      	ldr	r3, [sp, #36]	; 0x24
    7348:	f7fb fcbe 	bl	2cc8 <__aeabi_dcmplt>
    734c:	2800      	cmp	r0, #0
    734e:	d001      	beq.n	7354 <_dtoa_r+0x400>
    7350:	f000 fd74 	bl	7e3c <_dtoa_r+0xee8>
    7354:	46a1      	mov	r9, r4
    7356:	4544      	cmp	r4, r8
    7358:	d101      	bne.n	735e <_dtoa_r+0x40a>
    735a:	f000 fc33 	bl	7bc4 <_dtoa_r+0xc70>
    735e:	9808      	ldr	r0, [sp, #32]
    7360:	9909      	ldr	r1, [sp, #36]	; 0x24
    7362:	2200      	movs	r2, #0
    7364:	4bb0      	ldr	r3, [pc, #704]	; (7628 <_dtoa_r+0x6d4>)
    7366:	f7fc ffc7 	bl	42f8 <__aeabi_dmul>
    736a:	2200      	movs	r2, #0
    736c:	4bae      	ldr	r3, [pc, #696]	; (7628 <_dtoa_r+0x6d4>)
    736e:	9008      	str	r0, [sp, #32]
    7370:	9109      	str	r1, [sp, #36]	; 0x24
    7372:	0028      	movs	r0, r5
    7374:	0031      	movs	r1, r6
    7376:	f7fc ffbf 	bl	42f8 <__aeabi_dmul>
    737a:	000d      	movs	r5, r1
    737c:	0004      	movs	r4, r0
    737e:	f7fd fd71 	bl	4e64 <__aeabi_d2iz>
    7382:	0007      	movs	r7, r0
    7384:	f7fd fda2 	bl	4ecc <__aeabi_i2d>
    7388:	0002      	movs	r2, r0
    738a:	000b      	movs	r3, r1
    738c:	0020      	movs	r0, r4
    738e:	0029      	movs	r1, r5
    7390:	f7fd fa32 	bl	47f8 <__aeabi_dsub>
    7394:	464b      	mov	r3, r9
    7396:	3730      	adds	r7, #48	; 0x30
    7398:	b2ff      	uxtb	r7, r7
    739a:	1c5c      	adds	r4, r3, #1
    739c:	701f      	strb	r7, [r3, #0]
    739e:	9a08      	ldr	r2, [sp, #32]
    73a0:	9b09      	ldr	r3, [sp, #36]	; 0x24
    73a2:	0005      	movs	r5, r0
    73a4:	000e      	movs	r6, r1
    73a6:	f7fb fc8f 	bl	2cc8 <__aeabi_dcmplt>
    73aa:	2800      	cmp	r0, #0
    73ac:	d0c4      	beq.n	7338 <_dtoa_r+0x3e4>
    73ae:	9b13      	ldr	r3, [sp, #76]	; 0x4c
    73b0:	9303      	str	r3, [sp, #12]
    73b2:	4659      	mov	r1, fp
    73b4:	4650      	mov	r0, sl
    73b6:	f001 fe19 	bl	8fec <_Bfree>
    73ba:	2300      	movs	r3, #0
    73bc:	7023      	strb	r3, [r4, #0]
    73be:	9b03      	ldr	r3, [sp, #12]
    73c0:	9a24      	ldr	r2, [sp, #144]	; 0x90
    73c2:	3301      	adds	r3, #1
    73c4:	6013      	str	r3, [r2, #0]
    73c6:	9b26      	ldr	r3, [sp, #152]	; 0x98
    73c8:	2b00      	cmp	r3, #0
    73ca:	d100      	bne.n	73ce <_dtoa_r+0x47a>
    73cc:	e3a8      	b.n	7b20 <_dtoa_r+0xbcc>
    73ce:	601c      	str	r4, [r3, #0]
    73d0:	980a      	ldr	r0, [sp, #40]	; 0x28
    73d2:	e5f4      	b.n	6fbe <_dtoa_r+0x6a>
    73d4:	9b16      	ldr	r3, [sp, #88]	; 0x58
    73d6:	4699      	mov	r9, r3
    73d8:	9b17      	ldr	r3, [sp, #92]	; 0x5c
    73da:	444b      	add	r3, r9
    73dc:	001c      	movs	r4, r3
    73de:	4b93      	ldr	r3, [pc, #588]	; (762c <_dtoa_r+0x6d8>)
    73e0:	18e3      	adds	r3, r4, r3
    73e2:	2b20      	cmp	r3, #32
    73e4:	dc00      	bgt.n	73e8 <_dtoa_r+0x494>
    73e6:	e17e      	b.n	76e6 <_dtoa_r+0x792>
    73e8:	0031      	movs	r1, r6
    73ea:	4a91      	ldr	r2, [pc, #580]	; (7630 <_dtoa_r+0x6dc>)
    73ec:	4640      	mov	r0, r8
    73ee:	18a2      	adds	r2, r4, r2
    73f0:	40d1      	lsrs	r1, r2
    73f2:	000a      	movs	r2, r1
    73f4:	2140      	movs	r1, #64	; 0x40
    73f6:	1acb      	subs	r3, r1, r3
    73f8:	4098      	lsls	r0, r3
    73fa:	4310      	orrs	r0, r2
    73fc:	f7fd fda8 	bl	4f50 <__aeabi_ui2d>
    7400:	1e63      	subs	r3, r4, #1
    7402:	4698      	mov	r8, r3
    7404:	2301      	movs	r3, #1
    7406:	4d8b      	ldr	r5, [pc, #556]	; (7634 <_dtoa_r+0x6e0>)
    7408:	930f      	str	r3, [sp, #60]	; 0x3c
    740a:	1949      	adds	r1, r1, r5
    740c:	e618      	b.n	7040 <_dtoa_r+0xec>
    740e:	488a      	ldr	r0, [pc, #552]	; (7638 <_dtoa_r+0x6e4>)
    7410:	e5d5      	b.n	6fbe <_dtoa_r+0x6a>
    7412:	2300      	movs	r3, #0
    7414:	4652      	mov	r2, sl
    7416:	2100      	movs	r1, #0
    7418:	6453      	str	r3, [r2, #68]	; 0x44
    741a:	4650      	mov	r0, sl
    741c:	f001 fdbe 	bl	8f9c <_Balloc>
    7420:	4653      	mov	r3, sl
    7422:	6418      	str	r0, [r3, #64]	; 0x40
    7424:	2301      	movs	r3, #1
    7426:	425b      	negs	r3, r3
    7428:	9307      	str	r3, [sp, #28]
    742a:	930e      	str	r3, [sp, #56]	; 0x38
    742c:	3302      	adds	r3, #2
    742e:	2200      	movs	r2, #0
    7430:	930b      	str	r3, [sp, #44]	; 0x2c
    7432:	2300      	movs	r3, #0
    7434:	900a      	str	r0, [sp, #40]	; 0x28
    7436:	9223      	str	r2, [sp, #140]	; 0x8c
    7438:	9322      	str	r3, [sp, #136]	; 0x88
    743a:	9b17      	ldr	r3, [sp, #92]	; 0x5c
    743c:	2b00      	cmp	r3, #0
    743e:	da00      	bge.n	7442 <_dtoa_r+0x4ee>
    7440:	e0ab      	b.n	759a <_dtoa_r+0x646>
    7442:	9a03      	ldr	r2, [sp, #12]
    7444:	2a0e      	cmp	r2, #14
    7446:	dd00      	ble.n	744a <_dtoa_r+0x4f6>
    7448:	e0a7      	b.n	759a <_dtoa_r+0x646>
    744a:	4b7c      	ldr	r3, [pc, #496]	; (763c <_dtoa_r+0x6e8>)
    744c:	00d2      	lsls	r2, r2, #3
    744e:	189b      	adds	r3, r3, r2
    7450:	685c      	ldr	r4, [r3, #4]
    7452:	681b      	ldr	r3, [r3, #0]
    7454:	9304      	str	r3, [sp, #16]
    7456:	9405      	str	r4, [sp, #20]
    7458:	9b23      	ldr	r3, [sp, #140]	; 0x8c
    745a:	2b00      	cmp	r3, #0
    745c:	da00      	bge.n	7460 <_dtoa_r+0x50c>
    745e:	e2a7      	b.n	79b0 <_dtoa_r+0xa5c>
    7460:	9c04      	ldr	r4, [sp, #16]
    7462:	9d05      	ldr	r5, [sp, #20]
    7464:	0030      	movs	r0, r6
    7466:	0022      	movs	r2, r4
    7468:	002b      	movs	r3, r5
    746a:	0039      	movs	r1, r7
    746c:	f7fc fb10 	bl	3a90 <__aeabi_ddiv>
    7470:	f7fd fcf8 	bl	4e64 <__aeabi_d2iz>
    7474:	4680      	mov	r8, r0
    7476:	f7fd fd29 	bl	4ecc <__aeabi_i2d>
    747a:	0022      	movs	r2, r4
    747c:	002b      	movs	r3, r5
    747e:	f7fc ff3b 	bl	42f8 <__aeabi_dmul>
    7482:	0002      	movs	r2, r0
    7484:	000b      	movs	r3, r1
    7486:	0030      	movs	r0, r6
    7488:	0039      	movs	r1, r7
    748a:	f7fd f9b5 	bl	47f8 <__aeabi_dsub>
    748e:	4643      	mov	r3, r8
    7490:	9a0a      	ldr	r2, [sp, #40]	; 0x28
    7492:	3330      	adds	r3, #48	; 0x30
    7494:	7013      	strb	r3, [r2, #0]
    7496:	9b07      	ldr	r3, [sp, #28]
    7498:	0006      	movs	r6, r0
    749a:	000f      	movs	r7, r1
    749c:	1c54      	adds	r4, r2, #1
    749e:	2b01      	cmp	r3, #1
    74a0:	d04e      	beq.n	7540 <_dtoa_r+0x5ec>
    74a2:	2200      	movs	r2, #0
    74a4:	4b60      	ldr	r3, [pc, #384]	; (7628 <_dtoa_r+0x6d4>)
    74a6:	f7fc ff27 	bl	42f8 <__aeabi_dmul>
    74aa:	2200      	movs	r2, #0
    74ac:	2300      	movs	r3, #0
    74ae:	0006      	movs	r6, r0
    74b0:	000f      	movs	r7, r1
    74b2:	f7fb fc03 	bl	2cbc <__aeabi_dcmpeq>
    74b6:	2800      	cmp	r0, #0
    74b8:	d000      	beq.n	74bc <_dtoa_r+0x568>
    74ba:	e77a      	b.n	73b2 <_dtoa_r+0x45e>
    74bc:	9b0a      	ldr	r3, [sp, #40]	; 0x28
    74be:	9a07      	ldr	r2, [sp, #28]
    74c0:	1c9d      	adds	r5, r3, #2
    74c2:	469c      	mov	ip, r3
    74c4:	465b      	mov	r3, fp
    74c6:	9306      	str	r3, [sp, #24]
    74c8:	4653      	mov	r3, sl
    74ca:	4462      	add	r2, ip
    74cc:	46aa      	mov	sl, r5
    74ce:	9c04      	ldr	r4, [sp, #16]
    74d0:	9d05      	ldr	r5, [sp, #20]
    74d2:	4691      	mov	r9, r2
    74d4:	9307      	str	r3, [sp, #28]
    74d6:	e00f      	b.n	74f8 <_dtoa_r+0x5a4>
    74d8:	2200      	movs	r2, #0
    74da:	4b53      	ldr	r3, [pc, #332]	; (7628 <_dtoa_r+0x6d4>)
    74dc:	f7fc ff0c 	bl	42f8 <__aeabi_dmul>
    74e0:	2301      	movs	r3, #1
    74e2:	469c      	mov	ip, r3
    74e4:	2200      	movs	r2, #0
    74e6:	2300      	movs	r3, #0
    74e8:	0006      	movs	r6, r0
    74ea:	000f      	movs	r7, r1
    74ec:	44e2      	add	sl, ip
    74ee:	f7fb fbe5 	bl	2cbc <__aeabi_dcmpeq>
    74f2:	2800      	cmp	r0, #0
    74f4:	d000      	beq.n	74f8 <_dtoa_r+0x5a4>
    74f6:	e2d9      	b.n	7aac <_dtoa_r+0xb58>
    74f8:	0022      	movs	r2, r4
    74fa:	002b      	movs	r3, r5
    74fc:	0030      	movs	r0, r6
    74fe:	0039      	movs	r1, r7
    7500:	f7fc fac6 	bl	3a90 <__aeabi_ddiv>
    7504:	f7fd fcae 	bl	4e64 <__aeabi_d2iz>
    7508:	4680      	mov	r8, r0
    750a:	f7fd fcdf 	bl	4ecc <__aeabi_i2d>
    750e:	0022      	movs	r2, r4
    7510:	002b      	movs	r3, r5
    7512:	f7fc fef1 	bl	42f8 <__aeabi_dmul>
    7516:	0002      	movs	r2, r0
    7518:	000b      	movs	r3, r1
    751a:	0030      	movs	r0, r6
    751c:	0039      	movs	r1, r7
    751e:	f7fd f96b 	bl	47f8 <__aeabi_dsub>
    7522:	4653      	mov	r3, sl
    7524:	4642      	mov	r2, r8
    7526:	3b01      	subs	r3, #1
    7528:	3230      	adds	r2, #48	; 0x30
    752a:	0006      	movs	r6, r0
    752c:	000f      	movs	r7, r1
    752e:	46d3      	mov	fp, sl
    7530:	701a      	strb	r2, [r3, #0]
    7532:	45d1      	cmp	r9, sl
    7534:	d1d0      	bne.n	74d8 <_dtoa_r+0x584>
    7536:	9b06      	ldr	r3, [sp, #24]
    7538:	4654      	mov	r4, sl
    753a:	469b      	mov	fp, r3
    753c:	9b07      	ldr	r3, [sp, #28]
    753e:	469a      	mov	sl, r3
    7540:	0032      	movs	r2, r6
    7542:	003b      	movs	r3, r7
    7544:	0030      	movs	r0, r6
    7546:	0039      	movs	r1, r7
    7548:	f7fb ff92 	bl	3470 <__aeabi_dadd>
    754c:	0006      	movs	r6, r0
    754e:	000f      	movs	r7, r1
    7550:	0002      	movs	r2, r0
    7552:	000b      	movs	r3, r1
    7554:	9804      	ldr	r0, [sp, #16]
    7556:	9905      	ldr	r1, [sp, #20]
    7558:	f7fb fbb6 	bl	2cc8 <__aeabi_dcmplt>
    755c:	2800      	cmp	r0, #0
    755e:	d10c      	bne.n	757a <_dtoa_r+0x626>
    7560:	9804      	ldr	r0, [sp, #16]
    7562:	9905      	ldr	r1, [sp, #20]
    7564:	0032      	movs	r2, r6
    7566:	003b      	movs	r3, r7
    7568:	f7fb fba8 	bl	2cbc <__aeabi_dcmpeq>
    756c:	2800      	cmp	r0, #0
    756e:	d100      	bne.n	7572 <_dtoa_r+0x61e>
    7570:	e71f      	b.n	73b2 <_dtoa_r+0x45e>
    7572:	4643      	mov	r3, r8
    7574:	07db      	lsls	r3, r3, #31
    7576:	d400      	bmi.n	757a <_dtoa_r+0x626>
    7578:	e71b      	b.n	73b2 <_dtoa_r+0x45e>
    757a:	1e65      	subs	r5, r4, #1
    757c:	782f      	ldrb	r7, [r5, #0]
    757e:	9b0a      	ldr	r3, [sp, #40]	; 0x28
    7580:	e006      	b.n	7590 <_dtoa_r+0x63c>
    7582:	429d      	cmp	r5, r3
    7584:	d100      	bne.n	7588 <_dtoa_r+0x634>
    7586:	e351      	b.n	7c2c <_dtoa_r+0xcd8>
    7588:	3c02      	subs	r4, #2
    758a:	7827      	ldrb	r7, [r4, #0]
    758c:	002c      	movs	r4, r5
    758e:	3d01      	subs	r5, #1
    7590:	2f39      	cmp	r7, #57	; 0x39
    7592:	d0f6      	beq.n	7582 <_dtoa_r+0x62e>
    7594:	3701      	adds	r7, #1
    7596:	702f      	strb	r7, [r5, #0]
    7598:	e70b      	b.n	73b2 <_dtoa_r+0x45e>
    759a:	9a0b      	ldr	r2, [sp, #44]	; 0x2c
    759c:	2a00      	cmp	r2, #0
    759e:	d04f      	beq.n	7640 <_dtoa_r+0x6ec>
    75a0:	9a22      	ldr	r2, [sp, #136]	; 0x88
    75a2:	2a01      	cmp	r2, #1
    75a4:	dc00      	bgt.n	75a8 <_dtoa_r+0x654>
    75a6:	e22c      	b.n	7a02 <_dtoa_r+0xaae>
    75a8:	9b07      	ldr	r3, [sp, #28]
    75aa:	1e5c      	subs	r4, r3, #1
    75ac:	464b      	mov	r3, r9
    75ae:	45a1      	cmp	r9, r4
    75b0:	da00      	bge.n	75b4 <_dtoa_r+0x660>
    75b2:	e2b8      	b.n	7b26 <_dtoa_r+0xbd2>
    75b4:	1b1c      	subs	r4, r3, r4
    75b6:	9b07      	ldr	r3, [sp, #28]
    75b8:	2b00      	cmp	r3, #0
    75ba:	da00      	bge.n	75be <_dtoa_r+0x66a>
    75bc:	e3d4      	b.n	7d68 <_dtoa_r+0xe14>
    75be:	9b06      	ldr	r3, [sp, #24]
    75c0:	9308      	str	r3, [sp, #32]
    75c2:	9b07      	ldr	r3, [sp, #28]
    75c4:	9a06      	ldr	r2, [sp, #24]
    75c6:	2101      	movs	r1, #1
    75c8:	4694      	mov	ip, r2
    75ca:	449c      	add	ip, r3
    75cc:	4662      	mov	r2, ip
    75ce:	9206      	str	r2, [sp, #24]
    75d0:	9a04      	ldr	r2, [sp, #16]
    75d2:	4650      	mov	r0, sl
    75d4:	4694      	mov	ip, r2
    75d6:	449c      	add	ip, r3
    75d8:	4663      	mov	r3, ip
    75da:	9304      	str	r3, [sp, #16]
    75dc:	f001 fd9e 	bl	911c <__i2b>
    75e0:	4680      	mov	r8, r0
    75e2:	e032      	b.n	764a <_dtoa_r+0x6f6>
    75e4:	9a06      	ldr	r2, [sp, #24]
    75e6:	9b03      	ldr	r3, [sp, #12]
    75e8:	1ad2      	subs	r2, r2, r3
    75ea:	425b      	negs	r3, r3
    75ec:	4699      	mov	r9, r3
    75ee:	2300      	movs	r3, #0
    75f0:	9206      	str	r2, [sp, #24]
    75f2:	930d      	str	r3, [sp, #52]	; 0x34
    75f4:	e579      	b.n	70ea <_dtoa_r+0x196>
    75f6:	9803      	ldr	r0, [sp, #12]
    75f8:	f7fd fc68 	bl	4ecc <__aeabi_i2d>
    75fc:	000b      	movs	r3, r1
    75fe:	0002      	movs	r2, r0
    7600:	0029      	movs	r1, r5
    7602:	0020      	movs	r0, r4
    7604:	f7fb fb5a 	bl	2cbc <__aeabi_dcmpeq>
    7608:	0002      	movs	r2, r0
    760a:	4250      	negs	r0, r2
    760c:	4150      	adcs	r0, r2
    760e:	9b03      	ldr	r3, [sp, #12]
    7610:	1a1b      	subs	r3, r3, r0
    7612:	9303      	str	r3, [sp, #12]
    7614:	e53d      	b.n	7092 <_dtoa_r+0x13e>
    7616:	2301      	movs	r3, #1
    7618:	1a9b      	subs	r3, r3, r2
    761a:	9306      	str	r3, [sp, #24]
    761c:	2300      	movs	r3, #0
    761e:	9304      	str	r3, [sp, #16]
    7620:	e557      	b.n	70d2 <_dtoa_r+0x17e>
    7622:	46c0      	nop			; (mov r8, r8)
    7624:	3ff00000 	.word	0x3ff00000
    7628:	40240000 	.word	0x40240000
    762c:	00000432 	.word	0x00000432
    7630:	00000412 	.word	0x00000412
    7634:	fe100000 	.word	0xfe100000
    7638:	0000a508 	.word	0x0000a508
    763c:	0000a568 	.word	0x0000a568
    7640:	9b06      	ldr	r3, [sp, #24]
    7642:	464c      	mov	r4, r9
    7644:	9308      	str	r3, [sp, #32]
    7646:	2300      	movs	r3, #0
    7648:	4698      	mov	r8, r3
    764a:	9908      	ldr	r1, [sp, #32]
    764c:	1e0b      	subs	r3, r1, #0
    764e:	dd0e      	ble.n	766e <_dtoa_r+0x71a>
    7650:	9a04      	ldr	r2, [sp, #16]
    7652:	2a00      	cmp	r2, #0
    7654:	dd0b      	ble.n	766e <_dtoa_r+0x71a>
    7656:	4293      	cmp	r3, r2
    7658:	dd00      	ble.n	765c <_dtoa_r+0x708>
    765a:	e187      	b.n	796c <_dtoa_r+0xa18>
    765c:	9a06      	ldr	r2, [sp, #24]
    765e:	1ad2      	subs	r2, r2, r3
    7660:	9206      	str	r2, [sp, #24]
    7662:	9a08      	ldr	r2, [sp, #32]
    7664:	1ad2      	subs	r2, r2, r3
    7666:	9208      	str	r2, [sp, #32]
    7668:	9a04      	ldr	r2, [sp, #16]
    766a:	1ad3      	subs	r3, r2, r3
    766c:	9304      	str	r3, [sp, #16]
    766e:	464b      	mov	r3, r9
    7670:	2b00      	cmp	r3, #0
    7672:	d01a      	beq.n	76aa <_dtoa_r+0x756>
    7674:	9b0b      	ldr	r3, [sp, #44]	; 0x2c
    7676:	2b00      	cmp	r3, #0
    7678:	d100      	bne.n	767c <_dtoa_r+0x728>
    767a:	e1bb      	b.n	79f4 <_dtoa_r+0xaa0>
    767c:	2c00      	cmp	r4, #0
    767e:	dd10      	ble.n	76a2 <_dtoa_r+0x74e>
    7680:	4641      	mov	r1, r8
    7682:	0022      	movs	r2, r4
    7684:	4650      	mov	r0, sl
    7686:	f001 fdfd 	bl	9284 <__pow5mult>
    768a:	465a      	mov	r2, fp
    768c:	0001      	movs	r1, r0
    768e:	4680      	mov	r8, r0
    7690:	4650      	mov	r0, sl
    7692:	f001 fd4d 	bl	9130 <__multiply>
    7696:	0005      	movs	r5, r0
    7698:	4659      	mov	r1, fp
    769a:	4650      	mov	r0, sl
    769c:	f001 fca6 	bl	8fec <_Bfree>
    76a0:	46ab      	mov	fp, r5
    76a2:	464b      	mov	r3, r9
    76a4:	1b1a      	subs	r2, r3, r4
    76a6:	d000      	beq.n	76aa <_dtoa_r+0x756>
    76a8:	e1a5      	b.n	79f6 <_dtoa_r+0xaa2>
    76aa:	2101      	movs	r1, #1
    76ac:	4650      	mov	r0, sl
    76ae:	f001 fd35 	bl	911c <__i2b>
    76b2:	9b0d      	ldr	r3, [sp, #52]	; 0x34
    76b4:	4681      	mov	r9, r0
    76b6:	2b00      	cmp	r3, #0
    76b8:	dd1d      	ble.n	76f6 <_dtoa_r+0x7a2>
    76ba:	001a      	movs	r2, r3
    76bc:	0001      	movs	r1, r0
    76be:	4650      	mov	r0, sl
    76c0:	f001 fde0 	bl	9284 <__pow5mult>
    76c4:	9b22      	ldr	r3, [sp, #136]	; 0x88
    76c6:	4681      	mov	r9, r0
    76c8:	2b01      	cmp	r3, #1
    76ca:	dc00      	bgt.n	76ce <_dtoa_r+0x77a>
    76cc:	e150      	b.n	7970 <_dtoa_r+0xa1c>
    76ce:	2400      	movs	r4, #0
    76d0:	464b      	mov	r3, r9
    76d2:	691b      	ldr	r3, [r3, #16]
    76d4:	3303      	adds	r3, #3
    76d6:	009b      	lsls	r3, r3, #2
    76d8:	444b      	add	r3, r9
    76da:	6858      	ldr	r0, [r3, #4]
    76dc:	f001 fcd6 	bl	908c <__hi0bits>
    76e0:	2320      	movs	r3, #32
    76e2:	1a1b      	subs	r3, r3, r0
    76e4:	e010      	b.n	7708 <_dtoa_r+0x7b4>
    76e6:	2220      	movs	r2, #32
    76e8:	0030      	movs	r0, r6
    76ea:	1ad3      	subs	r3, r2, r3
    76ec:	4098      	lsls	r0, r3
    76ee:	e685      	b.n	73fc <_dtoa_r+0x4a8>
    76f0:	2300      	movs	r3, #0
    76f2:	930c      	str	r3, [sp, #48]	; 0x30
    76f4:	e4e3      	b.n	70be <_dtoa_r+0x16a>
    76f6:	9b22      	ldr	r3, [sp, #136]	; 0x88
    76f8:	2400      	movs	r4, #0
    76fa:	2b01      	cmp	r3, #1
    76fc:	dc00      	bgt.n	7700 <_dtoa_r+0x7ac>
    76fe:	e18b      	b.n	7a18 <_dtoa_r+0xac4>
    7700:	9a0d      	ldr	r2, [sp, #52]	; 0x34
    7702:	2301      	movs	r3, #1
    7704:	2a00      	cmp	r2, #0
    7706:	d1e3      	bne.n	76d0 <_dtoa_r+0x77c>
    7708:	9904      	ldr	r1, [sp, #16]
    770a:	201f      	movs	r0, #31
    770c:	468c      	mov	ip, r1
    770e:	4463      	add	r3, ip
    7710:	4018      	ands	r0, r3
    7712:	d100      	bne.n	7716 <_dtoa_r+0x7c2>
    7714:	e0ae      	b.n	7874 <_dtoa_r+0x920>
    7716:	2320      	movs	r3, #32
    7718:	1a1b      	subs	r3, r3, r0
    771a:	2b04      	cmp	r3, #4
    771c:	dc00      	bgt.n	7720 <_dtoa_r+0x7cc>
    771e:	e3cc      	b.n	7eba <_dtoa_r+0xf66>
    7720:	231c      	movs	r3, #28
    7722:	1a18      	subs	r0, r3, r0
    7724:	9b06      	ldr	r3, [sp, #24]
    7726:	469c      	mov	ip, r3
    7728:	4484      	add	ip, r0
    772a:	4663      	mov	r3, ip
    772c:	9306      	str	r3, [sp, #24]
    772e:	9b08      	ldr	r3, [sp, #32]
    7730:	469c      	mov	ip, r3
    7732:	4484      	add	ip, r0
    7734:	4663      	mov	r3, ip
    7736:	468c      	mov	ip, r1
    7738:	4484      	add	ip, r0
    773a:	9308      	str	r3, [sp, #32]
    773c:	4663      	mov	r3, ip
    773e:	9304      	str	r3, [sp, #16]
    7740:	9b06      	ldr	r3, [sp, #24]
    7742:	2b00      	cmp	r3, #0
    7744:	dd05      	ble.n	7752 <_dtoa_r+0x7fe>
    7746:	4659      	mov	r1, fp
    7748:	001a      	movs	r2, r3
    774a:	4650      	mov	r0, sl
    774c:	f001 fdfa 	bl	9344 <__lshift>
    7750:	4683      	mov	fp, r0
    7752:	9b04      	ldr	r3, [sp, #16]
    7754:	2b00      	cmp	r3, #0
    7756:	dd05      	ble.n	7764 <_dtoa_r+0x810>
    7758:	4649      	mov	r1, r9
    775a:	001a      	movs	r2, r3
    775c:	4650      	mov	r0, sl
    775e:	f001 fdf1 	bl	9344 <__lshift>
    7762:	4681      	mov	r9, r0
    7764:	9b0c      	ldr	r3, [sp, #48]	; 0x30
    7766:	2b00      	cmp	r3, #0
    7768:	d000      	beq.n	776c <_dtoa_r+0x818>
    776a:	e094      	b.n	7896 <_dtoa_r+0x942>
    776c:	9b07      	ldr	r3, [sp, #28]
    776e:	2b00      	cmp	r3, #0
    7770:	dc00      	bgt.n	7774 <_dtoa_r+0x820>
    7772:	e175      	b.n	7a60 <_dtoa_r+0xb0c>
    7774:	9b0b      	ldr	r3, [sp, #44]	; 0x2c
    7776:	2b00      	cmp	r3, #0
    7778:	d100      	bne.n	777c <_dtoa_r+0x828>
    777a:	e0a6      	b.n	78ca <_dtoa_r+0x976>
    777c:	9b08      	ldr	r3, [sp, #32]
    777e:	2b00      	cmp	r3, #0
    7780:	dd05      	ble.n	778e <_dtoa_r+0x83a>
    7782:	4641      	mov	r1, r8
    7784:	001a      	movs	r2, r3
    7786:	4650      	mov	r0, sl
    7788:	f001 fddc 	bl	9344 <__lshift>
    778c:	4680      	mov	r8, r0
    778e:	4643      	mov	r3, r8
    7790:	930c      	str	r3, [sp, #48]	; 0x30
    7792:	2c00      	cmp	r4, #0
    7794:	d000      	beq.n	7798 <_dtoa_r+0x844>
    7796:	e250      	b.n	7c3a <_dtoa_r+0xce6>
    7798:	9c07      	ldr	r4, [sp, #28]
    779a:	9a0a      	ldr	r2, [sp, #40]	; 0x28
    779c:	3c01      	subs	r4, #1
    779e:	0023      	movs	r3, r4
    77a0:	4694      	mov	ip, r2
    77a2:	4463      	add	r3, ip
    77a4:	9308      	str	r3, [sp, #32]
    77a6:	2301      	movs	r3, #1
    77a8:	4033      	ands	r3, r6
    77aa:	9307      	str	r3, [sp, #28]
    77ac:	464b      	mov	r3, r9
    77ae:	9306      	str	r3, [sp, #24]
    77b0:	9b0c      	ldr	r3, [sp, #48]	; 0x30
    77b2:	4657      	mov	r7, sl
    77b4:	4645      	mov	r5, r8
    77b6:	465e      	mov	r6, fp
    77b8:	4692      	mov	sl, r2
    77ba:	4698      	mov	r8, r3
    77bc:	9b06      	ldr	r3, [sp, #24]
    77be:	0030      	movs	r0, r6
    77c0:	0019      	movs	r1, r3
    77c2:	4699      	mov	r9, r3
    77c4:	f7ff fb1c 	bl	6e00 <quorem>
    77c8:	0003      	movs	r3, r0
    77ca:	900b      	str	r0, [sp, #44]	; 0x2c
    77cc:	3330      	adds	r3, #48	; 0x30
    77ce:	0029      	movs	r1, r5
    77d0:	0030      	movs	r0, r6
    77d2:	9304      	str	r3, [sp, #16]
    77d4:	f001 fe16 	bl	9404 <__mcmp>
    77d8:	4649      	mov	r1, r9
    77da:	0004      	movs	r4, r0
    77dc:	4642      	mov	r2, r8
    77de:	0038      	movs	r0, r7
    77e0:	f001 fe2a 	bl	9438 <__mdiff>
    77e4:	68c3      	ldr	r3, [r0, #12]
    77e6:	4681      	mov	r9, r0
    77e8:	2b00      	cmp	r3, #0
    77ea:	d000      	beq.n	77ee <_dtoa_r+0x89a>
    77ec:	e11e      	b.n	7a2c <_dtoa_r+0xad8>
    77ee:	0001      	movs	r1, r0
    77f0:	0030      	movs	r0, r6
    77f2:	f001 fe07 	bl	9404 <__mcmp>
    77f6:	4683      	mov	fp, r0
    77f8:	4649      	mov	r1, r9
    77fa:	0038      	movs	r0, r7
    77fc:	f001 fbf6 	bl	8fec <_Bfree>
    7800:	465b      	mov	r3, fp
    7802:	9a22      	ldr	r2, [sp, #136]	; 0x88
    7804:	4313      	orrs	r3, r2
    7806:	d103      	bne.n	7810 <_dtoa_r+0x8bc>
    7808:	9b07      	ldr	r3, [sp, #28]
    780a:	2b00      	cmp	r3, #0
    780c:	d100      	bne.n	7810 <_dtoa_r+0x8bc>
    780e:	e306      	b.n	7e1e <_dtoa_r+0xeca>
    7810:	2c00      	cmp	r4, #0
    7812:	da00      	bge.n	7816 <_dtoa_r+0x8c2>
    7814:	e1a8      	b.n	7b68 <_dtoa_r+0xc14>
    7816:	9b22      	ldr	r3, [sp, #136]	; 0x88
    7818:	431c      	orrs	r4, r3
    781a:	d103      	bne.n	7824 <_dtoa_r+0x8d0>
    781c:	9b07      	ldr	r3, [sp, #28]
    781e:	2b00      	cmp	r3, #0
    7820:	d100      	bne.n	7824 <_dtoa_r+0x8d0>
    7822:	e1a1      	b.n	7b68 <_dtoa_r+0xc14>
    7824:	465b      	mov	r3, fp
    7826:	2b00      	cmp	r3, #0
    7828:	dd00      	ble.n	782c <_dtoa_r+0x8d8>
    782a:	e282      	b.n	7d32 <_dtoa_r+0xdde>
    782c:	4669      	mov	r1, sp
    782e:	4652      	mov	r2, sl
    7830:	4653      	mov	r3, sl
    7832:	7c09      	ldrb	r1, [r1, #16]
    7834:	1c5c      	adds	r4, r3, #1
    7836:	7011      	strb	r1, [r2, #0]
    7838:	9a08      	ldr	r2, [sp, #32]
    783a:	4552      	cmp	r2, sl
    783c:	d100      	bne.n	7840 <_dtoa_r+0x8ec>
    783e:	e28a      	b.n	7d56 <_dtoa_r+0xe02>
    7840:	0031      	movs	r1, r6
    7842:	2300      	movs	r3, #0
    7844:	220a      	movs	r2, #10
    7846:	0038      	movs	r0, r7
    7848:	f001 fbda 	bl	9000 <__multadd>
    784c:	2300      	movs	r3, #0
    784e:	0006      	movs	r6, r0
    7850:	220a      	movs	r2, #10
    7852:	0029      	movs	r1, r5
    7854:	0038      	movs	r0, r7
    7856:	4545      	cmp	r5, r8
    7858:	d100      	bne.n	785c <_dtoa_r+0x908>
    785a:	e0e1      	b.n	7a20 <_dtoa_r+0xacc>
    785c:	f001 fbd0 	bl	9000 <__multadd>
    7860:	4641      	mov	r1, r8
    7862:	0005      	movs	r5, r0
    7864:	2300      	movs	r3, #0
    7866:	220a      	movs	r2, #10
    7868:	0038      	movs	r0, r7
    786a:	f001 fbc9 	bl	9000 <__multadd>
    786e:	46a2      	mov	sl, r4
    7870:	4680      	mov	r8, r0
    7872:	e7a3      	b.n	77bc <_dtoa_r+0x868>
    7874:	201c      	movs	r0, #28
    7876:	9b06      	ldr	r3, [sp, #24]
    7878:	469c      	mov	ip, r3
    787a:	4484      	add	ip, r0
    787c:	4663      	mov	r3, ip
    787e:	9306      	str	r3, [sp, #24]
    7880:	9b08      	ldr	r3, [sp, #32]
    7882:	469c      	mov	ip, r3
    7884:	4484      	add	ip, r0
    7886:	4663      	mov	r3, ip
    7888:	9308      	str	r3, [sp, #32]
    788a:	9b04      	ldr	r3, [sp, #16]
    788c:	469c      	mov	ip, r3
    788e:	4484      	add	ip, r0
    7890:	4663      	mov	r3, ip
    7892:	9304      	str	r3, [sp, #16]
    7894:	e754      	b.n	7740 <_dtoa_r+0x7ec>
    7896:	4649      	mov	r1, r9
    7898:	4658      	mov	r0, fp
    789a:	f001 fdb3 	bl	9404 <__mcmp>
    789e:	2800      	cmp	r0, #0
    78a0:	db00      	blt.n	78a4 <_dtoa_r+0x950>
    78a2:	e763      	b.n	776c <_dtoa_r+0x818>
    78a4:	9b03      	ldr	r3, [sp, #12]
    78a6:	4659      	mov	r1, fp
    78a8:	3b01      	subs	r3, #1
    78aa:	9303      	str	r3, [sp, #12]
    78ac:	220a      	movs	r2, #10
    78ae:	2300      	movs	r3, #0
    78b0:	4650      	mov	r0, sl
    78b2:	f001 fba5 	bl	9000 <__multadd>
    78b6:	9b0b      	ldr	r3, [sp, #44]	; 0x2c
    78b8:	4683      	mov	fp, r0
    78ba:	2b00      	cmp	r3, #0
    78bc:	d000      	beq.n	78c0 <_dtoa_r+0x96c>
    78be:	e2ca      	b.n	7e56 <_dtoa_r+0xf02>
    78c0:	9b0e      	ldr	r3, [sp, #56]	; 0x38
    78c2:	2b00      	cmp	r3, #0
    78c4:	dc00      	bgt.n	78c8 <_dtoa_r+0x974>
    78c6:	e2d8      	b.n	7e7a <_dtoa_r+0xf26>
    78c8:	9307      	str	r3, [sp, #28]
    78ca:	9b0a      	ldr	r3, [sp, #40]	; 0x28
    78cc:	465d      	mov	r5, fp
    78ce:	2400      	movs	r4, #0
    78d0:	9f07      	ldr	r7, [sp, #28]
    78d2:	469b      	mov	fp, r3
    78d4:	e006      	b.n	78e4 <_dtoa_r+0x990>
    78d6:	0029      	movs	r1, r5
    78d8:	2300      	movs	r3, #0
    78da:	220a      	movs	r2, #10
    78dc:	4650      	mov	r0, sl
    78de:	f001 fb8f 	bl	9000 <__multadd>
    78e2:	0005      	movs	r5, r0
    78e4:	4649      	mov	r1, r9
    78e6:	0028      	movs	r0, r5
    78e8:	f7ff fa8a 	bl	6e00 <quorem>
    78ec:	465b      	mov	r3, fp
    78ee:	3030      	adds	r0, #48	; 0x30
    78f0:	5518      	strb	r0, [r3, r4]
    78f2:	3401      	adds	r4, #1
    78f4:	42bc      	cmp	r4, r7
    78f6:	dbee      	blt.n	78d6 <_dtoa_r+0x982>
    78f8:	46ab      	mov	fp, r5
    78fa:	0006      	movs	r6, r0
    78fc:	9c07      	ldr	r4, [sp, #28]
    78fe:	2c00      	cmp	r4, #0
    7900:	dc00      	bgt.n	7904 <_dtoa_r+0x9b0>
    7902:	e237      	b.n	7d74 <_dtoa_r+0xe20>
    7904:	9b0a      	ldr	r3, [sp, #40]	; 0x28
    7906:	2700      	movs	r7, #0
    7908:	469c      	mov	ip, r3
    790a:	4464      	add	r4, ip
    790c:	4659      	mov	r1, fp
    790e:	2201      	movs	r2, #1
    7910:	4650      	mov	r0, sl
    7912:	f001 fd17 	bl	9344 <__lshift>
    7916:	4649      	mov	r1, r9
    7918:	4683      	mov	fp, r0
    791a:	f001 fd73 	bl	9404 <__mcmp>
    791e:	2800      	cmp	r0, #0
    7920:	dc00      	bgt.n	7924 <_dtoa_r+0x9d0>
    7922:	e144      	b.n	7bae <_dtoa_r+0xc5a>
    7924:	1e65      	subs	r5, r4, #1
    7926:	782b      	ldrb	r3, [r5, #0]
    7928:	9a0a      	ldr	r2, [sp, #40]	; 0x28
    792a:	e006      	b.n	793a <_dtoa_r+0x9e6>
    792c:	4295      	cmp	r5, r2
    792e:	d100      	bne.n	7932 <_dtoa_r+0x9de>
    7930:	e0b1      	b.n	7a96 <_dtoa_r+0xb42>
    7932:	3c02      	subs	r4, #2
    7934:	7823      	ldrb	r3, [r4, #0]
    7936:	002c      	movs	r4, r5
    7938:	3d01      	subs	r5, #1
    793a:	2b39      	cmp	r3, #57	; 0x39
    793c:	d0f6      	beq.n	792c <_dtoa_r+0x9d8>
    793e:	3301      	adds	r3, #1
    7940:	702b      	strb	r3, [r5, #0]
    7942:	4649      	mov	r1, r9
    7944:	4650      	mov	r0, sl
    7946:	f001 fb51 	bl	8fec <_Bfree>
    794a:	4643      	mov	r3, r8
    794c:	2b00      	cmp	r3, #0
    794e:	d100      	bne.n	7952 <_dtoa_r+0x9fe>
    7950:	e52f      	b.n	73b2 <_dtoa_r+0x45e>
    7952:	2f00      	cmp	r7, #0
    7954:	d005      	beq.n	7962 <_dtoa_r+0xa0e>
    7956:	4547      	cmp	r7, r8
    7958:	d003      	beq.n	7962 <_dtoa_r+0xa0e>
    795a:	0039      	movs	r1, r7
    795c:	4650      	mov	r0, sl
    795e:	f001 fb45 	bl	8fec <_Bfree>
    7962:	4641      	mov	r1, r8
    7964:	4650      	mov	r0, sl
    7966:	f001 fb41 	bl	8fec <_Bfree>
    796a:	e522      	b.n	73b2 <_dtoa_r+0x45e>
    796c:	0013      	movs	r3, r2
    796e:	e675      	b.n	765c <_dtoa_r+0x708>
    7970:	2e00      	cmp	r6, #0
    7972:	d000      	beq.n	7976 <_dtoa_r+0xa22>
    7974:	e6ab      	b.n	76ce <_dtoa_r+0x77a>
    7976:	033b      	lsls	r3, r7, #12
    7978:	2400      	movs	r4, #0
    797a:	2b00      	cmp	r3, #0
    797c:	d000      	beq.n	7980 <_dtoa_r+0xa2c>
    797e:	e6bf      	b.n	7700 <_dtoa_r+0x7ac>
    7980:	4bba      	ldr	r3, [pc, #744]	; (7c6c <_dtoa_r+0xd18>)
    7982:	423b      	tst	r3, r7
    7984:	d100      	bne.n	7988 <_dtoa_r+0xa34>
    7986:	e6bb      	b.n	7700 <_dtoa_r+0x7ac>
    7988:	9b06      	ldr	r3, [sp, #24]
    798a:	3401      	adds	r4, #1
    798c:	3301      	adds	r3, #1
    798e:	9306      	str	r3, [sp, #24]
    7990:	9b04      	ldr	r3, [sp, #16]
    7992:	3301      	adds	r3, #1
    7994:	9304      	str	r3, [sp, #16]
    7996:	e6b3      	b.n	7700 <_dtoa_r+0x7ac>
    7998:	2301      	movs	r3, #1
    799a:	930b      	str	r3, [sp, #44]	; 0x2c
    799c:	9b23      	ldr	r3, [sp, #140]	; 0x8c
    799e:	2b00      	cmp	r3, #0
    79a0:	dc00      	bgt.n	79a4 <_dtoa_r+0xa50>
    79a2:	e0d1      	b.n	7b48 <_dtoa_r+0xbf4>
    79a4:	001d      	movs	r5, r3
    79a6:	4698      	mov	r8, r3
    79a8:	930e      	str	r3, [sp, #56]	; 0x38
    79aa:	9307      	str	r3, [sp, #28]
    79ac:	f7ff fbc8 	bl	7140 <_dtoa_r+0x1ec>
    79b0:	9b07      	ldr	r3, [sp, #28]
    79b2:	2b00      	cmp	r3, #0
    79b4:	dd00      	ble.n	79b8 <_dtoa_r+0xa64>
    79b6:	e553      	b.n	7460 <_dtoa_r+0x50c>
    79b8:	d000      	beq.n	79bc <_dtoa_r+0xa68>
    79ba:	e0ad      	b.n	7b18 <_dtoa_r+0xbc4>
    79bc:	9804      	ldr	r0, [sp, #16]
    79be:	9905      	ldr	r1, [sp, #20]
    79c0:	2200      	movs	r2, #0
    79c2:	4bab      	ldr	r3, [pc, #684]	; (7c70 <_dtoa_r+0xd1c>)
    79c4:	f7fc fc98 	bl	42f8 <__aeabi_dmul>
    79c8:	003b      	movs	r3, r7
    79ca:	0032      	movs	r2, r6
    79cc:	f7fb f99a 	bl	2d04 <__aeabi_dcmpge>
    79d0:	2300      	movs	r3, #0
    79d2:	4699      	mov	r9, r3
    79d4:	4698      	mov	r8, r3
    79d6:	2800      	cmp	r0, #0
    79d8:	d055      	beq.n	7a86 <_dtoa_r+0xb32>
    79da:	9b23      	ldr	r3, [sp, #140]	; 0x8c
    79dc:	9c0a      	ldr	r4, [sp, #40]	; 0x28
    79de:	43db      	mvns	r3, r3
    79e0:	9303      	str	r3, [sp, #12]
    79e2:	4649      	mov	r1, r9
    79e4:	4650      	mov	r0, sl
    79e6:	f001 fb01 	bl	8fec <_Bfree>
    79ea:	4643      	mov	r3, r8
    79ec:	2b00      	cmp	r3, #0
    79ee:	d100      	bne.n	79f2 <_dtoa_r+0xa9e>
    79f0:	e4df      	b.n	73b2 <_dtoa_r+0x45e>
    79f2:	e7b6      	b.n	7962 <_dtoa_r+0xa0e>
    79f4:	464a      	mov	r2, r9
    79f6:	4659      	mov	r1, fp
    79f8:	4650      	mov	r0, sl
    79fa:	f001 fc43 	bl	9284 <__pow5mult>
    79fe:	4683      	mov	fp, r0
    7a00:	e653      	b.n	76aa <_dtoa_r+0x756>
    7a02:	9a0f      	ldr	r2, [sp, #60]	; 0x3c
    7a04:	2a00      	cmp	r2, #0
    7a06:	d100      	bne.n	7a0a <_dtoa_r+0xab6>
    7a08:	e1b6      	b.n	7d78 <_dtoa_r+0xe24>
    7a0a:	4a9a      	ldr	r2, [pc, #616]	; (7c74 <_dtoa_r+0xd20>)
    7a0c:	464c      	mov	r4, r9
    7a0e:	4694      	mov	ip, r2
    7a10:	9a06      	ldr	r2, [sp, #24]
    7a12:	4463      	add	r3, ip
    7a14:	9208      	str	r2, [sp, #32]
    7a16:	e5d5      	b.n	75c4 <_dtoa_r+0x670>
    7a18:	2e00      	cmp	r6, #0
    7a1a:	d000      	beq.n	7a1e <_dtoa_r+0xaca>
    7a1c:	e670      	b.n	7700 <_dtoa_r+0x7ac>
    7a1e:	e7aa      	b.n	7976 <_dtoa_r+0xa22>
    7a20:	f001 faee 	bl	9000 <__multadd>
    7a24:	46a2      	mov	sl, r4
    7a26:	0005      	movs	r5, r0
    7a28:	4680      	mov	r8, r0
    7a2a:	e6c7      	b.n	77bc <_dtoa_r+0x868>
    7a2c:	2301      	movs	r3, #1
    7a2e:	469b      	mov	fp, r3
    7a30:	e6e2      	b.n	77f8 <_dtoa_r+0x8a4>
    7a32:	2300      	movs	r3, #0
    7a34:	930b      	str	r3, [sp, #44]	; 0x2c
    7a36:	9b22      	ldr	r3, [sp, #136]	; 0x88
    7a38:	2b02      	cmp	r3, #2
    7a3a:	d0af      	beq.n	799c <_dtoa_r+0xa48>
    7a3c:	2400      	movs	r4, #0
    7a3e:	4653      	mov	r3, sl
    7a40:	0021      	movs	r1, r4
    7a42:	645c      	str	r4, [r3, #68]	; 0x44
    7a44:	4650      	mov	r0, sl
    7a46:	f001 faa9 	bl	8f9c <_Balloc>
    7a4a:	4653      	mov	r3, sl
    7a4c:	6418      	str	r0, [r3, #64]	; 0x40
    7a4e:	2301      	movs	r3, #1
    7a50:	425b      	negs	r3, r3
    7a52:	9307      	str	r3, [sp, #28]
    7a54:	930e      	str	r3, [sp, #56]	; 0x38
    7a56:	3302      	adds	r3, #2
    7a58:	900a      	str	r0, [sp, #40]	; 0x28
    7a5a:	9423      	str	r4, [sp, #140]	; 0x8c
    7a5c:	930b      	str	r3, [sp, #44]	; 0x2c
    7a5e:	e4ec      	b.n	743a <_dtoa_r+0x4e6>
    7a60:	9b22      	ldr	r3, [sp, #136]	; 0x88
    7a62:	2b02      	cmp	r3, #2
    7a64:	dc00      	bgt.n	7a68 <_dtoa_r+0xb14>
    7a66:	e685      	b.n	7774 <_dtoa_r+0x820>
    7a68:	9b07      	ldr	r3, [sp, #28]
    7a6a:	2b00      	cmp	r3, #0
    7a6c:	d1b5      	bne.n	79da <_dtoa_r+0xa86>
    7a6e:	4649      	mov	r1, r9
    7a70:	2205      	movs	r2, #5
    7a72:	4650      	mov	r0, sl
    7a74:	f001 fac4 	bl	9000 <__multadd>
    7a78:	4681      	mov	r9, r0
    7a7a:	0001      	movs	r1, r0
    7a7c:	4658      	mov	r0, fp
    7a7e:	f001 fcc1 	bl	9404 <__mcmp>
    7a82:	2800      	cmp	r0, #0
    7a84:	dda9      	ble.n	79da <_dtoa_r+0xa86>
    7a86:	2331      	movs	r3, #49	; 0x31
    7a88:	9a0a      	ldr	r2, [sp, #40]	; 0x28
    7a8a:	7013      	strb	r3, [r2, #0]
    7a8c:	9b03      	ldr	r3, [sp, #12]
    7a8e:	1c54      	adds	r4, r2, #1
    7a90:	3301      	adds	r3, #1
    7a92:	9303      	str	r3, [sp, #12]
    7a94:	e7a5      	b.n	79e2 <_dtoa_r+0xa8e>
    7a96:	9b03      	ldr	r3, [sp, #12]
    7a98:	9a0a      	ldr	r2, [sp, #40]	; 0x28
    7a9a:	3301      	adds	r3, #1
    7a9c:	9303      	str	r3, [sp, #12]
    7a9e:	2331      	movs	r3, #49	; 0x31
    7aa0:	7013      	strb	r3, [r2, #0]
    7aa2:	e74e      	b.n	7942 <_dtoa_r+0x9ee>
    7aa4:	2300      	movs	r3, #0
    7aa6:	930b      	str	r3, [sp, #44]	; 0x2c
    7aa8:	f7ff fb3d 	bl	7126 <_dtoa_r+0x1d2>
    7aac:	9b06      	ldr	r3, [sp, #24]
    7aae:	465c      	mov	r4, fp
    7ab0:	469b      	mov	fp, r3
    7ab2:	9b07      	ldr	r3, [sp, #28]
    7ab4:	469a      	mov	sl, r3
    7ab6:	e47c      	b.n	73b2 <_dtoa_r+0x45e>
    7ab8:	4640      	mov	r0, r8
    7aba:	f7fd fa07 	bl	4ecc <__aeabi_i2d>
    7abe:	0032      	movs	r2, r6
    7ac0:	003b      	movs	r3, r7
    7ac2:	f7fc fc19 	bl	42f8 <__aeabi_dmul>
    7ac6:	2200      	movs	r2, #0
    7ac8:	4b6b      	ldr	r3, [pc, #428]	; (7c78 <_dtoa_r+0xd24>)
    7aca:	f7fb fcd1 	bl	3470 <__aeabi_dadd>
    7ace:	4a6b      	ldr	r2, [pc, #428]	; (7c7c <_dtoa_r+0xd28>)
    7ad0:	000b      	movs	r3, r1
    7ad2:	4694      	mov	ip, r2
    7ad4:	4463      	add	r3, ip
    7ad6:	9008      	str	r0, [sp, #32]
    7ad8:	9109      	str	r1, [sp, #36]	; 0x24
    7ada:	9309      	str	r3, [sp, #36]	; 0x24
    7adc:	2200      	movs	r2, #0
    7ade:	4b64      	ldr	r3, [pc, #400]	; (7c70 <_dtoa_r+0xd1c>)
    7ae0:	0030      	movs	r0, r6
    7ae2:	0039      	movs	r1, r7
    7ae4:	f7fc fe88 	bl	47f8 <__aeabi_dsub>
    7ae8:	9e08      	ldr	r6, [sp, #32]
    7aea:	9f09      	ldr	r7, [sp, #36]	; 0x24
    7aec:	0032      	movs	r2, r6
    7aee:	003b      	movs	r3, r7
    7af0:	0004      	movs	r4, r0
    7af2:	000d      	movs	r5, r1
    7af4:	f7fb f8fc 	bl	2cf0 <__aeabi_dcmpgt>
    7af8:	2800      	cmp	r0, #0
    7afa:	d000      	beq.n	7afe <_dtoa_r+0xbaa>
    7afc:	e0b2      	b.n	7c64 <_dtoa_r+0xd10>
    7afe:	2080      	movs	r0, #128	; 0x80
    7b00:	0600      	lsls	r0, r0, #24
    7b02:	4684      	mov	ip, r0
    7b04:	0039      	movs	r1, r7
    7b06:	4461      	add	r1, ip
    7b08:	000b      	movs	r3, r1
    7b0a:	0032      	movs	r2, r6
    7b0c:	0020      	movs	r0, r4
    7b0e:	0029      	movs	r1, r5
    7b10:	f7fb f8da 	bl	2cc8 <__aeabi_dcmplt>
    7b14:	2800      	cmp	r0, #0
    7b16:	d057      	beq.n	7bc8 <_dtoa_r+0xc74>
    7b18:	2300      	movs	r3, #0
    7b1a:	4699      	mov	r9, r3
    7b1c:	4698      	mov	r8, r3
    7b1e:	e75c      	b.n	79da <_dtoa_r+0xa86>
    7b20:	980a      	ldr	r0, [sp, #40]	; 0x28
    7b22:	f7ff fa4c 	bl	6fbe <_dtoa_r+0x6a>
    7b26:	1ae2      	subs	r2, r4, r3
    7b28:	9b0d      	ldr	r3, [sp, #52]	; 0x34
    7b2a:	46a1      	mov	r9, r4
    7b2c:	469c      	mov	ip, r3
    7b2e:	4494      	add	ip, r2
    7b30:	4663      	mov	r3, ip
    7b32:	2400      	movs	r4, #0
    7b34:	930d      	str	r3, [sp, #52]	; 0x34
    7b36:	e53e      	b.n	75b6 <_dtoa_r+0x662>
    7b38:	9a10      	ldr	r2, [sp, #64]	; 0x40
    7b3a:	9b11      	ldr	r3, [sp, #68]	; 0x44
    7b3c:	9208      	str	r2, [sp, #32]
    7b3e:	9309      	str	r3, [sp, #36]	; 0x24
    7b40:	2302      	movs	r3, #2
    7b42:	4698      	mov	r8, r3
    7b44:	f7ff fb3a 	bl	71bc <_dtoa_r+0x268>
    7b48:	2300      	movs	r3, #0
    7b4a:	4652      	mov	r2, sl
    7b4c:	2100      	movs	r1, #0
    7b4e:	6453      	str	r3, [r2, #68]	; 0x44
    7b50:	4650      	mov	r0, sl
    7b52:	f001 fa23 	bl	8f9c <_Balloc>
    7b56:	4653      	mov	r3, sl
    7b58:	6418      	str	r0, [r3, #64]	; 0x40
    7b5a:	2301      	movs	r3, #1
    7b5c:	900a      	str	r0, [sp, #40]	; 0x28
    7b5e:	9307      	str	r3, [sp, #28]
    7b60:	9323      	str	r3, [sp, #140]	; 0x8c
    7b62:	930e      	str	r3, [sp, #56]	; 0x38
    7b64:	f7ff fb07 	bl	7176 <_dtoa_r+0x222>
    7b68:	4643      	mov	r3, r8
    7b6a:	930c      	str	r3, [sp, #48]	; 0x30
    7b6c:	465b      	mov	r3, fp
    7b6e:	9a06      	ldr	r2, [sp, #24]
    7b70:	46a8      	mov	r8, r5
    7b72:	46b3      	mov	fp, r6
    7b74:	4655      	mov	r5, sl
    7b76:	9e04      	ldr	r6, [sp, #16]
    7b78:	4691      	mov	r9, r2
    7b7a:	46ba      	mov	sl, r7
    7b7c:	2b00      	cmp	r3, #0
    7b7e:	dd10      	ble.n	7ba2 <_dtoa_r+0xc4e>
    7b80:	4659      	mov	r1, fp
    7b82:	2201      	movs	r2, #1
    7b84:	0038      	movs	r0, r7
    7b86:	f001 fbdd 	bl	9344 <__lshift>
    7b8a:	4649      	mov	r1, r9
    7b8c:	4683      	mov	fp, r0
    7b8e:	f001 fc39 	bl	9404 <__mcmp>
    7b92:	2800      	cmp	r0, #0
    7b94:	dc00      	bgt.n	7b98 <_dtoa_r+0xc44>
    7b96:	e157      	b.n	7e48 <_dtoa_r+0xef4>
    7b98:	2e39      	cmp	r6, #57	; 0x39
    7b9a:	d100      	bne.n	7b9e <_dtoa_r+0xc4a>
    7b9c:	e122      	b.n	7de4 <_dtoa_r+0xe90>
    7b9e:	9e0b      	ldr	r6, [sp, #44]	; 0x2c
    7ba0:	3631      	adds	r6, #49	; 0x31
    7ba2:	9b0c      	ldr	r3, [sp, #48]	; 0x30
    7ba4:	4647      	mov	r7, r8
    7ba6:	1c6c      	adds	r4, r5, #1
    7ba8:	702e      	strb	r6, [r5, #0]
    7baa:	4698      	mov	r8, r3
    7bac:	e6c9      	b.n	7942 <_dtoa_r+0x9ee>
    7bae:	2800      	cmp	r0, #0
    7bb0:	d103      	bne.n	7bba <_dtoa_r+0xc66>
    7bb2:	07f3      	lsls	r3, r6, #31
    7bb4:	d501      	bpl.n	7bba <_dtoa_r+0xc66>
    7bb6:	e6b5      	b.n	7924 <_dtoa_r+0x9d0>
    7bb8:	001c      	movs	r4, r3
    7bba:	1e63      	subs	r3, r4, #1
    7bbc:	781a      	ldrb	r2, [r3, #0]
    7bbe:	2a30      	cmp	r2, #48	; 0x30
    7bc0:	d0fa      	beq.n	7bb8 <_dtoa_r+0xc64>
    7bc2:	e6be      	b.n	7942 <_dtoa_r+0x9ee>
    7bc4:	9b12      	ldr	r3, [sp, #72]	; 0x48
    7bc6:	4699      	mov	r9, r3
    7bc8:	9e10      	ldr	r6, [sp, #64]	; 0x40
    7bca:	9f11      	ldr	r7, [sp, #68]	; 0x44
    7bcc:	e435      	b.n	743a <_dtoa_r+0x4e6>
    7bce:	2501      	movs	r5, #1
    7bd0:	f7ff fab4 	bl	713c <_dtoa_r+0x1e8>
    7bd4:	9b03      	ldr	r3, [sp, #12]
    7bd6:	2b00      	cmp	r3, #0
    7bd8:	d100      	bne.n	7bdc <_dtoa_r+0xc88>
    7bda:	e0d4      	b.n	7d86 <_dtoa_r+0xe32>
    7bdc:	9810      	ldr	r0, [sp, #64]	; 0x40
    7bde:	9911      	ldr	r1, [sp, #68]	; 0x44
    7be0:	425c      	negs	r4, r3
    7be2:	230f      	movs	r3, #15
    7be4:	4a26      	ldr	r2, [pc, #152]	; (7c80 <_dtoa_r+0xd2c>)
    7be6:	4023      	ands	r3, r4
    7be8:	00db      	lsls	r3, r3, #3
    7bea:	18d3      	adds	r3, r2, r3
    7bec:	681a      	ldr	r2, [r3, #0]
    7bee:	685b      	ldr	r3, [r3, #4]
    7bf0:	f7fc fb82 	bl	42f8 <__aeabi_dmul>
    7bf4:	1124      	asrs	r4, r4, #4
    7bf6:	0006      	movs	r6, r0
    7bf8:	000f      	movs	r7, r1
    7bfa:	2c00      	cmp	r4, #0
    7bfc:	d100      	bne.n	7c00 <_dtoa_r+0xcac>
    7bfe:	e149      	b.n	7e94 <_dtoa_r+0xf40>
    7c00:	2302      	movs	r3, #2
    7c02:	4698      	mov	r8, r3
    7c04:	4d1f      	ldr	r5, [pc, #124]	; (7c84 <_dtoa_r+0xd30>)
    7c06:	2301      	movs	r3, #1
    7c08:	4223      	tst	r3, r4
    7c0a:	d009      	beq.n	7c20 <_dtoa_r+0xccc>
    7c0c:	469c      	mov	ip, r3
    7c0e:	682a      	ldr	r2, [r5, #0]
    7c10:	686b      	ldr	r3, [r5, #4]
    7c12:	0030      	movs	r0, r6
    7c14:	0039      	movs	r1, r7
    7c16:	44e0      	add	r8, ip
    7c18:	f7fc fb6e 	bl	42f8 <__aeabi_dmul>
    7c1c:	0006      	movs	r6, r0
    7c1e:	000f      	movs	r7, r1
    7c20:	1064      	asrs	r4, r4, #1
    7c22:	3508      	adds	r5, #8
    7c24:	2c00      	cmp	r4, #0
    7c26:	d1ee      	bne.n	7c06 <_dtoa_r+0xcb2>
    7c28:	f7ff fae4 	bl	71f4 <_dtoa_r+0x2a0>
    7c2c:	9b03      	ldr	r3, [sp, #12]
    7c2e:	2730      	movs	r7, #48	; 0x30
    7c30:	3301      	adds	r3, #1
    7c32:	9303      	str	r3, [sp, #12]
    7c34:	2330      	movs	r3, #48	; 0x30
    7c36:	702b      	strb	r3, [r5, #0]
    7c38:	e4ac      	b.n	7594 <_dtoa_r+0x640>
    7c3a:	6859      	ldr	r1, [r3, #4]
    7c3c:	4650      	mov	r0, sl
    7c3e:	f001 f9ad 	bl	8f9c <_Balloc>
    7c42:	4643      	mov	r3, r8
    7c44:	4641      	mov	r1, r8
    7c46:	0004      	movs	r4, r0
    7c48:	691b      	ldr	r3, [r3, #16]
    7c4a:	310c      	adds	r1, #12
    7c4c:	1c9a      	adds	r2, r3, #2
    7c4e:	0092      	lsls	r2, r2, #2
    7c50:	300c      	adds	r0, #12
    7c52:	f001 f901 	bl	8e58 <memcpy>
    7c56:	2201      	movs	r2, #1
    7c58:	0021      	movs	r1, r4
    7c5a:	4650      	mov	r0, sl
    7c5c:	f001 fb72 	bl	9344 <__lshift>
    7c60:	900c      	str	r0, [sp, #48]	; 0x30
    7c62:	e599      	b.n	7798 <_dtoa_r+0x844>
    7c64:	2300      	movs	r3, #0
    7c66:	4699      	mov	r9, r3
    7c68:	4698      	mov	r8, r3
    7c6a:	e70c      	b.n	7a86 <_dtoa_r+0xb32>
    7c6c:	7ff00000 	.word	0x7ff00000
    7c70:	40140000 	.word	0x40140000
    7c74:	00000433 	.word	0x00000433
    7c78:	401c0000 	.word	0x401c0000
    7c7c:	fcc00000 	.word	0xfcc00000
    7c80:	0000a568 	.word	0x0000a568
    7c84:	0000a540 	.word	0x0000a540
    7c88:	9b12      	ldr	r3, [sp, #72]	; 0x48
    7c8a:	498f      	ldr	r1, [pc, #572]	; (7ec8 <_dtoa_r+0xf74>)
    7c8c:	3b01      	subs	r3, #1
    7c8e:	00db      	lsls	r3, r3, #3
    7c90:	18c9      	adds	r1, r1, r3
    7c92:	6808      	ldr	r0, [r1, #0]
    7c94:	6849      	ldr	r1, [r1, #4]
    7c96:	9a08      	ldr	r2, [sp, #32]
    7c98:	9b09      	ldr	r3, [sp, #36]	; 0x24
    7c9a:	f7fc fb2d 	bl	42f8 <__aeabi_dmul>
    7c9e:	9014      	str	r0, [sp, #80]	; 0x50
    7ca0:	9115      	str	r1, [sp, #84]	; 0x54
    7ca2:	0039      	movs	r1, r7
    7ca4:	0030      	movs	r0, r6
    7ca6:	f7fd f8dd 	bl	4e64 <__aeabi_d2iz>
    7caa:	0005      	movs	r5, r0
    7cac:	f7fd f90e 	bl	4ecc <__aeabi_i2d>
    7cb0:	0002      	movs	r2, r0
    7cb2:	000b      	movs	r3, r1
    7cb4:	0030      	movs	r0, r6
    7cb6:	0039      	movs	r1, r7
    7cb8:	f7fc fd9e 	bl	47f8 <__aeabi_dsub>
    7cbc:	9b12      	ldr	r3, [sp, #72]	; 0x48
    7cbe:	9008      	str	r0, [sp, #32]
    7cc0:	9109      	str	r1, [sp, #36]	; 0x24
    7cc2:	990a      	ldr	r1, [sp, #40]	; 0x28
    7cc4:	001a      	movs	r2, r3
    7cc6:	468c      	mov	ip, r1
    7cc8:	3530      	adds	r5, #48	; 0x30
    7cca:	4462      	add	r2, ip
    7ccc:	1c4c      	adds	r4, r1, #1
    7cce:	700d      	strb	r5, [r1, #0]
    7cd0:	4690      	mov	r8, r2
    7cd2:	2b01      	cmp	r3, #1
    7cd4:	d01b      	beq.n	7d0e <_dtoa_r+0xdba>
    7cd6:	9808      	ldr	r0, [sp, #32]
    7cd8:	9909      	ldr	r1, [sp, #36]	; 0x24
    7cda:	0025      	movs	r5, r4
    7cdc:	2200      	movs	r2, #0
    7cde:	4b7b      	ldr	r3, [pc, #492]	; (7ecc <_dtoa_r+0xf78>)
    7ce0:	f7fc fb0a 	bl	42f8 <__aeabi_dmul>
    7ce4:	000f      	movs	r7, r1
    7ce6:	0006      	movs	r6, r0
    7ce8:	f7fd f8bc 	bl	4e64 <__aeabi_d2iz>
    7cec:	0004      	movs	r4, r0
    7cee:	f7fd f8ed 	bl	4ecc <__aeabi_i2d>
    7cf2:	3430      	adds	r4, #48	; 0x30
    7cf4:	0002      	movs	r2, r0
    7cf6:	000b      	movs	r3, r1
    7cf8:	0030      	movs	r0, r6
    7cfa:	0039      	movs	r1, r7
    7cfc:	f7fc fd7c 	bl	47f8 <__aeabi_dsub>
    7d00:	702c      	strb	r4, [r5, #0]
    7d02:	3501      	adds	r5, #1
    7d04:	45a8      	cmp	r8, r5
    7d06:	d1e9      	bne.n	7cdc <_dtoa_r+0xd88>
    7d08:	4644      	mov	r4, r8
    7d0a:	9008      	str	r0, [sp, #32]
    7d0c:	9109      	str	r1, [sp, #36]	; 0x24
    7d0e:	9814      	ldr	r0, [sp, #80]	; 0x50
    7d10:	9915      	ldr	r1, [sp, #84]	; 0x54
    7d12:	2200      	movs	r2, #0
    7d14:	4b6e      	ldr	r3, [pc, #440]	; (7ed0 <_dtoa_r+0xf7c>)
    7d16:	f7fb fbab 	bl	3470 <__aeabi_dadd>
    7d1a:	9a08      	ldr	r2, [sp, #32]
    7d1c:	9b09      	ldr	r3, [sp, #36]	; 0x24
    7d1e:	f7fa ffd3 	bl	2cc8 <__aeabi_dcmplt>
    7d22:	2800      	cmp	r0, #0
    7d24:	d067      	beq.n	7df6 <_dtoa_r+0xea2>
    7d26:	9b13      	ldr	r3, [sp, #76]	; 0x4c
    7d28:	1e65      	subs	r5, r4, #1
    7d2a:	9303      	str	r3, [sp, #12]
    7d2c:	782f      	ldrb	r7, [r5, #0]
    7d2e:	9b0a      	ldr	r3, [sp, #40]	; 0x28
    7d30:	e42e      	b.n	7590 <_dtoa_r+0x63c>
    7d32:	4643      	mov	r3, r8
    7d34:	46b3      	mov	fp, r6
    7d36:	930c      	str	r3, [sp, #48]	; 0x30
    7d38:	9e04      	ldr	r6, [sp, #16]
    7d3a:	9b06      	ldr	r3, [sp, #24]
    7d3c:	46a8      	mov	r8, r5
    7d3e:	4699      	mov	r9, r3
    7d40:	4655      	mov	r5, sl
    7d42:	46ba      	mov	sl, r7
    7d44:	2e39      	cmp	r6, #57	; 0x39
    7d46:	d04d      	beq.n	7de4 <_dtoa_r+0xe90>
    7d48:	9b0c      	ldr	r3, [sp, #48]	; 0x30
    7d4a:	3601      	adds	r6, #1
    7d4c:	4647      	mov	r7, r8
    7d4e:	1c6c      	adds	r4, r5, #1
    7d50:	702e      	strb	r6, [r5, #0]
    7d52:	4698      	mov	r8, r3
    7d54:	e5f5      	b.n	7942 <_dtoa_r+0x9ee>
    7d56:	4642      	mov	r2, r8
    7d58:	9b06      	ldr	r3, [sp, #24]
    7d5a:	46b3      	mov	fp, r6
    7d5c:	46ba      	mov	sl, r7
    7d5e:	9e04      	ldr	r6, [sp, #16]
    7d60:	4699      	mov	r9, r3
    7d62:	002f      	movs	r7, r5
    7d64:	4690      	mov	r8, r2
    7d66:	e5d1      	b.n	790c <_dtoa_r+0x9b8>
    7d68:	9b06      	ldr	r3, [sp, #24]
    7d6a:	9a07      	ldr	r2, [sp, #28]
    7d6c:	1a9b      	subs	r3, r3, r2
    7d6e:	9308      	str	r3, [sp, #32]
    7d70:	2300      	movs	r3, #0
    7d72:	e427      	b.n	75c4 <_dtoa_r+0x670>
    7d74:	2401      	movs	r4, #1
    7d76:	e5c5      	b.n	7904 <_dtoa_r+0x9b0>
    7d78:	2336      	movs	r3, #54	; 0x36
    7d7a:	9a16      	ldr	r2, [sp, #88]	; 0x58
    7d7c:	464c      	mov	r4, r9
    7d7e:	1a9b      	subs	r3, r3, r2
    7d80:	9a06      	ldr	r2, [sp, #24]
    7d82:	9208      	str	r2, [sp, #32]
    7d84:	e41e      	b.n	75c4 <_dtoa_r+0x670>
    7d86:	2302      	movs	r3, #2
    7d88:	9e10      	ldr	r6, [sp, #64]	; 0x40
    7d8a:	9f11      	ldr	r7, [sp, #68]	; 0x44
    7d8c:	4698      	mov	r8, r3
    7d8e:	f7ff fa31 	bl	71f4 <_dtoa_r+0x2a0>
    7d92:	9b07      	ldr	r3, [sp, #28]
    7d94:	2b00      	cmp	r3, #0
    7d96:	d100      	bne.n	7d9a <_dtoa_r+0xe46>
    7d98:	e68e      	b.n	7ab8 <_dtoa_r+0xb64>
    7d9a:	9c0e      	ldr	r4, [sp, #56]	; 0x38
    7d9c:	2c00      	cmp	r4, #0
    7d9e:	dc00      	bgt.n	7da2 <_dtoa_r+0xe4e>
    7da0:	e712      	b.n	7bc8 <_dtoa_r+0xc74>
    7da2:	9b03      	ldr	r3, [sp, #12]
    7da4:	2200      	movs	r2, #0
    7da6:	3b01      	subs	r3, #1
    7da8:	9313      	str	r3, [sp, #76]	; 0x4c
    7daa:	0030      	movs	r0, r6
    7dac:	4b47      	ldr	r3, [pc, #284]	; (7ecc <_dtoa_r+0xf78>)
    7dae:	0039      	movs	r1, r7
    7db0:	f7fc faa2 	bl	42f8 <__aeabi_dmul>
    7db4:	0006      	movs	r6, r0
    7db6:	4640      	mov	r0, r8
    7db8:	000f      	movs	r7, r1
    7dba:	3001      	adds	r0, #1
    7dbc:	f7fd f886 	bl	4ecc <__aeabi_i2d>
    7dc0:	0032      	movs	r2, r6
    7dc2:	003b      	movs	r3, r7
    7dc4:	f7fc fa98 	bl	42f8 <__aeabi_dmul>
    7dc8:	2200      	movs	r2, #0
    7dca:	4b42      	ldr	r3, [pc, #264]	; (7ed4 <_dtoa_r+0xf80>)
    7dcc:	f7fb fb50 	bl	3470 <__aeabi_dadd>
    7dd0:	4a41      	ldr	r2, [pc, #260]	; (7ed8 <_dtoa_r+0xf84>)
    7dd2:	000b      	movs	r3, r1
    7dd4:	4694      	mov	ip, r2
    7dd6:	4463      	add	r3, ip
    7dd8:	9008      	str	r0, [sp, #32]
    7dda:	9109      	str	r1, [sp, #36]	; 0x24
    7ddc:	9412      	str	r4, [sp, #72]	; 0x48
    7dde:	9309      	str	r3, [sp, #36]	; 0x24
    7de0:	f7ff fa30 	bl	7244 <_dtoa_r+0x2f0>
    7de4:	2339      	movs	r3, #57	; 0x39
    7de6:	702b      	strb	r3, [r5, #0]
    7de8:	9b0c      	ldr	r3, [sp, #48]	; 0x30
    7dea:	4647      	mov	r7, r8
    7dec:	1c6c      	adds	r4, r5, #1
    7dee:	4698      	mov	r8, r3
    7df0:	9a0a      	ldr	r2, [sp, #40]	; 0x28
    7df2:	2339      	movs	r3, #57	; 0x39
    7df4:	e5a1      	b.n	793a <_dtoa_r+0x9e6>
    7df6:	9a14      	ldr	r2, [sp, #80]	; 0x50
    7df8:	9b15      	ldr	r3, [sp, #84]	; 0x54
    7dfa:	2000      	movs	r0, #0
    7dfc:	4934      	ldr	r1, [pc, #208]	; (7ed0 <_dtoa_r+0xf7c>)
    7dfe:	f7fc fcfb 	bl	47f8 <__aeabi_dsub>
    7e02:	9a08      	ldr	r2, [sp, #32]
    7e04:	9b09      	ldr	r3, [sp, #36]	; 0x24
    7e06:	f7fa ff73 	bl	2cf0 <__aeabi_dcmpgt>
    7e0a:	2800      	cmp	r0, #0
    7e0c:	d101      	bne.n	7e12 <_dtoa_r+0xebe>
    7e0e:	e6db      	b.n	7bc8 <_dtoa_r+0xc74>
    7e10:	001c      	movs	r4, r3
    7e12:	1e63      	subs	r3, r4, #1
    7e14:	781a      	ldrb	r2, [r3, #0]
    7e16:	2a30      	cmp	r2, #48	; 0x30
    7e18:	d0fa      	beq.n	7e10 <_dtoa_r+0xebc>
    7e1a:	f7ff fac8 	bl	73ae <_dtoa_r+0x45a>
    7e1e:	4643      	mov	r3, r8
    7e20:	46b3      	mov	fp, r6
    7e22:	930c      	str	r3, [sp, #48]	; 0x30
    7e24:	9e04      	ldr	r6, [sp, #16]
    7e26:	9b06      	ldr	r3, [sp, #24]
    7e28:	46a8      	mov	r8, r5
    7e2a:	4699      	mov	r9, r3
    7e2c:	4655      	mov	r5, sl
    7e2e:	46ba      	mov	sl, r7
    7e30:	2e39      	cmp	r6, #57	; 0x39
    7e32:	d0d7      	beq.n	7de4 <_dtoa_r+0xe90>
    7e34:	2c00      	cmp	r4, #0
    7e36:	dd00      	ble.n	7e3a <_dtoa_r+0xee6>
    7e38:	e6b1      	b.n	7b9e <_dtoa_r+0xc4a>
    7e3a:	e6b2      	b.n	7ba2 <_dtoa_r+0xc4e>
    7e3c:	9a13      	ldr	r2, [sp, #76]	; 0x4c
    7e3e:	464d      	mov	r5, r9
    7e40:	9203      	str	r2, [sp, #12]
    7e42:	9b0a      	ldr	r3, [sp, #40]	; 0x28
    7e44:	f7ff fba4 	bl	7590 <_dtoa_r+0x63c>
    7e48:	2800      	cmp	r0, #0
    7e4a:	d000      	beq.n	7e4e <_dtoa_r+0xefa>
    7e4c:	e6a9      	b.n	7ba2 <_dtoa_r+0xc4e>
    7e4e:	07f3      	lsls	r3, r6, #31
    7e50:	d400      	bmi.n	7e54 <_dtoa_r+0xf00>
    7e52:	e6a6      	b.n	7ba2 <_dtoa_r+0xc4e>
    7e54:	e6a0      	b.n	7b98 <_dtoa_r+0xc44>
    7e56:	2300      	movs	r3, #0
    7e58:	4641      	mov	r1, r8
    7e5a:	220a      	movs	r2, #10
    7e5c:	4650      	mov	r0, sl
    7e5e:	f001 f8cf 	bl	9000 <__multadd>
    7e62:	9b0e      	ldr	r3, [sp, #56]	; 0x38
    7e64:	4680      	mov	r8, r0
    7e66:	2b00      	cmp	r3, #0
    7e68:	dd01      	ble.n	7e6e <_dtoa_r+0xf1a>
    7e6a:	9307      	str	r3, [sp, #28]
    7e6c:	e486      	b.n	777c <_dtoa_r+0x828>
    7e6e:	9b22      	ldr	r3, [sp, #136]	; 0x88
    7e70:	2b02      	cmp	r3, #2
    7e72:	dc1f      	bgt.n	7eb4 <_dtoa_r+0xf60>
    7e74:	9b0e      	ldr	r3, [sp, #56]	; 0x38
    7e76:	9307      	str	r3, [sp, #28]
    7e78:	e480      	b.n	777c <_dtoa_r+0x828>
    7e7a:	9b22      	ldr	r3, [sp, #136]	; 0x88
    7e7c:	2b02      	cmp	r3, #2
    7e7e:	dc19      	bgt.n	7eb4 <_dtoa_r+0xf60>
    7e80:	4649      	mov	r1, r9
    7e82:	f7fe ffbd 	bl	6e00 <quorem>
    7e86:	9b0a      	ldr	r3, [sp, #40]	; 0x28
    7e88:	3030      	adds	r0, #48	; 0x30
    7e8a:	7018      	strb	r0, [r3, #0]
    7e8c:	9b0e      	ldr	r3, [sp, #56]	; 0x38
    7e8e:	0006      	movs	r6, r0
    7e90:	9307      	str	r3, [sp, #28]
    7e92:	e533      	b.n	78fc <_dtoa_r+0x9a8>
    7e94:	2302      	movs	r3, #2
    7e96:	4698      	mov	r8, r3
    7e98:	f7ff f9ac 	bl	71f4 <_dtoa_r+0x2a0>
    7e9c:	9b13      	ldr	r3, [sp, #76]	; 0x4c
    7e9e:	9c14      	ldr	r4, [sp, #80]	; 0x50
    7ea0:	9303      	str	r3, [sp, #12]
    7ea2:	9b0a      	ldr	r3, [sp, #40]	; 0x28
    7ea4:	001d      	movs	r5, r3
    7ea6:	f7ff fb73 	bl	7590 <_dtoa_r+0x63c>
    7eaa:	9b13      	ldr	r3, [sp, #76]	; 0x4c
    7eac:	9c14      	ldr	r4, [sp, #80]	; 0x50
    7eae:	9303      	str	r3, [sp, #12]
    7eb0:	f7ff fa7f 	bl	73b2 <_dtoa_r+0x45e>
    7eb4:	9b0e      	ldr	r3, [sp, #56]	; 0x38
    7eb6:	9307      	str	r3, [sp, #28]
    7eb8:	e5d6      	b.n	7a68 <_dtoa_r+0xb14>
    7eba:	2b04      	cmp	r3, #4
    7ebc:	d100      	bne.n	7ec0 <_dtoa_r+0xf6c>
    7ebe:	e43f      	b.n	7740 <_dtoa_r+0x7ec>
    7ec0:	233c      	movs	r3, #60	; 0x3c
    7ec2:	1a18      	subs	r0, r3, r0
    7ec4:	e4d7      	b.n	7876 <_dtoa_r+0x922>
    7ec6:	46c0      	nop			; (mov r8, r8)
    7ec8:	0000a568 	.word	0x0000a568
    7ecc:	40240000 	.word	0x40240000
    7ed0:	3fe00000 	.word	0x3fe00000
    7ed4:	401c0000 	.word	0x401c0000
    7ed8:	fcc00000 	.word	0xfcc00000

00007edc <__sflush_r>:
    7edc:	b5f0      	push	{r4, r5, r6, r7, lr}
    7ede:	46c6      	mov	lr, r8
    7ee0:	b500      	push	{lr}
    7ee2:	230c      	movs	r3, #12
    7ee4:	5eca      	ldrsh	r2, [r1, r3]
    7ee6:	4680      	mov	r8, r0
    7ee8:	b293      	uxth	r3, r2
    7eea:	000c      	movs	r4, r1
    7eec:	0719      	lsls	r1, r3, #28
    7eee:	d440      	bmi.n	7f72 <__sflush_r+0x96>
    7ef0:	2380      	movs	r3, #128	; 0x80
    7ef2:	011b      	lsls	r3, r3, #4
    7ef4:	4313      	orrs	r3, r2
    7ef6:	6862      	ldr	r2, [r4, #4]
    7ef8:	81a3      	strh	r3, [r4, #12]
    7efa:	2a00      	cmp	r2, #0
    7efc:	dc00      	bgt.n	7f00 <__sflush_r+0x24>
    7efe:	e070      	b.n	7fe2 <__sflush_r+0x106>
    7f00:	6aa6      	ldr	r6, [r4, #40]	; 0x28
    7f02:	2e00      	cmp	r6, #0
    7f04:	d031      	beq.n	7f6a <__sflush_r+0x8e>
    7f06:	4642      	mov	r2, r8
    7f08:	4641      	mov	r1, r8
    7f0a:	6815      	ldr	r5, [r2, #0]
    7f0c:	2200      	movs	r2, #0
    7f0e:	b29b      	uxth	r3, r3
    7f10:	600a      	str	r2, [r1, #0]
    7f12:	04da      	lsls	r2, r3, #19
    7f14:	d400      	bmi.n	7f18 <__sflush_r+0x3c>
    7f16:	e069      	b.n	7fec <__sflush_r+0x110>
    7f18:	6d22      	ldr	r2, [r4, #80]	; 0x50
    7f1a:	075b      	lsls	r3, r3, #29
    7f1c:	d506      	bpl.n	7f2c <__sflush_r+0x50>
    7f1e:	6863      	ldr	r3, [r4, #4]
    7f20:	1ad2      	subs	r2, r2, r3
    7f22:	6b23      	ldr	r3, [r4, #48]	; 0x30
    7f24:	2b00      	cmp	r3, #0
    7f26:	d001      	beq.n	7f2c <__sflush_r+0x50>
    7f28:	6be3      	ldr	r3, [r4, #60]	; 0x3c
    7f2a:	1ad2      	subs	r2, r2, r3
    7f2c:	2300      	movs	r3, #0
    7f2e:	69e1      	ldr	r1, [r4, #28]
    7f30:	4640      	mov	r0, r8
    7f32:	47b0      	blx	r6
    7f34:	1c43      	adds	r3, r0, #1
    7f36:	d03d      	beq.n	7fb4 <__sflush_r+0xd8>
    7f38:	89a3      	ldrh	r3, [r4, #12]
    7f3a:	4a3a      	ldr	r2, [pc, #232]	; (8024 <__sflush_r+0x148>)
    7f3c:	4013      	ands	r3, r2
    7f3e:	2200      	movs	r2, #0
    7f40:	6062      	str	r2, [r4, #4]
    7f42:	6922      	ldr	r2, [r4, #16]
    7f44:	b21b      	sxth	r3, r3
    7f46:	81a3      	strh	r3, [r4, #12]
    7f48:	6022      	str	r2, [r4, #0]
    7f4a:	04db      	lsls	r3, r3, #19
    7f4c:	d447      	bmi.n	7fde <__sflush_r+0x102>
    7f4e:	4643      	mov	r3, r8
    7f50:	6b21      	ldr	r1, [r4, #48]	; 0x30
    7f52:	601d      	str	r5, [r3, #0]
    7f54:	2900      	cmp	r1, #0
    7f56:	d008      	beq.n	7f6a <__sflush_r+0x8e>
    7f58:	0023      	movs	r3, r4
    7f5a:	3340      	adds	r3, #64	; 0x40
    7f5c:	4299      	cmp	r1, r3
    7f5e:	d002      	beq.n	7f66 <__sflush_r+0x8a>
    7f60:	4640      	mov	r0, r8
    7f62:	f000 f967 	bl	8234 <_free_r>
    7f66:	2300      	movs	r3, #0
    7f68:	6323      	str	r3, [r4, #48]	; 0x30
    7f6a:	2000      	movs	r0, #0
    7f6c:	bc04      	pop	{r2}
    7f6e:	4690      	mov	r8, r2
    7f70:	bdf0      	pop	{r4, r5, r6, r7, pc}
    7f72:	6926      	ldr	r6, [r4, #16]
    7f74:	2e00      	cmp	r6, #0
    7f76:	d0f8      	beq.n	7f6a <__sflush_r+0x8e>
    7f78:	6822      	ldr	r2, [r4, #0]
    7f7a:	6026      	str	r6, [r4, #0]
    7f7c:	1b95      	subs	r5, r2, r6
    7f7e:	2200      	movs	r2, #0
    7f80:	079b      	lsls	r3, r3, #30
    7f82:	d100      	bne.n	7f86 <__sflush_r+0xaa>
    7f84:	6962      	ldr	r2, [r4, #20]
    7f86:	60a2      	str	r2, [r4, #8]
    7f88:	2d00      	cmp	r5, #0
    7f8a:	dc04      	bgt.n	7f96 <__sflush_r+0xba>
    7f8c:	e7ed      	b.n	7f6a <__sflush_r+0x8e>
    7f8e:	1836      	adds	r6, r6, r0
    7f90:	1a2d      	subs	r5, r5, r0
    7f92:	2d00      	cmp	r5, #0
    7f94:	dde9      	ble.n	7f6a <__sflush_r+0x8e>
    7f96:	002b      	movs	r3, r5
    7f98:	0032      	movs	r2, r6
    7f9a:	69e1      	ldr	r1, [r4, #28]
    7f9c:	4640      	mov	r0, r8
    7f9e:	6a67      	ldr	r7, [r4, #36]	; 0x24
    7fa0:	47b8      	blx	r7
    7fa2:	2800      	cmp	r0, #0
    7fa4:	dcf3      	bgt.n	7f8e <__sflush_r+0xb2>
    7fa6:	2240      	movs	r2, #64	; 0x40
    7fa8:	2001      	movs	r0, #1
    7faa:	89a3      	ldrh	r3, [r4, #12]
    7fac:	4240      	negs	r0, r0
    7fae:	4313      	orrs	r3, r2
    7fb0:	81a3      	strh	r3, [r4, #12]
    7fb2:	e7db      	b.n	7f6c <__sflush_r+0x90>
    7fb4:	4643      	mov	r3, r8
    7fb6:	6819      	ldr	r1, [r3, #0]
    7fb8:	291d      	cmp	r1, #29
    7fba:	d8f4      	bhi.n	7fa6 <__sflush_r+0xca>
    7fbc:	4b1a      	ldr	r3, [pc, #104]	; (8028 <__sflush_r+0x14c>)
    7fbe:	2201      	movs	r2, #1
    7fc0:	40cb      	lsrs	r3, r1
    7fc2:	439a      	bics	r2, r3
    7fc4:	d1ef      	bne.n	7fa6 <__sflush_r+0xca>
    7fc6:	89a3      	ldrh	r3, [r4, #12]
    7fc8:	4e16      	ldr	r6, [pc, #88]	; (8024 <__sflush_r+0x148>)
    7fca:	6062      	str	r2, [r4, #4]
    7fcc:	4033      	ands	r3, r6
    7fce:	6922      	ldr	r2, [r4, #16]
    7fd0:	b21b      	sxth	r3, r3
    7fd2:	81a3      	strh	r3, [r4, #12]
    7fd4:	6022      	str	r2, [r4, #0]
    7fd6:	04db      	lsls	r3, r3, #19
    7fd8:	d5b9      	bpl.n	7f4e <__sflush_r+0x72>
    7fda:	2900      	cmp	r1, #0
    7fdc:	d1b7      	bne.n	7f4e <__sflush_r+0x72>
    7fde:	6520      	str	r0, [r4, #80]	; 0x50
    7fe0:	e7b5      	b.n	7f4e <__sflush_r+0x72>
    7fe2:	6be2      	ldr	r2, [r4, #60]	; 0x3c
    7fe4:	2a00      	cmp	r2, #0
    7fe6:	dd00      	ble.n	7fea <__sflush_r+0x10e>
    7fe8:	e78a      	b.n	7f00 <__sflush_r+0x24>
    7fea:	e7be      	b.n	7f6a <__sflush_r+0x8e>
    7fec:	2200      	movs	r2, #0
    7fee:	2301      	movs	r3, #1
    7ff0:	69e1      	ldr	r1, [r4, #28]
    7ff2:	4640      	mov	r0, r8
    7ff4:	47b0      	blx	r6
    7ff6:	0002      	movs	r2, r0
    7ff8:	1c43      	adds	r3, r0, #1
    7ffa:	d002      	beq.n	8002 <__sflush_r+0x126>
    7ffc:	89a3      	ldrh	r3, [r4, #12]
    7ffe:	6aa6      	ldr	r6, [r4, #40]	; 0x28
    8000:	e78b      	b.n	7f1a <__sflush_r+0x3e>
    8002:	4643      	mov	r3, r8
    8004:	681b      	ldr	r3, [r3, #0]
    8006:	2b00      	cmp	r3, #0
    8008:	d0f8      	beq.n	7ffc <__sflush_r+0x120>
    800a:	2b1d      	cmp	r3, #29
    800c:	d001      	beq.n	8012 <__sflush_r+0x136>
    800e:	2b16      	cmp	r3, #22
    8010:	d103      	bne.n	801a <__sflush_r+0x13e>
    8012:	4643      	mov	r3, r8
    8014:	2000      	movs	r0, #0
    8016:	601d      	str	r5, [r3, #0]
    8018:	e7a8      	b.n	7f6c <__sflush_r+0x90>
    801a:	2140      	movs	r1, #64	; 0x40
    801c:	89a3      	ldrh	r3, [r4, #12]
    801e:	430b      	orrs	r3, r1
    8020:	81a3      	strh	r3, [r4, #12]
    8022:	e7a3      	b.n	7f6c <__sflush_r+0x90>
    8024:	fffff7ff 	.word	0xfffff7ff
    8028:	20400001 	.word	0x20400001

0000802c <_fflush_r>:
    802c:	b570      	push	{r4, r5, r6, lr}
    802e:	0005      	movs	r5, r0
    8030:	000c      	movs	r4, r1
    8032:	2800      	cmp	r0, #0
    8034:	d002      	beq.n	803c <_fflush_r+0x10>
    8036:	6b83      	ldr	r3, [r0, #56]	; 0x38
    8038:	2b00      	cmp	r3, #0
    803a:	d016      	beq.n	806a <_fflush_r+0x3e>
    803c:	220c      	movs	r2, #12
    803e:	5ea3      	ldrsh	r3, [r4, r2]
    8040:	2600      	movs	r6, #0
    8042:	2b00      	cmp	r3, #0
    8044:	d00f      	beq.n	8066 <_fflush_r+0x3a>
    8046:	6e62      	ldr	r2, [r4, #100]	; 0x64
    8048:	07d2      	lsls	r2, r2, #31
    804a:	d401      	bmi.n	8050 <_fflush_r+0x24>
    804c:	059b      	lsls	r3, r3, #22
    804e:	d513      	bpl.n	8078 <_fflush_r+0x4c>
    8050:	0021      	movs	r1, r4
    8052:	0028      	movs	r0, r5
    8054:	f7ff ff42 	bl	7edc <__sflush_r>
    8058:	6e63      	ldr	r3, [r4, #100]	; 0x64
    805a:	0006      	movs	r6, r0
    805c:	07db      	lsls	r3, r3, #31
    805e:	d402      	bmi.n	8066 <_fflush_r+0x3a>
    8060:	89a3      	ldrh	r3, [r4, #12]
    8062:	059b      	lsls	r3, r3, #22
    8064:	d504      	bpl.n	8070 <_fflush_r+0x44>
    8066:	0030      	movs	r0, r6
    8068:	bd70      	pop	{r4, r5, r6, pc}
    806a:	f000 f839 	bl	80e0 <__sinit>
    806e:	e7e5      	b.n	803c <_fflush_r+0x10>
    8070:	6da0      	ldr	r0, [r4, #88]	; 0x58
    8072:	f000 fb79 	bl	8768 <__retarget_lock_release_recursive>
    8076:	e7f6      	b.n	8066 <_fflush_r+0x3a>
    8078:	6da0      	ldr	r0, [r4, #88]	; 0x58
    807a:	f000 fb73 	bl	8764 <__retarget_lock_acquire_recursive>
    807e:	e7e7      	b.n	8050 <_fflush_r+0x24>

00008080 <_cleanup_r>:
    8080:	b510      	push	{r4, lr}
    8082:	4902      	ldr	r1, [pc, #8]	; (808c <_cleanup_r+0xc>)
    8084:	f000 fb36 	bl	86f4 <_fwalk_reent>
    8088:	bd10      	pop	{r4, pc}
    808a:	46c0      	nop			; (mov r8, r8)
    808c:	00009c99 	.word	0x00009c99

00008090 <std.isra.0>:
    8090:	2300      	movs	r3, #0
    8092:	b510      	push	{r4, lr}
    8094:	0004      	movs	r4, r0
    8096:	6003      	str	r3, [r0, #0]
    8098:	6043      	str	r3, [r0, #4]
    809a:	6083      	str	r3, [r0, #8]
    809c:	8181      	strh	r1, [r0, #12]
    809e:	6643      	str	r3, [r0, #100]	; 0x64
    80a0:	81c2      	strh	r2, [r0, #14]
    80a2:	6103      	str	r3, [r0, #16]
    80a4:	6143      	str	r3, [r0, #20]
    80a6:	6183      	str	r3, [r0, #24]
    80a8:	2208      	movs	r2, #8
    80aa:	2100      	movs	r1, #0
    80ac:	305c      	adds	r0, #92	; 0x5c
    80ae:	f7fd f8b7 	bl	5220 <memset>
    80b2:	0020      	movs	r0, r4
    80b4:	4b06      	ldr	r3, [pc, #24]	; (80d0 <std.isra.0+0x40>)
    80b6:	61e4      	str	r4, [r4, #28]
    80b8:	6223      	str	r3, [r4, #32]
    80ba:	4b06      	ldr	r3, [pc, #24]	; (80d4 <std.isra.0+0x44>)
    80bc:	3058      	adds	r0, #88	; 0x58
    80be:	6263      	str	r3, [r4, #36]	; 0x24
    80c0:	4b05      	ldr	r3, [pc, #20]	; (80d8 <std.isra.0+0x48>)
    80c2:	62a3      	str	r3, [r4, #40]	; 0x28
    80c4:	4b05      	ldr	r3, [pc, #20]	; (80dc <std.isra.0+0x4c>)
    80c6:	62e3      	str	r3, [r4, #44]	; 0x2c
    80c8:	f000 fb48 	bl	875c <__retarget_lock_init_recursive>
    80cc:	bd10      	pop	{r4, pc}
    80ce:	46c0      	nop			; (mov r8, r8)
    80d0:	000099cd 	.word	0x000099cd
    80d4:	000099f5 	.word	0x000099f5
    80d8:	00009a31 	.word	0x00009a31
    80dc:	00009a5d 	.word	0x00009a5d

000080e0 <__sinit>:
    80e0:	b570      	push	{r4, r5, r6, lr}
    80e2:	0004      	movs	r4, r0
    80e4:	4d14      	ldr	r5, [pc, #80]	; (8138 <__sinit+0x58>)
    80e6:	0028      	movs	r0, r5
    80e8:	f000 fb3c 	bl	8764 <__retarget_lock_acquire_recursive>
    80ec:	6ba3      	ldr	r3, [r4, #56]	; 0x38
    80ee:	2b00      	cmp	r3, #0
    80f0:	d11d      	bne.n	812e <__sinit+0x4e>
    80f2:	4a12      	ldr	r2, [pc, #72]	; (813c <__sinit+0x5c>)
    80f4:	2104      	movs	r1, #4
    80f6:	63e2      	str	r2, [r4, #60]	; 0x3c
    80f8:	22b8      	movs	r2, #184	; 0xb8
    80fa:	0092      	lsls	r2, r2, #2
    80fc:	50a3      	str	r3, [r4, r2]
    80fe:	23b9      	movs	r3, #185	; 0xb9
    8100:	2203      	movs	r2, #3
    8102:	009b      	lsls	r3, r3, #2
    8104:	50e2      	str	r2, [r4, r3]
    8106:	3308      	adds	r3, #8
    8108:	18e2      	adds	r2, r4, r3
    810a:	3b04      	subs	r3, #4
    810c:	50e2      	str	r2, [r4, r3]
    810e:	6860      	ldr	r0, [r4, #4]
    8110:	2200      	movs	r2, #0
    8112:	f7ff ffbd 	bl	8090 <std.isra.0>
    8116:	2201      	movs	r2, #1
    8118:	2109      	movs	r1, #9
    811a:	68a0      	ldr	r0, [r4, #8]
    811c:	f7ff ffb8 	bl	8090 <std.isra.0>
    8120:	2202      	movs	r2, #2
    8122:	2112      	movs	r1, #18
    8124:	68e0      	ldr	r0, [r4, #12]
    8126:	f7ff ffb3 	bl	8090 <std.isra.0>
    812a:	2301      	movs	r3, #1
    812c:	63a3      	str	r3, [r4, #56]	; 0x38
    812e:	0028      	movs	r0, r5
    8130:	f000 fb1a 	bl	8768 <__retarget_lock_release_recursive>
    8134:	bd70      	pop	{r4, r5, r6, pc}
    8136:	46c0      	nop			; (mov r8, r8)
    8138:	20000a7c 	.word	0x20000a7c
    813c:	00008081 	.word	0x00008081

00008140 <__sfp_lock_acquire>:
    8140:	b510      	push	{r4, lr}
    8142:	4802      	ldr	r0, [pc, #8]	; (814c <__sfp_lock_acquire+0xc>)
    8144:	f000 fb0e 	bl	8764 <__retarget_lock_acquire_recursive>
    8148:	bd10      	pop	{r4, pc}
    814a:	46c0      	nop			; (mov r8, r8)
    814c:	20000a90 	.word	0x20000a90

00008150 <__sfp_lock_release>:
    8150:	b510      	push	{r4, lr}
    8152:	4802      	ldr	r0, [pc, #8]	; (815c <__sfp_lock_release+0xc>)
    8154:	f000 fb08 	bl	8768 <__retarget_lock_release_recursive>
    8158:	bd10      	pop	{r4, pc}
    815a:	46c0      	nop			; (mov r8, r8)
    815c:	20000a90 	.word	0x20000a90

00008160 <__libc_fini_array>:
    8160:	b570      	push	{r4, r5, r6, lr}
    8162:	4b09      	ldr	r3, [pc, #36]	; (8188 <__libc_fini_array+0x28>)
    8164:	4c09      	ldr	r4, [pc, #36]	; (818c <__libc_fini_array+0x2c>)
    8166:	1ae4      	subs	r4, r4, r3
    8168:	10a4      	asrs	r4, r4, #2
    816a:	d009      	beq.n	8180 <__libc_fini_array+0x20>
    816c:	4a08      	ldr	r2, [pc, #32]	; (8190 <__libc_fini_array+0x30>)
    816e:	18a5      	adds	r5, r4, r2
    8170:	00ad      	lsls	r5, r5, #2
    8172:	18ed      	adds	r5, r5, r3
    8174:	682b      	ldr	r3, [r5, #0]
    8176:	3c01      	subs	r4, #1
    8178:	4798      	blx	r3
    817a:	3d04      	subs	r5, #4
    817c:	2c00      	cmp	r4, #0
    817e:	d1f9      	bne.n	8174 <__libc_fini_array+0x14>
    8180:	f002 faf0 	bl	a764 <_fini>
    8184:	bd70      	pop	{r4, r5, r6, pc}
    8186:	46c0      	nop			; (mov r8, r8)
    8188:	0000a770 	.word	0x0000a770
    818c:	0000a774 	.word	0x0000a774
    8190:	3fffffff 	.word	0x3fffffff

00008194 <_malloc_trim_r>:
    8194:	b5f8      	push	{r3, r4, r5, r6, r7, lr}
    8196:	000c      	movs	r4, r1
    8198:	0006      	movs	r6, r0
    819a:	f000 feef 	bl	8f7c <__malloc_lock>
    819e:	4f20      	ldr	r7, [pc, #128]	; (8220 <_malloc_trim_r+0x8c>)
    81a0:	68bb      	ldr	r3, [r7, #8]
    81a2:	685d      	ldr	r5, [r3, #4]
    81a4:	2303      	movs	r3, #3
    81a6:	439d      	bics	r5, r3
    81a8:	4b1e      	ldr	r3, [pc, #120]	; (8224 <_malloc_trim_r+0x90>)
    81aa:	1b2c      	subs	r4, r5, r4
    81ac:	469c      	mov	ip, r3
    81ae:	4464      	add	r4, ip
    81b0:	0b24      	lsrs	r4, r4, #12
    81b2:	4b1d      	ldr	r3, [pc, #116]	; (8228 <_malloc_trim_r+0x94>)
    81b4:	3c01      	subs	r4, #1
    81b6:	0324      	lsls	r4, r4, #12
    81b8:	429c      	cmp	r4, r3
    81ba:	dd07      	ble.n	81cc <_malloc_trim_r+0x38>
    81bc:	2100      	movs	r1, #0
    81be:	0030      	movs	r0, r6
    81c0:	f001 fbf2 	bl	99a8 <_sbrk_r>
    81c4:	68bb      	ldr	r3, [r7, #8]
    81c6:	195b      	adds	r3, r3, r5
    81c8:	4298      	cmp	r0, r3
    81ca:	d004      	beq.n	81d6 <_malloc_trim_r+0x42>
    81cc:	0030      	movs	r0, r6
    81ce:	f000 fedd 	bl	8f8c <__malloc_unlock>
    81d2:	2000      	movs	r0, #0
    81d4:	bdf8      	pop	{r3, r4, r5, r6, r7, pc}
    81d6:	4261      	negs	r1, r4
    81d8:	0030      	movs	r0, r6
    81da:	f001 fbe5 	bl	99a8 <_sbrk_r>
    81de:	1c43      	adds	r3, r0, #1
    81e0:	d00d      	beq.n	81fe <_malloc_trim_r+0x6a>
    81e2:	2201      	movs	r2, #1
    81e4:	68bb      	ldr	r3, [r7, #8]
    81e6:	1b2d      	subs	r5, r5, r4
    81e8:	4315      	orrs	r5, r2
    81ea:	605d      	str	r5, [r3, #4]
    81ec:	4b0f      	ldr	r3, [pc, #60]	; (822c <_malloc_trim_r+0x98>)
    81ee:	0030      	movs	r0, r6
    81f0:	681a      	ldr	r2, [r3, #0]
    81f2:	1b14      	subs	r4, r2, r4
    81f4:	601c      	str	r4, [r3, #0]
    81f6:	f000 fec9 	bl	8f8c <__malloc_unlock>
    81fa:	2001      	movs	r0, #1
    81fc:	e7ea      	b.n	81d4 <_malloc_trim_r+0x40>
    81fe:	2100      	movs	r1, #0
    8200:	0030      	movs	r0, r6
    8202:	f001 fbd1 	bl	99a8 <_sbrk_r>
    8206:	68ba      	ldr	r2, [r7, #8]
    8208:	1a83      	subs	r3, r0, r2
    820a:	2b0f      	cmp	r3, #15
    820c:	ddde      	ble.n	81cc <_malloc_trim_r+0x38>
    820e:	4908      	ldr	r1, [pc, #32]	; (8230 <_malloc_trim_r+0x9c>)
    8210:	6809      	ldr	r1, [r1, #0]
    8212:	1a40      	subs	r0, r0, r1
    8214:	4905      	ldr	r1, [pc, #20]	; (822c <_malloc_trim_r+0x98>)
    8216:	6008      	str	r0, [r1, #0]
    8218:	2101      	movs	r1, #1
    821a:	430b      	orrs	r3, r1
    821c:	6053      	str	r3, [r2, #4]
    821e:	e7d5      	b.n	81cc <_malloc_trim_r+0x38>
    8220:	20000434 	.word	0x20000434
    8224:	00000fef 	.word	0x00000fef
    8228:	00000fff 	.word	0x00000fff
    822c:	200009dc 	.word	0x200009dc
    8230:	2000083c 	.word	0x2000083c

00008234 <_free_r>:
    8234:	b5f8      	push	{r3, r4, r5, r6, r7, lr}
    8236:	0004      	movs	r4, r0
    8238:	1e0d      	subs	r5, r1, #0
    823a:	d03c      	beq.n	82b6 <_free_r+0x82>
    823c:	f000 fe9e 	bl	8f7c <__malloc_lock>
    8240:	0029      	movs	r1, r5
    8242:	3908      	subs	r1, #8
    8244:	6848      	ldr	r0, [r1, #4]
    8246:	2301      	movs	r3, #1
    8248:	0005      	movs	r5, r0
    824a:	2603      	movs	r6, #3
    824c:	439d      	bics	r5, r3
    824e:	194a      	adds	r2, r1, r5
    8250:	469c      	mov	ip, r3
    8252:	4f61      	ldr	r7, [pc, #388]	; (83d8 <_free_r+0x1a4>)
    8254:	6853      	ldr	r3, [r2, #4]
    8256:	43b3      	bics	r3, r6
    8258:	68be      	ldr	r6, [r7, #8]
    825a:	42b2      	cmp	r2, r6
    825c:	d056      	beq.n	830c <_free_r+0xd8>
    825e:	4666      	mov	r6, ip
    8260:	6053      	str	r3, [r2, #4]
    8262:	4206      	tst	r6, r0
    8264:	d10a      	bne.n	827c <_free_r+0x48>
    8266:	003e      	movs	r6, r7
    8268:	6808      	ldr	r0, [r1, #0]
    826a:	3608      	adds	r6, #8
    826c:	1a09      	subs	r1, r1, r0
    826e:	182d      	adds	r5, r5, r0
    8270:	6888      	ldr	r0, [r1, #8]
    8272:	42b0      	cmp	r0, r6
    8274:	d065      	beq.n	8342 <_free_r+0x10e>
    8276:	68ce      	ldr	r6, [r1, #12]
    8278:	60c6      	str	r6, [r0, #12]
    827a:	60b0      	str	r0, [r6, #8]
    827c:	2001      	movs	r0, #1
    827e:	18d6      	adds	r6, r2, r3
    8280:	6876      	ldr	r6, [r6, #4]
    8282:	4206      	tst	r6, r0
    8284:	d033      	beq.n	82ee <_free_r+0xba>
    8286:	4b55      	ldr	r3, [pc, #340]	; (83dc <_free_r+0x1a8>)
    8288:	4328      	orrs	r0, r5
    828a:	6048      	str	r0, [r1, #4]
    828c:	514d      	str	r5, [r1, r5]
    828e:	429d      	cmp	r5, r3
    8290:	d812      	bhi.n	82b8 <_free_r+0x84>
    8292:	08ed      	lsrs	r5, r5, #3
    8294:	3bff      	subs	r3, #255	; 0xff
    8296:	10aa      	asrs	r2, r5, #2
    8298:	3bff      	subs	r3, #255	; 0xff
    829a:	4093      	lsls	r3, r2
    829c:	687a      	ldr	r2, [r7, #4]
    829e:	00ed      	lsls	r5, r5, #3
    82a0:	4313      	orrs	r3, r2
    82a2:	607b      	str	r3, [r7, #4]
    82a4:	19ef      	adds	r7, r5, r7
    82a6:	68bb      	ldr	r3, [r7, #8]
    82a8:	60cf      	str	r7, [r1, #12]
    82aa:	608b      	str	r3, [r1, #8]
    82ac:	60b9      	str	r1, [r7, #8]
    82ae:	60d9      	str	r1, [r3, #12]
    82b0:	0020      	movs	r0, r4
    82b2:	f000 fe6b 	bl	8f8c <__malloc_unlock>
    82b6:	bdf8      	pop	{r3, r4, r5, r6, r7, pc}
    82b8:	0a68      	lsrs	r0, r5, #9
    82ba:	2804      	cmp	r0, #4
    82bc:	d850      	bhi.n	8360 <_free_r+0x12c>
    82be:	09a8      	lsrs	r0, r5, #6
    82c0:	0002      	movs	r2, r0
    82c2:	3039      	adds	r0, #57	; 0x39
    82c4:	3238      	adds	r2, #56	; 0x38
    82c6:	00c0      	lsls	r0, r0, #3
    82c8:	1838      	adds	r0, r7, r0
    82ca:	3808      	subs	r0, #8
    82cc:	6883      	ldr	r3, [r0, #8]
    82ce:	2603      	movs	r6, #3
    82d0:	4298      	cmp	r0, r3
    82d2:	d04c      	beq.n	836e <_free_r+0x13a>
    82d4:	685a      	ldr	r2, [r3, #4]
    82d6:	43b2      	bics	r2, r6
    82d8:	4295      	cmp	r5, r2
    82da:	d230      	bcs.n	833e <_free_r+0x10a>
    82dc:	689b      	ldr	r3, [r3, #8]
    82de:	4298      	cmp	r0, r3
    82e0:	d1f8      	bne.n	82d4 <_free_r+0xa0>
    82e2:	68c3      	ldr	r3, [r0, #12]
    82e4:	60cb      	str	r3, [r1, #12]
    82e6:	6088      	str	r0, [r1, #8]
    82e8:	6099      	str	r1, [r3, #8]
    82ea:	60c1      	str	r1, [r0, #12]
    82ec:	e7e0      	b.n	82b0 <_free_r+0x7c>
    82ee:	18ed      	adds	r5, r5, r3
    82f0:	4e3b      	ldr	r6, [pc, #236]	; (83e0 <_free_r+0x1ac>)
    82f2:	6893      	ldr	r3, [r2, #8]
    82f4:	42b3      	cmp	r3, r6
    82f6:	d042      	beq.n	837e <_free_r+0x14a>
    82f8:	68d2      	ldr	r2, [r2, #12]
    82fa:	4328      	orrs	r0, r5
    82fc:	60da      	str	r2, [r3, #12]
    82fe:	6093      	str	r3, [r2, #8]
    8300:	4b36      	ldr	r3, [pc, #216]	; (83dc <_free_r+0x1a8>)
    8302:	6048      	str	r0, [r1, #4]
    8304:	514d      	str	r5, [r1, r5]
    8306:	429d      	cmp	r5, r3
    8308:	d8d6      	bhi.n	82b8 <_free_r+0x84>
    830a:	e7c2      	b.n	8292 <_free_r+0x5e>
    830c:	4662      	mov	r2, ip
    830e:	18eb      	adds	r3, r5, r3
    8310:	4202      	tst	r2, r0
    8312:	d106      	bne.n	8322 <_free_r+0xee>
    8314:	680a      	ldr	r2, [r1, #0]
    8316:	1a89      	subs	r1, r1, r2
    8318:	6888      	ldr	r0, [r1, #8]
    831a:	189b      	adds	r3, r3, r2
    831c:	68ca      	ldr	r2, [r1, #12]
    831e:	60c2      	str	r2, [r0, #12]
    8320:	6090      	str	r0, [r2, #8]
    8322:	2201      	movs	r2, #1
    8324:	431a      	orrs	r2, r3
    8326:	604a      	str	r2, [r1, #4]
    8328:	4a2e      	ldr	r2, [pc, #184]	; (83e4 <_free_r+0x1b0>)
    832a:	60b9      	str	r1, [r7, #8]
    832c:	6812      	ldr	r2, [r2, #0]
    832e:	4293      	cmp	r3, r2
    8330:	d3be      	bcc.n	82b0 <_free_r+0x7c>
    8332:	4b2d      	ldr	r3, [pc, #180]	; (83e8 <_free_r+0x1b4>)
    8334:	0020      	movs	r0, r4
    8336:	6819      	ldr	r1, [r3, #0]
    8338:	f7ff ff2c 	bl	8194 <_malloc_trim_r>
    833c:	e7b8      	b.n	82b0 <_free_r+0x7c>
    833e:	0018      	movs	r0, r3
    8340:	e7cf      	b.n	82e2 <_free_r+0xae>
    8342:	4666      	mov	r6, ip
    8344:	18d0      	adds	r0, r2, r3
    8346:	6840      	ldr	r0, [r0, #4]
    8348:	4230      	tst	r0, r6
    834a:	d13f      	bne.n	83cc <_free_r+0x198>
    834c:	6890      	ldr	r0, [r2, #8]
    834e:	195d      	adds	r5, r3, r5
    8350:	68d3      	ldr	r3, [r2, #12]
    8352:	60c3      	str	r3, [r0, #12]
    8354:	6098      	str	r0, [r3, #8]
    8356:	4663      	mov	r3, ip
    8358:	432b      	orrs	r3, r5
    835a:	604b      	str	r3, [r1, #4]
    835c:	514d      	str	r5, [r1, r5]
    835e:	e7a7      	b.n	82b0 <_free_r+0x7c>
    8360:	2814      	cmp	r0, #20
    8362:	d814      	bhi.n	838e <_free_r+0x15a>
    8364:	0002      	movs	r2, r0
    8366:	305c      	adds	r0, #92	; 0x5c
    8368:	325b      	adds	r2, #91	; 0x5b
    836a:	00c0      	lsls	r0, r0, #3
    836c:	e7ac      	b.n	82c8 <_free_r+0x94>
    836e:	2301      	movs	r3, #1
    8370:	1092      	asrs	r2, r2, #2
    8372:	4093      	lsls	r3, r2
    8374:	687a      	ldr	r2, [r7, #4]
    8376:	4313      	orrs	r3, r2
    8378:	607b      	str	r3, [r7, #4]
    837a:	0003      	movs	r3, r0
    837c:	e7b2      	b.n	82e4 <_free_r+0xb0>
    837e:	4328      	orrs	r0, r5
    8380:	60d9      	str	r1, [r3, #12]
    8382:	6099      	str	r1, [r3, #8]
    8384:	60cb      	str	r3, [r1, #12]
    8386:	608b      	str	r3, [r1, #8]
    8388:	6048      	str	r0, [r1, #4]
    838a:	514d      	str	r5, [r1, r5]
    838c:	e790      	b.n	82b0 <_free_r+0x7c>
    838e:	2854      	cmp	r0, #84	; 0x54
    8390:	d805      	bhi.n	839e <_free_r+0x16a>
    8392:	0b28      	lsrs	r0, r5, #12
    8394:	0002      	movs	r2, r0
    8396:	306f      	adds	r0, #111	; 0x6f
    8398:	326e      	adds	r2, #110	; 0x6e
    839a:	00c0      	lsls	r0, r0, #3
    839c:	e794      	b.n	82c8 <_free_r+0x94>
    839e:	22aa      	movs	r2, #170	; 0xaa
    83a0:	0052      	lsls	r2, r2, #1
    83a2:	4290      	cmp	r0, r2
    83a4:	d805      	bhi.n	83b2 <_free_r+0x17e>
    83a6:	0be8      	lsrs	r0, r5, #15
    83a8:	0002      	movs	r2, r0
    83aa:	3078      	adds	r0, #120	; 0x78
    83ac:	3277      	adds	r2, #119	; 0x77
    83ae:	00c0      	lsls	r0, r0, #3
    83b0:	e78a      	b.n	82c8 <_free_r+0x94>
    83b2:	4a0e      	ldr	r2, [pc, #56]	; (83ec <_free_r+0x1b8>)
    83b4:	4290      	cmp	r0, r2
    83b6:	d805      	bhi.n	83c4 <_free_r+0x190>
    83b8:	0ca8      	lsrs	r0, r5, #18
    83ba:	0002      	movs	r2, r0
    83bc:	307d      	adds	r0, #125	; 0x7d
    83be:	327c      	adds	r2, #124	; 0x7c
    83c0:	00c0      	lsls	r0, r0, #3
    83c2:	e781      	b.n	82c8 <_free_r+0x94>
    83c4:	20fe      	movs	r0, #254	; 0xfe
    83c6:	227e      	movs	r2, #126	; 0x7e
    83c8:	0080      	lsls	r0, r0, #2
    83ca:	e77d      	b.n	82c8 <_free_r+0x94>
    83cc:	4663      	mov	r3, ip
    83ce:	432b      	orrs	r3, r5
    83d0:	604b      	str	r3, [r1, #4]
    83d2:	6015      	str	r5, [r2, #0]
    83d4:	e76c      	b.n	82b0 <_free_r+0x7c>
    83d6:	46c0      	nop			; (mov r8, r8)
    83d8:	20000434 	.word	0x20000434
    83dc:	000001ff 	.word	0x000001ff
    83e0:	2000043c 	.word	0x2000043c
    83e4:	20000840 	.word	0x20000840
    83e8:	20000a0c 	.word	0x20000a0c
    83ec:	00000554 	.word	0x00000554

000083f0 <__sfvwrite_r>:
    83f0:	b5f0      	push	{r4, r5, r6, r7, lr}
    83f2:	464e      	mov	r6, r9
    83f4:	46de      	mov	lr, fp
    83f6:	4657      	mov	r7, sl
    83f8:	4645      	mov	r5, r8
    83fa:	b5e0      	push	{r5, r6, r7, lr}
    83fc:	6893      	ldr	r3, [r2, #8]
    83fe:	b083      	sub	sp, #12
    8400:	9000      	str	r0, [sp, #0]
    8402:	000c      	movs	r4, r1
    8404:	0016      	movs	r6, r2
    8406:	2b00      	cmp	r3, #0
    8408:	d025      	beq.n	8456 <__sfvwrite_r+0x66>
    840a:	898b      	ldrh	r3, [r1, #12]
    840c:	071a      	lsls	r2, r3, #28
    840e:	d52a      	bpl.n	8466 <__sfvwrite_r+0x76>
    8410:	690a      	ldr	r2, [r1, #16]
    8412:	2a00      	cmp	r2, #0
    8414:	d027      	beq.n	8466 <__sfvwrite_r+0x76>
    8416:	6832      	ldr	r2, [r6, #0]
    8418:	4693      	mov	fp, r2
    841a:	079a      	lsls	r2, r3, #30
    841c:	d52f      	bpl.n	847e <__sfvwrite_r+0x8e>
    841e:	4bb2      	ldr	r3, [pc, #712]	; (86e8 <__sfvwrite_r+0x2f8>)
    8420:	2700      	movs	r7, #0
    8422:	2500      	movs	r5, #0
    8424:	4698      	mov	r8, r3
    8426:	46b1      	mov	r9, r6
    8428:	2d00      	cmp	r5, #0
    842a:	d100      	bne.n	842e <__sfvwrite_r+0x3e>
    842c:	e072      	b.n	8514 <__sfvwrite_r+0x124>
    842e:	002b      	movs	r3, r5
    8430:	4545      	cmp	r5, r8
    8432:	d900      	bls.n	8436 <__sfvwrite_r+0x46>
    8434:	4bac      	ldr	r3, [pc, #688]	; (86e8 <__sfvwrite_r+0x2f8>)
    8436:	003a      	movs	r2, r7
    8438:	69e1      	ldr	r1, [r4, #28]
    843a:	9800      	ldr	r0, [sp, #0]
    843c:	6a66      	ldr	r6, [r4, #36]	; 0x24
    843e:	47b0      	blx	r6
    8440:	2800      	cmp	r0, #0
    8442:	dc00      	bgt.n	8446 <__sfvwrite_r+0x56>
    8444:	e073      	b.n	852e <__sfvwrite_r+0x13e>
    8446:	464b      	mov	r3, r9
    8448:	689b      	ldr	r3, [r3, #8]
    844a:	183f      	adds	r7, r7, r0
    844c:	1a2d      	subs	r5, r5, r0
    844e:	1a18      	subs	r0, r3, r0
    8450:	464b      	mov	r3, r9
    8452:	6098      	str	r0, [r3, #8]
    8454:	d1e8      	bne.n	8428 <__sfvwrite_r+0x38>
    8456:	2000      	movs	r0, #0
    8458:	b003      	add	sp, #12
    845a:	bc3c      	pop	{r2, r3, r4, r5}
    845c:	4690      	mov	r8, r2
    845e:	4699      	mov	r9, r3
    8460:	46a2      	mov	sl, r4
    8462:	46ab      	mov	fp, r5
    8464:	bdf0      	pop	{r4, r5, r6, r7, pc}
    8466:	0021      	movs	r1, r4
    8468:	9800      	ldr	r0, [sp, #0]
    846a:	f7fe fc4b 	bl	6d04 <__swsetup_r>
    846e:	2800      	cmp	r0, #0
    8470:	d000      	beq.n	8474 <__sfvwrite_r+0x84>
    8472:	e130      	b.n	86d6 <__sfvwrite_r+0x2e6>
    8474:	6832      	ldr	r2, [r6, #0]
    8476:	89a3      	ldrh	r3, [r4, #12]
    8478:	4693      	mov	fp, r2
    847a:	079a      	lsls	r2, r3, #30
    847c:	d4cf      	bmi.n	841e <__sfvwrite_r+0x2e>
    847e:	07da      	lsls	r2, r3, #31
    8480:	d55d      	bpl.n	853e <__sfvwrite_r+0x14e>
    8482:	2300      	movs	r3, #0
    8484:	2000      	movs	r0, #0
    8486:	469a      	mov	sl, r3
    8488:	2700      	movs	r7, #0
    848a:	001d      	movs	r5, r3
    848c:	46b1      	mov	r9, r6
    848e:	e029      	b.n	84e4 <__sfvwrite_r+0xf4>
    8490:	2800      	cmp	r0, #0
    8492:	d033      	beq.n	84fc <__sfvwrite_r+0x10c>
    8494:	46a8      	mov	r8, r5
    8496:	42bd      	cmp	r5, r7
    8498:	d900      	bls.n	849c <__sfvwrite_r+0xac>
    849a:	46b8      	mov	r8, r7
    849c:	6820      	ldr	r0, [r4, #0]
    849e:	6922      	ldr	r2, [r4, #16]
    84a0:	4646      	mov	r6, r8
    84a2:	6963      	ldr	r3, [r4, #20]
    84a4:	4290      	cmp	r0, r2
    84a6:	d907      	bls.n	84b8 <__sfvwrite_r+0xc8>
    84a8:	68a2      	ldr	r2, [r4, #8]
    84aa:	4694      	mov	ip, r2
    84ac:	449c      	add	ip, r3
    84ae:	4662      	mov	r2, ip
    84b0:	9201      	str	r2, [sp, #4]
    84b2:	45e0      	cmp	r8, ip
    84b4:	dd00      	ble.n	84b8 <__sfvwrite_r+0xc8>
    84b6:	e0e9      	b.n	868c <__sfvwrite_r+0x29c>
    84b8:	4598      	cmp	r8, r3
    84ba:	da00      	bge.n	84be <__sfvwrite_r+0xce>
    84bc:	e08f      	b.n	85de <__sfvwrite_r+0x1ee>
    84be:	6a66      	ldr	r6, [r4, #36]	; 0x24
    84c0:	4652      	mov	r2, sl
    84c2:	69e1      	ldr	r1, [r4, #28]
    84c4:	9800      	ldr	r0, [sp, #0]
    84c6:	47b0      	blx	r6
    84c8:	1e06      	subs	r6, r0, #0
    84ca:	dd30      	ble.n	852e <__sfvwrite_r+0x13e>
    84cc:	1bad      	subs	r5, r5, r6
    84ce:	2001      	movs	r0, #1
    84d0:	2d00      	cmp	r5, #0
    84d2:	d026      	beq.n	8522 <__sfvwrite_r+0x132>
    84d4:	464b      	mov	r3, r9
    84d6:	689b      	ldr	r3, [r3, #8]
    84d8:	44b2      	add	sl, r6
    84da:	1bbf      	subs	r7, r7, r6
    84dc:	1b9e      	subs	r6, r3, r6
    84de:	464b      	mov	r3, r9
    84e0:	609e      	str	r6, [r3, #8]
    84e2:	d0b8      	beq.n	8456 <__sfvwrite_r+0x66>
    84e4:	2f00      	cmp	r7, #0
    84e6:	d1d3      	bne.n	8490 <__sfvwrite_r+0xa0>
    84e8:	465b      	mov	r3, fp
    84ea:	681b      	ldr	r3, [r3, #0]
    84ec:	469a      	mov	sl, r3
    84ee:	465b      	mov	r3, fp
    84f0:	685f      	ldr	r7, [r3, #4]
    84f2:	2308      	movs	r3, #8
    84f4:	469c      	mov	ip, r3
    84f6:	44e3      	add	fp, ip
    84f8:	2f00      	cmp	r7, #0
    84fa:	d0f5      	beq.n	84e8 <__sfvwrite_r+0xf8>
    84fc:	003a      	movs	r2, r7
    84fe:	210a      	movs	r1, #10
    8500:	4650      	mov	r0, sl
    8502:	f000 fc69 	bl	8dd8 <memchr>
    8506:	2800      	cmp	r0, #0
    8508:	d100      	bne.n	850c <__sfvwrite_r+0x11c>
    850a:	e0e2      	b.n	86d2 <__sfvwrite_r+0x2e2>
    850c:	4653      	mov	r3, sl
    850e:	3001      	adds	r0, #1
    8510:	1ac5      	subs	r5, r0, r3
    8512:	e7bf      	b.n	8494 <__sfvwrite_r+0xa4>
    8514:	465b      	mov	r3, fp
    8516:	681f      	ldr	r7, [r3, #0]
    8518:	685d      	ldr	r5, [r3, #4]
    851a:	2308      	movs	r3, #8
    851c:	469c      	mov	ip, r3
    851e:	44e3      	add	fp, ip
    8520:	e782      	b.n	8428 <__sfvwrite_r+0x38>
    8522:	0021      	movs	r1, r4
    8524:	9800      	ldr	r0, [sp, #0]
    8526:	f7ff fd81 	bl	802c <_fflush_r>
    852a:	2800      	cmp	r0, #0
    852c:	d0d2      	beq.n	84d4 <__sfvwrite_r+0xe4>
    852e:	220c      	movs	r2, #12
    8530:	5ea3      	ldrsh	r3, [r4, r2]
    8532:	2240      	movs	r2, #64	; 0x40
    8534:	2001      	movs	r0, #1
    8536:	4313      	orrs	r3, r2
    8538:	81a3      	strh	r3, [r4, #12]
    853a:	4240      	negs	r0, r0
    853c:	e78c      	b.n	8458 <__sfvwrite_r+0x68>
    853e:	2200      	movs	r2, #0
    8540:	4691      	mov	r9, r2
    8542:	464d      	mov	r5, r9
    8544:	2d00      	cmp	r5, #0
    8546:	d023      	beq.n	8590 <__sfvwrite_r+0x1a0>
    8548:	68a2      	ldr	r2, [r4, #8]
    854a:	4690      	mov	r8, r2
    854c:	2280      	movs	r2, #128	; 0x80
    854e:	0092      	lsls	r2, r2, #2
    8550:	4213      	tst	r3, r2
    8552:	d026      	beq.n	85a2 <__sfvwrite_r+0x1b2>
    8554:	46c2      	mov	sl, r8
    8556:	4545      	cmp	r5, r8
    8558:	d34d      	bcc.n	85f6 <__sfvwrite_r+0x206>
    855a:	2290      	movs	r2, #144	; 0x90
    855c:	00d2      	lsls	r2, r2, #3
    855e:	4213      	tst	r3, r2
    8560:	d14e      	bne.n	8600 <__sfvwrite_r+0x210>
    8562:	002f      	movs	r7, r5
    8564:	6820      	ldr	r0, [r4, #0]
    8566:	4652      	mov	r2, sl
    8568:	4649      	mov	r1, r9
    856a:	f000 fcb7 	bl	8edc <memmove>
    856e:	4642      	mov	r2, r8
    8570:	68a3      	ldr	r3, [r4, #8]
    8572:	1a98      	subs	r0, r3, r2
    8574:	6823      	ldr	r3, [r4, #0]
    8576:	60a0      	str	r0, [r4, #8]
    8578:	4453      	add	r3, sl
    857a:	6023      	str	r3, [r4, #0]
    857c:	68b3      	ldr	r3, [r6, #8]
    857e:	44b9      	add	r9, r7
    8580:	1bed      	subs	r5, r5, r7
    8582:	1bdf      	subs	r7, r3, r7
    8584:	60b7      	str	r7, [r6, #8]
    8586:	d100      	bne.n	858a <__sfvwrite_r+0x19a>
    8588:	e765      	b.n	8456 <__sfvwrite_r+0x66>
    858a:	89a3      	ldrh	r3, [r4, #12]
    858c:	2d00      	cmp	r5, #0
    858e:	d1db      	bne.n	8548 <__sfvwrite_r+0x158>
    8590:	465a      	mov	r2, fp
    8592:	6812      	ldr	r2, [r2, #0]
    8594:	4691      	mov	r9, r2
    8596:	465a      	mov	r2, fp
    8598:	6855      	ldr	r5, [r2, #4]
    859a:	2208      	movs	r2, #8
    859c:	4694      	mov	ip, r2
    859e:	44e3      	add	fp, ip
    85a0:	e7d0      	b.n	8544 <__sfvwrite_r+0x154>
    85a2:	6820      	ldr	r0, [r4, #0]
    85a4:	6923      	ldr	r3, [r4, #16]
    85a6:	4298      	cmp	r0, r3
    85a8:	d802      	bhi.n	85b0 <__sfvwrite_r+0x1c0>
    85aa:	6967      	ldr	r7, [r4, #20]
    85ac:	42bd      	cmp	r5, r7
    85ae:	d259      	bcs.n	8664 <__sfvwrite_r+0x274>
    85b0:	4647      	mov	r7, r8
    85b2:	42af      	cmp	r7, r5
    85b4:	d900      	bls.n	85b8 <__sfvwrite_r+0x1c8>
    85b6:	002f      	movs	r7, r5
    85b8:	003a      	movs	r2, r7
    85ba:	4649      	mov	r1, r9
    85bc:	f000 fc8e 	bl	8edc <memmove>
    85c0:	68a3      	ldr	r3, [r4, #8]
    85c2:	6822      	ldr	r2, [r4, #0]
    85c4:	1bdb      	subs	r3, r3, r7
    85c6:	19d2      	adds	r2, r2, r7
    85c8:	60a3      	str	r3, [r4, #8]
    85ca:	6022      	str	r2, [r4, #0]
    85cc:	2b00      	cmp	r3, #0
    85ce:	d1d5      	bne.n	857c <__sfvwrite_r+0x18c>
    85d0:	0021      	movs	r1, r4
    85d2:	9800      	ldr	r0, [sp, #0]
    85d4:	f7ff fd2a 	bl	802c <_fflush_r>
    85d8:	2800      	cmp	r0, #0
    85da:	d0cf      	beq.n	857c <__sfvwrite_r+0x18c>
    85dc:	e7a7      	b.n	852e <__sfvwrite_r+0x13e>
    85de:	4642      	mov	r2, r8
    85e0:	4651      	mov	r1, sl
    85e2:	f000 fc7b 	bl	8edc <memmove>
    85e6:	4642      	mov	r2, r8
    85e8:	68a3      	ldr	r3, [r4, #8]
    85ea:	1a9b      	subs	r3, r3, r2
    85ec:	60a3      	str	r3, [r4, #8]
    85ee:	6823      	ldr	r3, [r4, #0]
    85f0:	4443      	add	r3, r8
    85f2:	6023      	str	r3, [r4, #0]
    85f4:	e76a      	b.n	84cc <__sfvwrite_r+0xdc>
    85f6:	46a8      	mov	r8, r5
    85f8:	6820      	ldr	r0, [r4, #0]
    85fa:	002f      	movs	r7, r5
    85fc:	46aa      	mov	sl, r5
    85fe:	e7b2      	b.n	8566 <__sfvwrite_r+0x176>
    8600:	6921      	ldr	r1, [r4, #16]
    8602:	6822      	ldr	r2, [r4, #0]
    8604:	1a52      	subs	r2, r2, r1
    8606:	4692      	mov	sl, r2
    8608:	6962      	ldr	r2, [r4, #20]
    860a:	0057      	lsls	r7, r2, #1
    860c:	18bf      	adds	r7, r7, r2
    860e:	0ffa      	lsrs	r2, r7, #31
    8610:	19d7      	adds	r7, r2, r7
    8612:	4652      	mov	r2, sl
    8614:	1c50      	adds	r0, r2, #1
    8616:	107f      	asrs	r7, r7, #1
    8618:	1940      	adds	r0, r0, r5
    861a:	003a      	movs	r2, r7
    861c:	42b8      	cmp	r0, r7
    861e:	d901      	bls.n	8624 <__sfvwrite_r+0x234>
    8620:	0007      	movs	r7, r0
    8622:	0002      	movs	r2, r0
    8624:	055b      	lsls	r3, r3, #21
    8626:	d542      	bpl.n	86ae <__sfvwrite_r+0x2be>
    8628:	0011      	movs	r1, r2
    862a:	9800      	ldr	r0, [sp, #0]
    862c:	f000 f920 	bl	8870 <_malloc_r>
    8630:	4680      	mov	r8, r0
    8632:	1e03      	subs	r3, r0, #0
    8634:	d052      	beq.n	86dc <__sfvwrite_r+0x2ec>
    8636:	4652      	mov	r2, sl
    8638:	6921      	ldr	r1, [r4, #16]
    863a:	f000 fc0d 	bl	8e58 <memcpy>
    863e:	89a3      	ldrh	r3, [r4, #12]
    8640:	4a2a      	ldr	r2, [pc, #168]	; (86ec <__sfvwrite_r+0x2fc>)
    8642:	4013      	ands	r3, r2
    8644:	2280      	movs	r2, #128	; 0x80
    8646:	4313      	orrs	r3, r2
    8648:	81a3      	strh	r3, [r4, #12]
    864a:	4643      	mov	r3, r8
    864c:	4640      	mov	r0, r8
    864e:	6123      	str	r3, [r4, #16]
    8650:	4653      	mov	r3, sl
    8652:	4450      	add	r0, sl
    8654:	6167      	str	r7, [r4, #20]
    8656:	1aff      	subs	r7, r7, r3
    8658:	60a7      	str	r7, [r4, #8]
    865a:	6020      	str	r0, [r4, #0]
    865c:	46a8      	mov	r8, r5
    865e:	002f      	movs	r7, r5
    8660:	46aa      	mov	sl, r5
    8662:	e780      	b.n	8566 <__sfvwrite_r+0x176>
    8664:	4b22      	ldr	r3, [pc, #136]	; (86f0 <__sfvwrite_r+0x300>)
    8666:	0028      	movs	r0, r5
    8668:	429d      	cmp	r5, r3
    866a:	d900      	bls.n	866e <__sfvwrite_r+0x27e>
    866c:	0018      	movs	r0, r3
    866e:	0039      	movs	r1, r7
    8670:	f7fa fa28 	bl	2ac4 <__divsi3>
    8674:	003b      	movs	r3, r7
    8676:	464a      	mov	r2, r9
    8678:	4343      	muls	r3, r0
    867a:	69e1      	ldr	r1, [r4, #28]
    867c:	9800      	ldr	r0, [sp, #0]
    867e:	6a67      	ldr	r7, [r4, #36]	; 0x24
    8680:	47b8      	blx	r7
    8682:	2800      	cmp	r0, #0
    8684:	dc00      	bgt.n	8688 <__sfvwrite_r+0x298>
    8686:	e752      	b.n	852e <__sfvwrite_r+0x13e>
    8688:	0007      	movs	r7, r0
    868a:	e777      	b.n	857c <__sfvwrite_r+0x18c>
    868c:	4666      	mov	r6, ip
    868e:	4651      	mov	r1, sl
    8690:	f000 fc24 	bl	8edc <memmove>
    8694:	46b4      	mov	ip, r6
    8696:	6823      	ldr	r3, [r4, #0]
    8698:	0021      	movs	r1, r4
    869a:	4463      	add	r3, ip
    869c:	6023      	str	r3, [r4, #0]
    869e:	9800      	ldr	r0, [sp, #0]
    86a0:	f7ff fcc4 	bl	802c <_fflush_r>
    86a4:	2800      	cmp	r0, #0
    86a6:	d000      	beq.n	86aa <__sfvwrite_r+0x2ba>
    86a8:	e741      	b.n	852e <__sfvwrite_r+0x13e>
    86aa:	9e01      	ldr	r6, [sp, #4]
    86ac:	e70e      	b.n	84cc <__sfvwrite_r+0xdc>
    86ae:	9800      	ldr	r0, [sp, #0]
    86b0:	f000 ffbc 	bl	962c <_realloc_r>
    86b4:	4680      	mov	r8, r0
    86b6:	2800      	cmp	r0, #0
    86b8:	d1c7      	bne.n	864a <__sfvwrite_r+0x25a>
    86ba:	9d00      	ldr	r5, [sp, #0]
    86bc:	6921      	ldr	r1, [r4, #16]
    86be:	0028      	movs	r0, r5
    86c0:	f7ff fdb8 	bl	8234 <_free_r>
    86c4:	2280      	movs	r2, #128	; 0x80
    86c6:	89a3      	ldrh	r3, [r4, #12]
    86c8:	4393      	bics	r3, r2
    86ca:	3a74      	subs	r2, #116	; 0x74
    86cc:	b21b      	sxth	r3, r3
    86ce:	602a      	str	r2, [r5, #0]
    86d0:	e72f      	b.n	8532 <__sfvwrite_r+0x142>
    86d2:	1c7d      	adds	r5, r7, #1
    86d4:	e6de      	b.n	8494 <__sfvwrite_r+0xa4>
    86d6:	2001      	movs	r0, #1
    86d8:	4240      	negs	r0, r0
    86da:	e6bd      	b.n	8458 <__sfvwrite_r+0x68>
    86dc:	9a00      	ldr	r2, [sp, #0]
    86de:	330c      	adds	r3, #12
    86e0:	6013      	str	r3, [r2, #0]
    86e2:	220c      	movs	r2, #12
    86e4:	5ea3      	ldrsh	r3, [r4, r2]
    86e6:	e724      	b.n	8532 <__sfvwrite_r+0x142>
    86e8:	7ffffc00 	.word	0x7ffffc00
    86ec:	fffffb7f 	.word	0xfffffb7f
    86f0:	7fffffff 	.word	0x7fffffff

000086f4 <_fwalk_reent>:
    86f4:	b5f8      	push	{r3, r4, r5, r6, r7, lr}
    86f6:	4647      	mov	r7, r8
    86f8:	46ce      	mov	lr, r9
    86fa:	b580      	push	{r7, lr}
    86fc:	27b8      	movs	r7, #184	; 0xb8
    86fe:	4680      	mov	r8, r0
    8700:	00bf      	lsls	r7, r7, #2
    8702:	4447      	add	r7, r8
    8704:	4689      	mov	r9, r1
    8706:	2600      	movs	r6, #0
    8708:	2f00      	cmp	r7, #0
    870a:	d014      	beq.n	8736 <_fwalk_reent+0x42>
    870c:	687b      	ldr	r3, [r7, #4]
    870e:	68bc      	ldr	r4, [r7, #8]
    8710:	1e5d      	subs	r5, r3, #1
    8712:	d40d      	bmi.n	8730 <_fwalk_reent+0x3c>
    8714:	89a3      	ldrh	r3, [r4, #12]
    8716:	2b01      	cmp	r3, #1
    8718:	d907      	bls.n	872a <_fwalk_reent+0x36>
    871a:	220e      	movs	r2, #14
    871c:	5ea3      	ldrsh	r3, [r4, r2]
    871e:	3301      	adds	r3, #1
    8720:	d003      	beq.n	872a <_fwalk_reent+0x36>
    8722:	0021      	movs	r1, r4
    8724:	4640      	mov	r0, r8
    8726:	47c8      	blx	r9
    8728:	4306      	orrs	r6, r0
    872a:	3468      	adds	r4, #104	; 0x68
    872c:	3d01      	subs	r5, #1
    872e:	d2f1      	bcs.n	8714 <_fwalk_reent+0x20>
    8730:	683f      	ldr	r7, [r7, #0]
    8732:	2f00      	cmp	r7, #0
    8734:	d1ea      	bne.n	870c <_fwalk_reent+0x18>
    8736:	0030      	movs	r0, r6
    8738:	bc0c      	pop	{r2, r3}
    873a:	4690      	mov	r8, r2
    873c:	4699      	mov	r9, r3
    873e:	bdf8      	pop	{r3, r4, r5, r6, r7, pc}

00008740 <_localeconv_r>:
    8740:	4b04      	ldr	r3, [pc, #16]	; (8754 <_localeconv_r+0x14>)
    8742:	681b      	ldr	r3, [r3, #0]
    8744:	6b58      	ldr	r0, [r3, #52]	; 0x34
    8746:	2800      	cmp	r0, #0
    8748:	d001      	beq.n	874e <_localeconv_r+0xe>
    874a:	30f0      	adds	r0, #240	; 0xf0
    874c:	4770      	bx	lr
    874e:	4802      	ldr	r0, [pc, #8]	; (8758 <_localeconv_r+0x18>)
    8750:	e7fb      	b.n	874a <_localeconv_r+0xa>
    8752:	46c0      	nop			; (mov r8, r8)
    8754:	20000004 	.word	0x20000004
    8758:	20000844 	.word	0x20000844

0000875c <__retarget_lock_init_recursive>:
    875c:	4770      	bx	lr
    875e:	46c0      	nop			; (mov r8, r8)

00008760 <__retarget_lock_close_recursive>:
    8760:	4770      	bx	lr
    8762:	46c0      	nop			; (mov r8, r8)

00008764 <__retarget_lock_acquire_recursive>:
    8764:	4770      	bx	lr
    8766:	46c0      	nop			; (mov r8, r8)

00008768 <__retarget_lock_release_recursive>:
    8768:	4770      	bx	lr
    876a:	46c0      	nop			; (mov r8, r8)

0000876c <__swhatbuf_r>:
    876c:	b570      	push	{r4, r5, r6, lr}
    876e:	000c      	movs	r4, r1
    8770:	001e      	movs	r6, r3
    8772:	230e      	movs	r3, #14
    8774:	5ec9      	ldrsh	r1, [r1, r3]
    8776:	b090      	sub	sp, #64	; 0x40
    8778:	0015      	movs	r5, r2
    877a:	2900      	cmp	r1, #0
    877c:	db15      	blt.n	87aa <__swhatbuf_r+0x3e>
    877e:	aa01      	add	r2, sp, #4
    8780:	f001 fb6a 	bl	9e58 <_fstat_r>
    8784:	2800      	cmp	r0, #0
    8786:	db10      	blt.n	87aa <__swhatbuf_r+0x3e>
    8788:	22f0      	movs	r2, #240	; 0xf0
    878a:	9b02      	ldr	r3, [sp, #8]
    878c:	0212      	lsls	r2, r2, #8
    878e:	4013      	ands	r3, r2
    8790:	4a0d      	ldr	r2, [pc, #52]	; (87c8 <__swhatbuf_r+0x5c>)
    8792:	2080      	movs	r0, #128	; 0x80
    8794:	4694      	mov	ip, r2
    8796:	4463      	add	r3, ip
    8798:	425a      	negs	r2, r3
    879a:	4153      	adcs	r3, r2
    879c:	6033      	str	r3, [r6, #0]
    879e:	2380      	movs	r3, #128	; 0x80
    87a0:	00db      	lsls	r3, r3, #3
    87a2:	602b      	str	r3, [r5, #0]
    87a4:	0100      	lsls	r0, r0, #4
    87a6:	b010      	add	sp, #64	; 0x40
    87a8:	bd70      	pop	{r4, r5, r6, pc}
    87aa:	2300      	movs	r3, #0
    87ac:	6033      	str	r3, [r6, #0]
    87ae:	89a3      	ldrh	r3, [r4, #12]
    87b0:	061b      	lsls	r3, r3, #24
    87b2:	d503      	bpl.n	87bc <__swhatbuf_r+0x50>
    87b4:	2340      	movs	r3, #64	; 0x40
    87b6:	2000      	movs	r0, #0
    87b8:	602b      	str	r3, [r5, #0]
    87ba:	e7f4      	b.n	87a6 <__swhatbuf_r+0x3a>
    87bc:	2380      	movs	r3, #128	; 0x80
    87be:	00db      	lsls	r3, r3, #3
    87c0:	602b      	str	r3, [r5, #0]
    87c2:	2000      	movs	r0, #0
    87c4:	e7ef      	b.n	87a6 <__swhatbuf_r+0x3a>
    87c6:	46c0      	nop			; (mov r8, r8)
    87c8:	ffffe000 	.word	0xffffe000

000087cc <__smakebuf_r>:
    87cc:	b570      	push	{r4, r5, r6, lr}
    87ce:	898b      	ldrh	r3, [r1, #12]
    87d0:	b082      	sub	sp, #8
    87d2:	0006      	movs	r6, r0
    87d4:	000c      	movs	r4, r1
    87d6:	079b      	lsls	r3, r3, #30
    87d8:	d507      	bpl.n	87ea <__smakebuf_r+0x1e>
    87da:	0023      	movs	r3, r4
    87dc:	3343      	adds	r3, #67	; 0x43
    87de:	6023      	str	r3, [r4, #0]
    87e0:	6123      	str	r3, [r4, #16]
    87e2:	2301      	movs	r3, #1
    87e4:	6163      	str	r3, [r4, #20]
    87e6:	b002      	add	sp, #8
    87e8:	bd70      	pop	{r4, r5, r6, pc}
    87ea:	ab01      	add	r3, sp, #4
    87ec:	466a      	mov	r2, sp
    87ee:	f7ff ffbd 	bl	876c <__swhatbuf_r>
    87f2:	9900      	ldr	r1, [sp, #0]
    87f4:	0005      	movs	r5, r0
    87f6:	0030      	movs	r0, r6
    87f8:	f000 f83a 	bl	8870 <_malloc_r>
    87fc:	2800      	cmp	r0, #0
    87fe:	d01e      	beq.n	883e <__smakebuf_r+0x72>
    8800:	2280      	movs	r2, #128	; 0x80
    8802:	4b15      	ldr	r3, [pc, #84]	; (8858 <__smakebuf_r+0x8c>)
    8804:	63f3      	str	r3, [r6, #60]	; 0x3c
    8806:	89a3      	ldrh	r3, [r4, #12]
    8808:	6020      	str	r0, [r4, #0]
    880a:	4313      	orrs	r3, r2
    880c:	9a00      	ldr	r2, [sp, #0]
    880e:	b21b      	sxth	r3, r3
    8810:	6162      	str	r2, [r4, #20]
    8812:	9a01      	ldr	r2, [sp, #4]
    8814:	81a3      	strh	r3, [r4, #12]
    8816:	6120      	str	r0, [r4, #16]
    8818:	2a00      	cmp	r2, #0
    881a:	d102      	bne.n	8822 <__smakebuf_r+0x56>
    881c:	432b      	orrs	r3, r5
    881e:	81a3      	strh	r3, [r4, #12]
    8820:	e7e1      	b.n	87e6 <__smakebuf_r+0x1a>
    8822:	230e      	movs	r3, #14
    8824:	5ee1      	ldrsh	r1, [r4, r3]
    8826:	0030      	movs	r0, r6
    8828:	f001 fb2a 	bl	9e80 <_isatty_r>
    882c:	2800      	cmp	r0, #0
    882e:	d010      	beq.n	8852 <__smakebuf_r+0x86>
    8830:	2203      	movs	r2, #3
    8832:	89a3      	ldrh	r3, [r4, #12]
    8834:	4393      	bics	r3, r2
    8836:	2201      	movs	r2, #1
    8838:	4313      	orrs	r3, r2
    883a:	b21b      	sxth	r3, r3
    883c:	e7ee      	b.n	881c <__smakebuf_r+0x50>
    883e:	220c      	movs	r2, #12
    8840:	5ea3      	ldrsh	r3, [r4, r2]
    8842:	059a      	lsls	r2, r3, #22
    8844:	d4cf      	bmi.n	87e6 <__smakebuf_r+0x1a>
    8846:	2203      	movs	r2, #3
    8848:	4393      	bics	r3, r2
    884a:	2202      	movs	r2, #2
    884c:	4313      	orrs	r3, r2
    884e:	81a3      	strh	r3, [r4, #12]
    8850:	e7c3      	b.n	87da <__smakebuf_r+0xe>
    8852:	220c      	movs	r2, #12
    8854:	5ea3      	ldrsh	r3, [r4, r2]
    8856:	e7e1      	b.n	881c <__smakebuf_r+0x50>
    8858:	00008081 	.word	0x00008081

0000885c <malloc>:
    885c:	b510      	push	{r4, lr}
    885e:	4b03      	ldr	r3, [pc, #12]	; (886c <malloc+0x10>)
    8860:	0001      	movs	r1, r0
    8862:	6818      	ldr	r0, [r3, #0]
    8864:	f000 f804 	bl	8870 <_malloc_r>
    8868:	bd10      	pop	{r4, pc}
    886a:	46c0      	nop			; (mov r8, r8)
    886c:	20000004 	.word	0x20000004

00008870 <_malloc_r>:
    8870:	b5f0      	push	{r4, r5, r6, r7, lr}
    8872:	4657      	mov	r7, sl
    8874:	4645      	mov	r5, r8
    8876:	46de      	mov	lr, fp
    8878:	464e      	mov	r6, r9
    887a:	b5e0      	push	{r5, r6, r7, lr}
    887c:	000d      	movs	r5, r1
    887e:	350b      	adds	r5, #11
    8880:	b083      	sub	sp, #12
    8882:	0007      	movs	r7, r0
    8884:	2d16      	cmp	r5, #22
    8886:	d800      	bhi.n	888a <_malloc_r+0x1a>
    8888:	e09f      	b.n	89ca <_malloc_r+0x15a>
    888a:	2307      	movs	r3, #7
    888c:	439d      	bics	r5, r3
    888e:	d500      	bpl.n	8892 <_malloc_r+0x22>
    8890:	e0c4      	b.n	8a1c <_malloc_r+0x1ac>
    8892:	42a9      	cmp	r1, r5
    8894:	d900      	bls.n	8898 <_malloc_r+0x28>
    8896:	e0c1      	b.n	8a1c <_malloc_r+0x1ac>
    8898:	f000 fb70 	bl	8f7c <__malloc_lock>
    889c:	23f8      	movs	r3, #248	; 0xf8
    889e:	33ff      	adds	r3, #255	; 0xff
    88a0:	429d      	cmp	r5, r3
    88a2:	d800      	bhi.n	88a6 <_malloc_r+0x36>
    88a4:	e28f      	b.n	8dc6 <_malloc_r+0x556>
    88a6:	0a68      	lsrs	r0, r5, #9
    88a8:	d100      	bne.n	88ac <_malloc_r+0x3c>
    88aa:	e0bb      	b.n	8a24 <_malloc_r+0x1b4>
    88ac:	2804      	cmp	r0, #4
    88ae:	d900      	bls.n	88b2 <_malloc_r+0x42>
    88b0:	e162      	b.n	8b78 <_malloc_r+0x308>
    88b2:	2338      	movs	r3, #56	; 0x38
    88b4:	4698      	mov	r8, r3
    88b6:	09a8      	lsrs	r0, r5, #6
    88b8:	4480      	add	r8, r0
    88ba:	3039      	adds	r0, #57	; 0x39
    88bc:	00c1      	lsls	r1, r0, #3
    88be:	4ed2      	ldr	r6, [pc, #840]	; (8c08 <_malloc_r+0x398>)
    88c0:	1871      	adds	r1, r6, r1
    88c2:	3908      	subs	r1, #8
    88c4:	68cc      	ldr	r4, [r1, #12]
    88c6:	42a1      	cmp	r1, r4
    88c8:	d019      	beq.n	88fe <_malloc_r+0x8e>
    88ca:	2303      	movs	r3, #3
    88cc:	6862      	ldr	r2, [r4, #4]
    88ce:	439a      	bics	r2, r3
    88d0:	0013      	movs	r3, r2
    88d2:	1b52      	subs	r2, r2, r5
    88d4:	2a0f      	cmp	r2, #15
    88d6:	dd00      	ble.n	88da <_malloc_r+0x6a>
    88d8:	e0aa      	b.n	8a30 <_malloc_r+0x1c0>
    88da:	2a00      	cmp	r2, #0
    88dc:	db00      	blt.n	88e0 <_malloc_r+0x70>
    88de:	e088      	b.n	89f2 <_malloc_r+0x182>
    88e0:	2303      	movs	r3, #3
    88e2:	469c      	mov	ip, r3
    88e4:	e008      	b.n	88f8 <_malloc_r+0x88>
    88e6:	4662      	mov	r2, ip
    88e8:	6863      	ldr	r3, [r4, #4]
    88ea:	4393      	bics	r3, r2
    88ec:	1b5a      	subs	r2, r3, r5
    88ee:	2a0f      	cmp	r2, #15
    88f0:	dd00      	ble.n	88f4 <_malloc_r+0x84>
    88f2:	e09d      	b.n	8a30 <_malloc_r+0x1c0>
    88f4:	2a00      	cmp	r2, #0
    88f6:	da7c      	bge.n	89f2 <_malloc_r+0x182>
    88f8:	68e4      	ldr	r4, [r4, #12]
    88fa:	42a1      	cmp	r1, r4
    88fc:	d1f3      	bne.n	88e6 <_malloc_r+0x76>
    88fe:	0032      	movs	r2, r6
    8900:	6934      	ldr	r4, [r6, #16]
    8902:	3208      	adds	r2, #8
    8904:	4294      	cmp	r4, r2
    8906:	d100      	bne.n	890a <_malloc_r+0x9a>
    8908:	e190      	b.n	8c2c <_malloc_r+0x3bc>
    890a:	2303      	movs	r3, #3
    890c:	6861      	ldr	r1, [r4, #4]
    890e:	4399      	bics	r1, r3
    8910:	4689      	mov	r9, r1
    8912:	1b49      	subs	r1, r1, r5
    8914:	290f      	cmp	r1, #15
    8916:	dd00      	ble.n	891a <_malloc_r+0xaa>
    8918:	e162      	b.n	8be0 <_malloc_r+0x370>
    891a:	6172      	str	r2, [r6, #20]
    891c:	6132      	str	r2, [r6, #16]
    891e:	2900      	cmp	r1, #0
    8920:	db00      	blt.n	8924 <_malloc_r+0xb4>
    8922:	e087      	b.n	8a34 <_malloc_r+0x1c4>
    8924:	4ab9      	ldr	r2, [pc, #740]	; (8c0c <_malloc_r+0x39c>)
    8926:	464b      	mov	r3, r9
    8928:	4591      	cmp	r9, r2
    892a:	d900      	bls.n	892e <_malloc_r+0xbe>
    892c:	e130      	b.n	8b90 <_malloc_r+0x320>
    892e:	08db      	lsrs	r3, r3, #3
    8930:	3aff      	subs	r2, #255	; 0xff
    8932:	1099      	asrs	r1, r3, #2
    8934:	3aff      	subs	r2, #255	; 0xff
    8936:	408a      	lsls	r2, r1
    8938:	00db      	lsls	r3, r3, #3
    893a:	6871      	ldr	r1, [r6, #4]
    893c:	199b      	adds	r3, r3, r6
    893e:	430a      	orrs	r2, r1
    8940:	6899      	ldr	r1, [r3, #8]
    8942:	6072      	str	r2, [r6, #4]
    8944:	60e3      	str	r3, [r4, #12]
    8946:	60a1      	str	r1, [r4, #8]
    8948:	609c      	str	r4, [r3, #8]
    894a:	0013      	movs	r3, r2
    894c:	60cc      	str	r4, [r1, #12]
    894e:	2101      	movs	r1, #1
    8950:	1082      	asrs	r2, r0, #2
    8952:	4091      	lsls	r1, r2
    8954:	4299      	cmp	r1, r3
    8956:	d86f      	bhi.n	8a38 <_malloc_r+0x1c8>
    8958:	420b      	tst	r3, r1
    895a:	d105      	bne.n	8968 <_malloc_r+0xf8>
    895c:	2203      	movs	r2, #3
    895e:	4390      	bics	r0, r2
    8960:	0049      	lsls	r1, r1, #1
    8962:	3004      	adds	r0, #4
    8964:	420b      	tst	r3, r1
    8966:	d0fb      	beq.n	8960 <_malloc_r+0xf0>
    8968:	2303      	movs	r3, #3
    896a:	4698      	mov	r8, r3
    896c:	00c3      	lsls	r3, r0, #3
    896e:	4699      	mov	r9, r3
    8970:	44b1      	add	r9, r6
    8972:	46cc      	mov	ip, r9
    8974:	4682      	mov	sl, r0
    8976:	4663      	mov	r3, ip
    8978:	68dc      	ldr	r4, [r3, #12]
    897a:	45a4      	cmp	ip, r4
    897c:	d107      	bne.n	898e <_malloc_r+0x11e>
    897e:	e157      	b.n	8c30 <_malloc_r+0x3c0>
    8980:	2a00      	cmp	r2, #0
    8982:	db00      	blt.n	8986 <_malloc_r+0x116>
    8984:	e166      	b.n	8c54 <_malloc_r+0x3e4>
    8986:	68e4      	ldr	r4, [r4, #12]
    8988:	45a4      	cmp	ip, r4
    898a:	d100      	bne.n	898e <_malloc_r+0x11e>
    898c:	e150      	b.n	8c30 <_malloc_r+0x3c0>
    898e:	4642      	mov	r2, r8
    8990:	6863      	ldr	r3, [r4, #4]
    8992:	4393      	bics	r3, r2
    8994:	1b5a      	subs	r2, r3, r5
    8996:	2a0f      	cmp	r2, #15
    8998:	ddf2      	ble.n	8980 <_malloc_r+0x110>
    899a:	2001      	movs	r0, #1
    899c:	4680      	mov	r8, r0
    899e:	1961      	adds	r1, r4, r5
    89a0:	4305      	orrs	r5, r0
    89a2:	6065      	str	r5, [r4, #4]
    89a4:	68a0      	ldr	r0, [r4, #8]
    89a6:	68e5      	ldr	r5, [r4, #12]
    89a8:	3608      	adds	r6, #8
    89aa:	60c5      	str	r5, [r0, #12]
    89ac:	60a8      	str	r0, [r5, #8]
    89ae:	4640      	mov	r0, r8
    89b0:	60f1      	str	r1, [r6, #12]
    89b2:	60b1      	str	r1, [r6, #8]
    89b4:	4310      	orrs	r0, r2
    89b6:	6048      	str	r0, [r1, #4]
    89b8:	60ce      	str	r6, [r1, #12]
    89ba:	608e      	str	r6, [r1, #8]
    89bc:	0038      	movs	r0, r7
    89be:	50e2      	str	r2, [r4, r3]
    89c0:	f000 fae4 	bl	8f8c <__malloc_unlock>
    89c4:	0020      	movs	r0, r4
    89c6:	3008      	adds	r0, #8
    89c8:	e021      	b.n	8a0e <_malloc_r+0x19e>
    89ca:	2910      	cmp	r1, #16
    89cc:	d826      	bhi.n	8a1c <_malloc_r+0x1ac>
    89ce:	0038      	movs	r0, r7
    89d0:	f000 fad4 	bl	8f7c <__malloc_lock>
    89d4:	2510      	movs	r5, #16
    89d6:	2318      	movs	r3, #24
    89d8:	2002      	movs	r0, #2
    89da:	4e8b      	ldr	r6, [pc, #556]	; (8c08 <_malloc_r+0x398>)
    89dc:	18f3      	adds	r3, r6, r3
    89de:	001a      	movs	r2, r3
    89e0:	685c      	ldr	r4, [r3, #4]
    89e2:	3a08      	subs	r2, #8
    89e4:	4294      	cmp	r4, r2
    89e6:	d100      	bne.n	89ea <_malloc_r+0x17a>
    89e8:	e12e      	b.n	8c48 <_malloc_r+0x3d8>
    89ea:	2303      	movs	r3, #3
    89ec:	6862      	ldr	r2, [r4, #4]
    89ee:	439a      	bics	r2, r3
    89f0:	0013      	movs	r3, r2
    89f2:	68e2      	ldr	r2, [r4, #12]
    89f4:	68a1      	ldr	r1, [r4, #8]
    89f6:	60ca      	str	r2, [r1, #12]
    89f8:	6091      	str	r1, [r2, #8]
    89fa:	2201      	movs	r2, #1
    89fc:	18e3      	adds	r3, r4, r3
    89fe:	6859      	ldr	r1, [r3, #4]
    8a00:	0038      	movs	r0, r7
    8a02:	430a      	orrs	r2, r1
    8a04:	605a      	str	r2, [r3, #4]
    8a06:	f000 fac1 	bl	8f8c <__malloc_unlock>
    8a0a:	0020      	movs	r0, r4
    8a0c:	3008      	adds	r0, #8
    8a0e:	b003      	add	sp, #12
    8a10:	bc3c      	pop	{r2, r3, r4, r5}
    8a12:	4690      	mov	r8, r2
    8a14:	4699      	mov	r9, r3
    8a16:	46a2      	mov	sl, r4
    8a18:	46ab      	mov	fp, r5
    8a1a:	bdf0      	pop	{r4, r5, r6, r7, pc}
    8a1c:	230c      	movs	r3, #12
    8a1e:	2000      	movs	r0, #0
    8a20:	603b      	str	r3, [r7, #0]
    8a22:	e7f4      	b.n	8a0e <_malloc_r+0x19e>
    8a24:	2180      	movs	r1, #128	; 0x80
    8a26:	233f      	movs	r3, #63	; 0x3f
    8a28:	2040      	movs	r0, #64	; 0x40
    8a2a:	0089      	lsls	r1, r1, #2
    8a2c:	4698      	mov	r8, r3
    8a2e:	e746      	b.n	88be <_malloc_r+0x4e>
    8a30:	4640      	mov	r0, r8
    8a32:	e764      	b.n	88fe <_malloc_r+0x8e>
    8a34:	464b      	mov	r3, r9
    8a36:	e7e0      	b.n	89fa <_malloc_r+0x18a>
    8a38:	2303      	movs	r3, #3
    8a3a:	68b4      	ldr	r4, [r6, #8]
    8a3c:	6862      	ldr	r2, [r4, #4]
    8a3e:	439a      	bics	r2, r3
    8a40:	4690      	mov	r8, r2
    8a42:	42aa      	cmp	r2, r5
    8a44:	d303      	bcc.n	8a4e <_malloc_r+0x1de>
    8a46:	1b53      	subs	r3, r2, r5
    8a48:	2b0f      	cmp	r3, #15
    8a4a:	dd00      	ble.n	8a4e <_malloc_r+0x1de>
    8a4c:	e086      	b.n	8b5c <_malloc_r+0x2ec>
    8a4e:	0023      	movs	r3, r4
    8a50:	4443      	add	r3, r8
    8a52:	4a6f      	ldr	r2, [pc, #444]	; (8c10 <_malloc_r+0x3a0>)
    8a54:	9301      	str	r3, [sp, #4]
    8a56:	4b6f      	ldr	r3, [pc, #444]	; (8c14 <_malloc_r+0x3a4>)
    8a58:	4693      	mov	fp, r2
    8a5a:	681b      	ldr	r3, [r3, #0]
    8a5c:	6812      	ldr	r2, [r2, #0]
    8a5e:	18eb      	adds	r3, r5, r3
    8a60:	3201      	adds	r2, #1
    8a62:	d100      	bne.n	8a66 <_malloc_r+0x1f6>
    8a64:	e168      	b.n	8d38 <_malloc_r+0x4c8>
    8a66:	4a6c      	ldr	r2, [pc, #432]	; (8c18 <_malloc_r+0x3a8>)
    8a68:	4694      	mov	ip, r2
    8a6a:	4463      	add	r3, ip
    8a6c:	0b1b      	lsrs	r3, r3, #12
    8a6e:	031b      	lsls	r3, r3, #12
    8a70:	9300      	str	r3, [sp, #0]
    8a72:	9900      	ldr	r1, [sp, #0]
    8a74:	0038      	movs	r0, r7
    8a76:	f000 ff97 	bl	99a8 <_sbrk_r>
    8a7a:	0003      	movs	r3, r0
    8a7c:	4681      	mov	r9, r0
    8a7e:	3301      	adds	r3, #1
    8a80:	d061      	beq.n	8b46 <_malloc_r+0x2d6>
    8a82:	9b01      	ldr	r3, [sp, #4]
    8a84:	4283      	cmp	r3, r0
    8a86:	d900      	bls.n	8a8a <_malloc_r+0x21a>
    8a88:	e0ff      	b.n	8c8a <_malloc_r+0x41a>
    8a8a:	4b64      	ldr	r3, [pc, #400]	; (8c1c <_malloc_r+0x3ac>)
    8a8c:	9a00      	ldr	r2, [sp, #0]
    8a8e:	469a      	mov	sl, r3
    8a90:	681b      	ldr	r3, [r3, #0]
    8a92:	469c      	mov	ip, r3
    8a94:	4653      	mov	r3, sl
    8a96:	4462      	add	r2, ip
    8a98:	601a      	str	r2, [r3, #0]
    8a9a:	9b01      	ldr	r3, [sp, #4]
    8a9c:	0011      	movs	r1, r2
    8a9e:	4283      	cmp	r3, r0
    8aa0:	d100      	bne.n	8aa4 <_malloc_r+0x234>
    8aa2:	e155      	b.n	8d50 <_malloc_r+0x4e0>
    8aa4:	465b      	mov	r3, fp
    8aa6:	681b      	ldr	r3, [r3, #0]
    8aa8:	3301      	adds	r3, #1
    8aaa:	d100      	bne.n	8aae <_malloc_r+0x23e>
    8aac:	e16c      	b.n	8d88 <_malloc_r+0x518>
    8aae:	464b      	mov	r3, r9
    8ab0:	9a01      	ldr	r2, [sp, #4]
    8ab2:	1a9b      	subs	r3, r3, r2
    8ab4:	1859      	adds	r1, r3, r1
    8ab6:	4653      	mov	r3, sl
    8ab8:	6019      	str	r1, [r3, #0]
    8aba:	2307      	movs	r3, #7
    8abc:	464a      	mov	r2, r9
    8abe:	4013      	ands	r3, r2
    8ac0:	d100      	bne.n	8ac4 <_malloc_r+0x254>
    8ac2:	e124      	b.n	8d0e <_malloc_r+0x49e>
    8ac4:	2108      	movs	r1, #8
    8ac6:	4689      	mov	r9, r1
    8ac8:	4955      	ldr	r1, [pc, #340]	; (8c20 <_malloc_r+0x3b0>)
    8aca:	1ad2      	subs	r2, r2, r3
    8acc:	4491      	add	r9, r2
    8ace:	1acb      	subs	r3, r1, r3
    8ad0:	9a00      	ldr	r2, [sp, #0]
    8ad2:	0038      	movs	r0, r7
    8ad4:	444a      	add	r2, r9
    8ad6:	0511      	lsls	r1, r2, #20
    8ad8:	0d09      	lsrs	r1, r1, #20
    8ada:	1a5b      	subs	r3, r3, r1
    8adc:	0019      	movs	r1, r3
    8ade:	469b      	mov	fp, r3
    8ae0:	f000 ff62 	bl	99a8 <_sbrk_r>
    8ae4:	1c43      	adds	r3, r0, #1
    8ae6:	d100      	bne.n	8aea <_malloc_r+0x27a>
    8ae8:	e142      	b.n	8d70 <_malloc_r+0x500>
    8aea:	464b      	mov	r3, r9
    8aec:	1ac0      	subs	r0, r0, r3
    8aee:	2301      	movs	r3, #1
    8af0:	4458      	add	r0, fp
    8af2:	4318      	orrs	r0, r3
    8af4:	4653      	mov	r3, sl
    8af6:	681b      	ldr	r3, [r3, #0]
    8af8:	445b      	add	r3, fp
    8afa:	0019      	movs	r1, r3
    8afc:	4653      	mov	r3, sl
    8afe:	6019      	str	r1, [r3, #0]
    8b00:	464b      	mov	r3, r9
    8b02:	60b3      	str	r3, [r6, #8]
    8b04:	6058      	str	r0, [r3, #4]
    8b06:	42b4      	cmp	r4, r6
    8b08:	d013      	beq.n	8b32 <_malloc_r+0x2c2>
    8b0a:	4643      	mov	r3, r8
    8b0c:	2b0f      	cmp	r3, #15
    8b0e:	d800      	bhi.n	8b12 <_malloc_r+0x2a2>
    8b10:	e0e8      	b.n	8ce4 <_malloc_r+0x474>
    8b12:	4643      	mov	r3, r8
    8b14:	2207      	movs	r2, #7
    8b16:	6860      	ldr	r0, [r4, #4]
    8b18:	3b0c      	subs	r3, #12
    8b1a:	4393      	bics	r3, r2
    8b1c:	3a06      	subs	r2, #6
    8b1e:	4002      	ands	r2, r0
    8b20:	2005      	movs	r0, #5
    8b22:	431a      	orrs	r2, r3
    8b24:	6062      	str	r2, [r4, #4]
    8b26:	18e2      	adds	r2, r4, r3
    8b28:	6050      	str	r0, [r2, #4]
    8b2a:	6090      	str	r0, [r2, #8]
    8b2c:	2b0f      	cmp	r3, #15
    8b2e:	d900      	bls.n	8b32 <_malloc_r+0x2c2>
    8b30:	e122      	b.n	8d78 <_malloc_r+0x508>
    8b32:	4b3c      	ldr	r3, [pc, #240]	; (8c24 <_malloc_r+0x3b4>)
    8b34:	681a      	ldr	r2, [r3, #0]
    8b36:	4291      	cmp	r1, r2
    8b38:	d900      	bls.n	8b3c <_malloc_r+0x2cc>
    8b3a:	6019      	str	r1, [r3, #0]
    8b3c:	4b3a      	ldr	r3, [pc, #232]	; (8c28 <_malloc_r+0x3b8>)
    8b3e:	681a      	ldr	r2, [r3, #0]
    8b40:	4291      	cmp	r1, r2
    8b42:	d900      	bls.n	8b46 <_malloc_r+0x2d6>
    8b44:	6019      	str	r1, [r3, #0]
    8b46:	2303      	movs	r3, #3
    8b48:	68b4      	ldr	r4, [r6, #8]
    8b4a:	6862      	ldr	r2, [r4, #4]
    8b4c:	439a      	bics	r2, r3
    8b4e:	1b53      	subs	r3, r2, r5
    8b50:	4295      	cmp	r5, r2
    8b52:	d900      	bls.n	8b56 <_malloc_r+0x2e6>
    8b54:	e0c9      	b.n	8cea <_malloc_r+0x47a>
    8b56:	2b0f      	cmp	r3, #15
    8b58:	dc00      	bgt.n	8b5c <_malloc_r+0x2ec>
    8b5a:	e0c6      	b.n	8cea <_malloc_r+0x47a>
    8b5c:	2201      	movs	r2, #1
    8b5e:	0029      	movs	r1, r5
    8b60:	4313      	orrs	r3, r2
    8b62:	4311      	orrs	r1, r2
    8b64:	1965      	adds	r5, r4, r5
    8b66:	6061      	str	r1, [r4, #4]
    8b68:	0038      	movs	r0, r7
    8b6a:	60b5      	str	r5, [r6, #8]
    8b6c:	606b      	str	r3, [r5, #4]
    8b6e:	f000 fa0d 	bl	8f8c <__malloc_unlock>
    8b72:	0020      	movs	r0, r4
    8b74:	3008      	adds	r0, #8
    8b76:	e74a      	b.n	8a0e <_malloc_r+0x19e>
    8b78:	2814      	cmp	r0, #20
    8b7a:	d97a      	bls.n	8c72 <_malloc_r+0x402>
    8b7c:	2854      	cmp	r0, #84	; 0x54
    8b7e:	d900      	bls.n	8b82 <_malloc_r+0x312>
    8b80:	e0ba      	b.n	8cf8 <_malloc_r+0x488>
    8b82:	236e      	movs	r3, #110	; 0x6e
    8b84:	4698      	mov	r8, r3
    8b86:	0b28      	lsrs	r0, r5, #12
    8b88:	4480      	add	r8, r0
    8b8a:	306f      	adds	r0, #111	; 0x6f
    8b8c:	00c1      	lsls	r1, r0, #3
    8b8e:	e696      	b.n	88be <_malloc_r+0x4e>
    8b90:	0a5a      	lsrs	r2, r3, #9
    8b92:	2a04      	cmp	r2, #4
    8b94:	d973      	bls.n	8c7e <_malloc_r+0x40e>
    8b96:	2a14      	cmp	r2, #20
    8b98:	d900      	bls.n	8b9c <_malloc_r+0x32c>
    8b9a:	e0d0      	b.n	8d3e <_malloc_r+0x4ce>
    8b9c:	0011      	movs	r1, r2
    8b9e:	325c      	adds	r2, #92	; 0x5c
    8ba0:	315b      	adds	r1, #91	; 0x5b
    8ba2:	00d2      	lsls	r2, r2, #3
    8ba4:	2308      	movs	r3, #8
    8ba6:	425b      	negs	r3, r3
    8ba8:	469c      	mov	ip, r3
    8baa:	18b2      	adds	r2, r6, r2
    8bac:	4494      	add	ip, r2
    8bae:	4663      	mov	r3, ip
    8bb0:	689a      	ldr	r2, [r3, #8]
    8bb2:	2303      	movs	r3, #3
    8bb4:	4698      	mov	r8, r3
    8bb6:	4594      	cmp	ip, r2
    8bb8:	d100      	bne.n	8bbc <_malloc_r+0x34c>
    8bba:	e0ab      	b.n	8d14 <_malloc_r+0x4a4>
    8bbc:	4643      	mov	r3, r8
    8bbe:	6851      	ldr	r1, [r2, #4]
    8bc0:	4399      	bics	r1, r3
    8bc2:	4589      	cmp	r9, r1
    8bc4:	d300      	bcc.n	8bc8 <_malloc_r+0x358>
    8bc6:	e095      	b.n	8cf4 <_malloc_r+0x484>
    8bc8:	6892      	ldr	r2, [r2, #8]
    8bca:	4594      	cmp	ip, r2
    8bcc:	d1f6      	bne.n	8bbc <_malloc_r+0x34c>
    8bce:	4663      	mov	r3, ip
    8bd0:	68da      	ldr	r2, [r3, #12]
    8bd2:	6873      	ldr	r3, [r6, #4]
    8bd4:	4661      	mov	r1, ip
    8bd6:	60e2      	str	r2, [r4, #12]
    8bd8:	60a1      	str	r1, [r4, #8]
    8bda:	6094      	str	r4, [r2, #8]
    8bdc:	60cc      	str	r4, [r1, #12]
    8bde:	e6b6      	b.n	894e <_malloc_r+0xde>
    8be0:	2301      	movs	r3, #1
    8be2:	1960      	adds	r0, r4, r5
    8be4:	431d      	orrs	r5, r3
    8be6:	6065      	str	r5, [r4, #4]
    8be8:	6170      	str	r0, [r6, #20]
    8bea:	6130      	str	r0, [r6, #16]
    8bec:	60c2      	str	r2, [r0, #12]
    8bee:	6082      	str	r2, [r0, #8]
    8bf0:	001a      	movs	r2, r3
    8bf2:	464b      	mov	r3, r9
    8bf4:	430a      	orrs	r2, r1
    8bf6:	6042      	str	r2, [r0, #4]
    8bf8:	0038      	movs	r0, r7
    8bfa:	50e1      	str	r1, [r4, r3]
    8bfc:	f000 f9c6 	bl	8f8c <__malloc_unlock>
    8c00:	0020      	movs	r0, r4
    8c02:	3008      	adds	r0, #8
    8c04:	e703      	b.n	8a0e <_malloc_r+0x19e>
    8c06:	46c0      	nop			; (mov r8, r8)
    8c08:	20000434 	.word	0x20000434
    8c0c:	000001ff 	.word	0x000001ff
    8c10:	2000083c 	.word	0x2000083c
    8c14:	20000a0c 	.word	0x20000a0c
    8c18:	0000100f 	.word	0x0000100f
    8c1c:	200009dc 	.word	0x200009dc
    8c20:	00001008 	.word	0x00001008
    8c24:	20000a04 	.word	0x20000a04
    8c28:	20000a08 	.word	0x20000a08
    8c2c:	6873      	ldr	r3, [r6, #4]
    8c2e:	e68e      	b.n	894e <_malloc_r+0xde>
    8c30:	2308      	movs	r3, #8
    8c32:	469b      	mov	fp, r3
    8c34:	3b07      	subs	r3, #7
    8c36:	44dc      	add	ip, fp
    8c38:	469b      	mov	fp, r3
    8c3a:	44da      	add	sl, fp
    8c3c:	4643      	mov	r3, r8
    8c3e:	4652      	mov	r2, sl
    8c40:	4213      	tst	r3, r2
    8c42:	d000      	beq.n	8c46 <_malloc_r+0x3d6>
    8c44:	e697      	b.n	8976 <_malloc_r+0x106>
    8c46:	e037      	b.n	8cb8 <_malloc_r+0x448>
    8c48:	68dc      	ldr	r4, [r3, #12]
    8c4a:	3002      	adds	r0, #2
    8c4c:	42a3      	cmp	r3, r4
    8c4e:	d100      	bne.n	8c52 <_malloc_r+0x3e2>
    8c50:	e655      	b.n	88fe <_malloc_r+0x8e>
    8c52:	e6ca      	b.n	89ea <_malloc_r+0x17a>
    8c54:	2201      	movs	r2, #1
    8c56:	18e3      	adds	r3, r4, r3
    8c58:	6859      	ldr	r1, [r3, #4]
    8c5a:	0038      	movs	r0, r7
    8c5c:	430a      	orrs	r2, r1
    8c5e:	605a      	str	r2, [r3, #4]
    8c60:	68e3      	ldr	r3, [r4, #12]
    8c62:	68a2      	ldr	r2, [r4, #8]
    8c64:	60d3      	str	r3, [r2, #12]
    8c66:	609a      	str	r2, [r3, #8]
    8c68:	f000 f990 	bl	8f8c <__malloc_unlock>
    8c6c:	0020      	movs	r0, r4
    8c6e:	3008      	adds	r0, #8
    8c70:	e6cd      	b.n	8a0e <_malloc_r+0x19e>
    8c72:	235b      	movs	r3, #91	; 0x5b
    8c74:	4698      	mov	r8, r3
    8c76:	4480      	add	r8, r0
    8c78:	305c      	adds	r0, #92	; 0x5c
    8c7a:	00c1      	lsls	r1, r0, #3
    8c7c:	e61f      	b.n	88be <_malloc_r+0x4e>
    8c7e:	099a      	lsrs	r2, r3, #6
    8c80:	0011      	movs	r1, r2
    8c82:	3239      	adds	r2, #57	; 0x39
    8c84:	3138      	adds	r1, #56	; 0x38
    8c86:	00d2      	lsls	r2, r2, #3
    8c88:	e78c      	b.n	8ba4 <_malloc_r+0x334>
    8c8a:	42b4      	cmp	r4, r6
    8c8c:	d000      	beq.n	8c90 <_malloc_r+0x420>
    8c8e:	e75a      	b.n	8b46 <_malloc_r+0x2d6>
    8c90:	4b4f      	ldr	r3, [pc, #316]	; (8dd0 <_malloc_r+0x560>)
    8c92:	9a00      	ldr	r2, [sp, #0]
    8c94:	469a      	mov	sl, r3
    8c96:	681b      	ldr	r3, [r3, #0]
    8c98:	469c      	mov	ip, r3
    8c9a:	4653      	mov	r3, sl
    8c9c:	4462      	add	r2, ip
    8c9e:	0011      	movs	r1, r2
    8ca0:	601a      	str	r2, [r3, #0]
    8ca2:	e6ff      	b.n	8aa4 <_malloc_r+0x234>
    8ca4:	2308      	movs	r3, #8
    8ca6:	425b      	negs	r3, r3
    8ca8:	469c      	mov	ip, r3
    8caa:	44e1      	add	r9, ip
    8cac:	464b      	mov	r3, r9
    8cae:	689b      	ldr	r3, [r3, #8]
    8cb0:	3801      	subs	r0, #1
    8cb2:	4599      	cmp	r9, r3
    8cb4:	d000      	beq.n	8cb8 <_malloc_r+0x448>
    8cb6:	e084      	b.n	8dc2 <_malloc_r+0x552>
    8cb8:	4643      	mov	r3, r8
    8cba:	4203      	tst	r3, r0
    8cbc:	d1f2      	bne.n	8ca4 <_malloc_r+0x434>
    8cbe:	6873      	ldr	r3, [r6, #4]
    8cc0:	438b      	bics	r3, r1
    8cc2:	6073      	str	r3, [r6, #4]
    8cc4:	0049      	lsls	r1, r1, #1
    8cc6:	4299      	cmp	r1, r3
    8cc8:	d900      	bls.n	8ccc <_malloc_r+0x45c>
    8cca:	e6b5      	b.n	8a38 <_malloc_r+0x1c8>
    8ccc:	2900      	cmp	r1, #0
    8cce:	d100      	bne.n	8cd2 <_malloc_r+0x462>
    8cd0:	e6b2      	b.n	8a38 <_malloc_r+0x1c8>
    8cd2:	4650      	mov	r0, sl
    8cd4:	420b      	tst	r3, r1
    8cd6:	d000      	beq.n	8cda <_malloc_r+0x46a>
    8cd8:	e648      	b.n	896c <_malloc_r+0xfc>
    8cda:	0049      	lsls	r1, r1, #1
    8cdc:	3004      	adds	r0, #4
    8cde:	420b      	tst	r3, r1
    8ce0:	d0fb      	beq.n	8cda <_malloc_r+0x46a>
    8ce2:	e643      	b.n	896c <_malloc_r+0xfc>
    8ce4:	2301      	movs	r3, #1
    8ce6:	464a      	mov	r2, r9
    8ce8:	6053      	str	r3, [r2, #4]
    8cea:	0038      	movs	r0, r7
    8cec:	f000 f94e 	bl	8f8c <__malloc_unlock>
    8cf0:	2000      	movs	r0, #0
    8cf2:	e68c      	b.n	8a0e <_malloc_r+0x19e>
    8cf4:	4694      	mov	ip, r2
    8cf6:	e76a      	b.n	8bce <_malloc_r+0x35e>
    8cf8:	23aa      	movs	r3, #170	; 0xaa
    8cfa:	005b      	lsls	r3, r3, #1
    8cfc:	4298      	cmp	r0, r3
    8cfe:	d811      	bhi.n	8d24 <_malloc_r+0x4b4>
    8d00:	3bdd      	subs	r3, #221	; 0xdd
    8d02:	4698      	mov	r8, r3
    8d04:	0be8      	lsrs	r0, r5, #15
    8d06:	4480      	add	r8, r0
    8d08:	3078      	adds	r0, #120	; 0x78
    8d0a:	00c1      	lsls	r1, r0, #3
    8d0c:	e5d7      	b.n	88be <_malloc_r+0x4e>
    8d0e:	2380      	movs	r3, #128	; 0x80
    8d10:	015b      	lsls	r3, r3, #5
    8d12:	e6dd      	b.n	8ad0 <_malloc_r+0x260>
    8d14:	1089      	asrs	r1, r1, #2
    8d16:	3b02      	subs	r3, #2
    8d18:	408b      	lsls	r3, r1
    8d1a:	6872      	ldr	r2, [r6, #4]
    8d1c:	4313      	orrs	r3, r2
    8d1e:	6073      	str	r3, [r6, #4]
    8d20:	4662      	mov	r2, ip
    8d22:	e757      	b.n	8bd4 <_malloc_r+0x364>
    8d24:	4b2b      	ldr	r3, [pc, #172]	; (8dd4 <_malloc_r+0x564>)
    8d26:	4298      	cmp	r0, r3
    8d28:	d81c      	bhi.n	8d64 <_malloc_r+0x4f4>
    8d2a:	237c      	movs	r3, #124	; 0x7c
    8d2c:	4698      	mov	r8, r3
    8d2e:	0ca8      	lsrs	r0, r5, #18
    8d30:	4480      	add	r8, r0
    8d32:	307d      	adds	r0, #125	; 0x7d
    8d34:	00c1      	lsls	r1, r0, #3
    8d36:	e5c2      	b.n	88be <_malloc_r+0x4e>
    8d38:	3310      	adds	r3, #16
    8d3a:	9300      	str	r3, [sp, #0]
    8d3c:	e699      	b.n	8a72 <_malloc_r+0x202>
    8d3e:	2a54      	cmp	r2, #84	; 0x54
    8d40:	d826      	bhi.n	8d90 <_malloc_r+0x520>
    8d42:	464b      	mov	r3, r9
    8d44:	0b1a      	lsrs	r2, r3, #12
    8d46:	0011      	movs	r1, r2
    8d48:	326f      	adds	r2, #111	; 0x6f
    8d4a:	316e      	adds	r1, #110	; 0x6e
    8d4c:	00d2      	lsls	r2, r2, #3
    8d4e:	e729      	b.n	8ba4 <_malloc_r+0x334>
    8d50:	051b      	lsls	r3, r3, #20
    8d52:	d000      	beq.n	8d56 <_malloc_r+0x4e6>
    8d54:	e6a6      	b.n	8aa4 <_malloc_r+0x234>
    8d56:	2001      	movs	r0, #1
    8d58:	9b00      	ldr	r3, [sp, #0]
    8d5a:	68b2      	ldr	r2, [r6, #8]
    8d5c:	4443      	add	r3, r8
    8d5e:	4303      	orrs	r3, r0
    8d60:	6053      	str	r3, [r2, #4]
    8d62:	e6e6      	b.n	8b32 <_malloc_r+0x2c2>
    8d64:	21fe      	movs	r1, #254	; 0xfe
    8d66:	237e      	movs	r3, #126	; 0x7e
    8d68:	207f      	movs	r0, #127	; 0x7f
    8d6a:	0089      	lsls	r1, r1, #2
    8d6c:	4698      	mov	r8, r3
    8d6e:	e5a6      	b.n	88be <_malloc_r+0x4e>
    8d70:	2300      	movs	r3, #0
    8d72:	2001      	movs	r0, #1
    8d74:	469b      	mov	fp, r3
    8d76:	e6bd      	b.n	8af4 <_malloc_r+0x284>
    8d78:	0021      	movs	r1, r4
    8d7a:	0038      	movs	r0, r7
    8d7c:	3108      	adds	r1, #8
    8d7e:	f7ff fa59 	bl	8234 <_free_r>
    8d82:	4653      	mov	r3, sl
    8d84:	6819      	ldr	r1, [r3, #0]
    8d86:	e6d4      	b.n	8b32 <_malloc_r+0x2c2>
    8d88:	465b      	mov	r3, fp
    8d8a:	464a      	mov	r2, r9
    8d8c:	601a      	str	r2, [r3, #0]
    8d8e:	e694      	b.n	8aba <_malloc_r+0x24a>
    8d90:	21aa      	movs	r1, #170	; 0xaa
    8d92:	0049      	lsls	r1, r1, #1
    8d94:	428a      	cmp	r2, r1
    8d96:	d806      	bhi.n	8da6 <_malloc_r+0x536>
    8d98:	464b      	mov	r3, r9
    8d9a:	0bda      	lsrs	r2, r3, #15
    8d9c:	0011      	movs	r1, r2
    8d9e:	3278      	adds	r2, #120	; 0x78
    8da0:	3177      	adds	r1, #119	; 0x77
    8da2:	00d2      	lsls	r2, r2, #3
    8da4:	e6fe      	b.n	8ba4 <_malloc_r+0x334>
    8da6:	490b      	ldr	r1, [pc, #44]	; (8dd4 <_malloc_r+0x564>)
    8da8:	428a      	cmp	r2, r1
    8daa:	d806      	bhi.n	8dba <_malloc_r+0x54a>
    8dac:	464b      	mov	r3, r9
    8dae:	0c9a      	lsrs	r2, r3, #18
    8db0:	0011      	movs	r1, r2
    8db2:	327d      	adds	r2, #125	; 0x7d
    8db4:	317c      	adds	r1, #124	; 0x7c
    8db6:	00d2      	lsls	r2, r2, #3
    8db8:	e6f4      	b.n	8ba4 <_malloc_r+0x334>
    8dba:	22fe      	movs	r2, #254	; 0xfe
    8dbc:	217e      	movs	r1, #126	; 0x7e
    8dbe:	0092      	lsls	r2, r2, #2
    8dc0:	e6f0      	b.n	8ba4 <_malloc_r+0x334>
    8dc2:	6873      	ldr	r3, [r6, #4]
    8dc4:	e77e      	b.n	8cc4 <_malloc_r+0x454>
    8dc6:	002b      	movs	r3, r5
    8dc8:	08e8      	lsrs	r0, r5, #3
    8dca:	3308      	adds	r3, #8
    8dcc:	e605      	b.n	89da <_malloc_r+0x16a>
    8dce:	46c0      	nop			; (mov r8, r8)
    8dd0:	200009dc 	.word	0x200009dc
    8dd4:	00000554 	.word	0x00000554

00008dd8 <memchr>:
    8dd8:	b570      	push	{r4, r5, r6, lr}
    8dda:	b2cd      	uxtb	r5, r1
    8ddc:	0783      	lsls	r3, r0, #30
    8dde:	d034      	beq.n	8e4a <memchr+0x72>
    8de0:	1e54      	subs	r4, r2, #1
    8de2:	2a00      	cmp	r2, #0
    8de4:	d01b      	beq.n	8e1e <memchr+0x46>
    8de6:	7803      	ldrb	r3, [r0, #0]
    8de8:	42ab      	cmp	r3, r5
    8dea:	d019      	beq.n	8e20 <memchr+0x48>
    8dec:	2203      	movs	r2, #3
    8dee:	e004      	b.n	8dfa <memchr+0x22>
    8df0:	3c01      	subs	r4, #1
    8df2:	d314      	bcc.n	8e1e <memchr+0x46>
    8df4:	7803      	ldrb	r3, [r0, #0]
    8df6:	42ab      	cmp	r3, r5
    8df8:	d012      	beq.n	8e20 <memchr+0x48>
    8dfa:	3001      	adds	r0, #1
    8dfc:	4210      	tst	r0, r2
    8dfe:	d1f7      	bne.n	8df0 <memchr+0x18>
    8e00:	2c03      	cmp	r4, #3
    8e02:	d80e      	bhi.n	8e22 <memchr+0x4a>
    8e04:	2c00      	cmp	r4, #0
    8e06:	d00a      	beq.n	8e1e <memchr+0x46>
    8e08:	7803      	ldrb	r3, [r0, #0]
    8e0a:	42ab      	cmp	r3, r5
    8e0c:	d008      	beq.n	8e20 <memchr+0x48>
    8e0e:	1904      	adds	r4, r0, r4
    8e10:	e002      	b.n	8e18 <memchr+0x40>
    8e12:	7803      	ldrb	r3, [r0, #0]
    8e14:	42ab      	cmp	r3, r5
    8e16:	d003      	beq.n	8e20 <memchr+0x48>
    8e18:	3001      	adds	r0, #1
    8e1a:	4284      	cmp	r4, r0
    8e1c:	d1f9      	bne.n	8e12 <memchr+0x3a>
    8e1e:	2000      	movs	r0, #0
    8e20:	bd70      	pop	{r4, r5, r6, pc}
    8e22:	22ff      	movs	r2, #255	; 0xff
    8e24:	060b      	lsls	r3, r1, #24
    8e26:	0c1b      	lsrs	r3, r3, #16
    8e28:	4011      	ands	r1, r2
    8e2a:	4319      	orrs	r1, r3
    8e2c:	040b      	lsls	r3, r1, #16
    8e2e:	4e08      	ldr	r6, [pc, #32]	; (8e50 <memchr+0x78>)
    8e30:	4319      	orrs	r1, r3
    8e32:	6803      	ldr	r3, [r0, #0]
    8e34:	4a07      	ldr	r2, [pc, #28]	; (8e54 <memchr+0x7c>)
    8e36:	404b      	eors	r3, r1
    8e38:	189a      	adds	r2, r3, r2
    8e3a:	439a      	bics	r2, r3
    8e3c:	4232      	tst	r2, r6
    8e3e:	d1e3      	bne.n	8e08 <memchr+0x30>
    8e40:	3c04      	subs	r4, #4
    8e42:	3004      	adds	r0, #4
    8e44:	2c03      	cmp	r4, #3
    8e46:	d8f4      	bhi.n	8e32 <memchr+0x5a>
    8e48:	e7dc      	b.n	8e04 <memchr+0x2c>
    8e4a:	0014      	movs	r4, r2
    8e4c:	e7d8      	b.n	8e00 <memchr+0x28>
    8e4e:	46c0      	nop			; (mov r8, r8)
    8e50:	80808080 	.word	0x80808080
    8e54:	fefefeff 	.word	0xfefefeff

00008e58 <memcpy>:
    8e58:	b5f0      	push	{r4, r5, r6, r7, lr}
    8e5a:	0005      	movs	r5, r0
    8e5c:	2a0f      	cmp	r2, #15
    8e5e:	d92f      	bls.n	8ec0 <memcpy+0x68>
    8e60:	000b      	movs	r3, r1
    8e62:	4303      	orrs	r3, r0
    8e64:	079b      	lsls	r3, r3, #30
    8e66:	d134      	bne.n	8ed2 <memcpy+0x7a>
    8e68:	0016      	movs	r6, r2
    8e6a:	000c      	movs	r4, r1
    8e6c:	0003      	movs	r3, r0
    8e6e:	3e10      	subs	r6, #16
    8e70:	0935      	lsrs	r5, r6, #4
    8e72:	3501      	adds	r5, #1
    8e74:	012d      	lsls	r5, r5, #4
    8e76:	1945      	adds	r5, r0, r5
    8e78:	6827      	ldr	r7, [r4, #0]
    8e7a:	601f      	str	r7, [r3, #0]
    8e7c:	6867      	ldr	r7, [r4, #4]
    8e7e:	605f      	str	r7, [r3, #4]
    8e80:	68a7      	ldr	r7, [r4, #8]
    8e82:	609f      	str	r7, [r3, #8]
    8e84:	68e7      	ldr	r7, [r4, #12]
    8e86:	3410      	adds	r4, #16
    8e88:	60df      	str	r7, [r3, #12]
    8e8a:	3310      	adds	r3, #16
    8e8c:	429d      	cmp	r5, r3
    8e8e:	d1f3      	bne.n	8e78 <memcpy+0x20>
    8e90:	230f      	movs	r3, #15
    8e92:	439e      	bics	r6, r3
    8e94:	3610      	adds	r6, #16
    8e96:	1985      	adds	r5, r0, r6
    8e98:	1989      	adds	r1, r1, r6
    8e9a:	4013      	ands	r3, r2
    8e9c:	2b03      	cmp	r3, #3
    8e9e:	d91a      	bls.n	8ed6 <memcpy+0x7e>
    8ea0:	1f1e      	subs	r6, r3, #4
    8ea2:	2300      	movs	r3, #0
    8ea4:	08b4      	lsrs	r4, r6, #2
    8ea6:	3401      	adds	r4, #1
    8ea8:	00a4      	lsls	r4, r4, #2
    8eaa:	58cf      	ldr	r7, [r1, r3]
    8eac:	50ef      	str	r7, [r5, r3]
    8eae:	3304      	adds	r3, #4
    8eb0:	42a3      	cmp	r3, r4
    8eb2:	d1fa      	bne.n	8eaa <memcpy+0x52>
    8eb4:	2403      	movs	r4, #3
    8eb6:	43a6      	bics	r6, r4
    8eb8:	1d33      	adds	r3, r6, #4
    8eba:	4022      	ands	r2, r4
    8ebc:	18c9      	adds	r1, r1, r3
    8ebe:	18ed      	adds	r5, r5, r3
    8ec0:	2a00      	cmp	r2, #0
    8ec2:	d005      	beq.n	8ed0 <memcpy+0x78>
    8ec4:	2300      	movs	r3, #0
    8ec6:	5ccc      	ldrb	r4, [r1, r3]
    8ec8:	54ec      	strb	r4, [r5, r3]
    8eca:	3301      	adds	r3, #1
    8ecc:	4293      	cmp	r3, r2
    8ece:	d1fa      	bne.n	8ec6 <memcpy+0x6e>
    8ed0:	bdf0      	pop	{r4, r5, r6, r7, pc}
    8ed2:	0005      	movs	r5, r0
    8ed4:	e7f6      	b.n	8ec4 <memcpy+0x6c>
    8ed6:	001a      	movs	r2, r3
    8ed8:	e7f2      	b.n	8ec0 <memcpy+0x68>
    8eda:	46c0      	nop			; (mov r8, r8)

00008edc <memmove>:
    8edc:	b5f0      	push	{r4, r5, r6, r7, lr}
    8ede:	4288      	cmp	r0, r1
    8ee0:	d90a      	bls.n	8ef8 <memmove+0x1c>
    8ee2:	188b      	adds	r3, r1, r2
    8ee4:	4298      	cmp	r0, r3
    8ee6:	d207      	bcs.n	8ef8 <memmove+0x1c>
    8ee8:	1e53      	subs	r3, r2, #1
    8eea:	2a00      	cmp	r2, #0
    8eec:	d003      	beq.n	8ef6 <memmove+0x1a>
    8eee:	5cca      	ldrb	r2, [r1, r3]
    8ef0:	54c2      	strb	r2, [r0, r3]
    8ef2:	3b01      	subs	r3, #1
    8ef4:	d2fb      	bcs.n	8eee <memmove+0x12>
    8ef6:	bdf0      	pop	{r4, r5, r6, r7, pc}
    8ef8:	0005      	movs	r5, r0
    8efa:	2a0f      	cmp	r2, #15
    8efc:	d808      	bhi.n	8f10 <memmove+0x34>
    8efe:	2a00      	cmp	r2, #0
    8f00:	d0f9      	beq.n	8ef6 <memmove+0x1a>
    8f02:	2300      	movs	r3, #0
    8f04:	5ccc      	ldrb	r4, [r1, r3]
    8f06:	54ec      	strb	r4, [r5, r3]
    8f08:	3301      	adds	r3, #1
    8f0a:	4293      	cmp	r3, r2
    8f0c:	d1fa      	bne.n	8f04 <memmove+0x28>
    8f0e:	e7f2      	b.n	8ef6 <memmove+0x1a>
    8f10:	000b      	movs	r3, r1
    8f12:	4303      	orrs	r3, r0
    8f14:	079b      	lsls	r3, r3, #30
    8f16:	d12d      	bne.n	8f74 <memmove+0x98>
    8f18:	0015      	movs	r5, r2
    8f1a:	000c      	movs	r4, r1
    8f1c:	0003      	movs	r3, r0
    8f1e:	3d10      	subs	r5, #16
    8f20:	092f      	lsrs	r7, r5, #4
    8f22:	3701      	adds	r7, #1
    8f24:	013f      	lsls	r7, r7, #4
    8f26:	19c7      	adds	r7, r0, r7
    8f28:	6826      	ldr	r6, [r4, #0]
    8f2a:	601e      	str	r6, [r3, #0]
    8f2c:	6866      	ldr	r6, [r4, #4]
    8f2e:	605e      	str	r6, [r3, #4]
    8f30:	68a6      	ldr	r6, [r4, #8]
    8f32:	609e      	str	r6, [r3, #8]
    8f34:	68e6      	ldr	r6, [r4, #12]
    8f36:	3410      	adds	r4, #16
    8f38:	60de      	str	r6, [r3, #12]
    8f3a:	3310      	adds	r3, #16
    8f3c:	429f      	cmp	r7, r3
    8f3e:	d1f3      	bne.n	8f28 <memmove+0x4c>
    8f40:	240f      	movs	r4, #15
    8f42:	43a5      	bics	r5, r4
    8f44:	3510      	adds	r5, #16
    8f46:	1949      	adds	r1, r1, r5
    8f48:	4014      	ands	r4, r2
    8f4a:	1945      	adds	r5, r0, r5
    8f4c:	2c03      	cmp	r4, #3
    8f4e:	d913      	bls.n	8f78 <memmove+0x9c>
    8f50:	2300      	movs	r3, #0
    8f52:	1f27      	subs	r7, r4, #4
    8f54:	08be      	lsrs	r6, r7, #2
    8f56:	3601      	adds	r6, #1
    8f58:	00b6      	lsls	r6, r6, #2
    8f5a:	58cc      	ldr	r4, [r1, r3]
    8f5c:	50ec      	str	r4, [r5, r3]
    8f5e:	3304      	adds	r3, #4
    8f60:	42b3      	cmp	r3, r6
    8f62:	d1fa      	bne.n	8f5a <memmove+0x7e>
    8f64:	2603      	movs	r6, #3
    8f66:	43b7      	bics	r7, r6
    8f68:	1d3c      	adds	r4, r7, #4
    8f6a:	1909      	adds	r1, r1, r4
    8f6c:	192d      	adds	r5, r5, r4
    8f6e:	4032      	ands	r2, r6
    8f70:	d1c7      	bne.n	8f02 <memmove+0x26>
    8f72:	e7c0      	b.n	8ef6 <memmove+0x1a>
    8f74:	0005      	movs	r5, r0
    8f76:	e7c4      	b.n	8f02 <memmove+0x26>
    8f78:	0022      	movs	r2, r4
    8f7a:	e7c0      	b.n	8efe <memmove+0x22>

00008f7c <__malloc_lock>:
    8f7c:	b510      	push	{r4, lr}
    8f7e:	4802      	ldr	r0, [pc, #8]	; (8f88 <__malloc_lock+0xc>)
    8f80:	f7ff fbf0 	bl	8764 <__retarget_lock_acquire_recursive>
    8f84:	bd10      	pop	{r4, pc}
    8f86:	46c0      	nop			; (mov r8, r8)
    8f88:	20000a80 	.word	0x20000a80

00008f8c <__malloc_unlock>:
    8f8c:	b510      	push	{r4, lr}
    8f8e:	4802      	ldr	r0, [pc, #8]	; (8f98 <__malloc_unlock+0xc>)
    8f90:	f7ff fbea 	bl	8768 <__retarget_lock_release_recursive>
    8f94:	bd10      	pop	{r4, pc}
    8f96:	46c0      	nop			; (mov r8, r8)
    8f98:	20000a80 	.word	0x20000a80

00008f9c <_Balloc>:
    8f9c:	b570      	push	{r4, r5, r6, lr}
    8f9e:	0004      	movs	r4, r0
    8fa0:	6cc0      	ldr	r0, [r0, #76]	; 0x4c
    8fa2:	000d      	movs	r5, r1
    8fa4:	2800      	cmp	r0, #0
    8fa6:	d00a      	beq.n	8fbe <_Balloc+0x22>
    8fa8:	00ab      	lsls	r3, r5, #2
    8faa:	18c3      	adds	r3, r0, r3
    8fac:	6818      	ldr	r0, [r3, #0]
    8fae:	2800      	cmp	r0, #0
    8fb0:	d00f      	beq.n	8fd2 <_Balloc+0x36>
    8fb2:	6802      	ldr	r2, [r0, #0]
    8fb4:	601a      	str	r2, [r3, #0]
    8fb6:	2300      	movs	r3, #0
    8fb8:	6103      	str	r3, [r0, #16]
    8fba:	60c3      	str	r3, [r0, #12]
    8fbc:	bd70      	pop	{r4, r5, r6, pc}
    8fbe:	2221      	movs	r2, #33	; 0x21
    8fc0:	2104      	movs	r1, #4
    8fc2:	0020      	movs	r0, r4
    8fc4:	f000 fe2a 	bl	9c1c <_calloc_r>
    8fc8:	64e0      	str	r0, [r4, #76]	; 0x4c
    8fca:	2800      	cmp	r0, #0
    8fcc:	d1ec      	bne.n	8fa8 <_Balloc+0xc>
    8fce:	2000      	movs	r0, #0
    8fd0:	e7f4      	b.n	8fbc <_Balloc+0x20>
    8fd2:	2601      	movs	r6, #1
    8fd4:	40ae      	lsls	r6, r5
    8fd6:	1d72      	adds	r2, r6, #5
    8fd8:	0092      	lsls	r2, r2, #2
    8fda:	2101      	movs	r1, #1
    8fdc:	0020      	movs	r0, r4
    8fde:	f000 fe1d 	bl	9c1c <_calloc_r>
    8fe2:	2800      	cmp	r0, #0
    8fe4:	d0f3      	beq.n	8fce <_Balloc+0x32>
    8fe6:	6045      	str	r5, [r0, #4]
    8fe8:	6086      	str	r6, [r0, #8]
    8fea:	e7e4      	b.n	8fb6 <_Balloc+0x1a>

00008fec <_Bfree>:
    8fec:	2900      	cmp	r1, #0
    8fee:	d006      	beq.n	8ffe <_Bfree+0x12>
    8ff0:	684b      	ldr	r3, [r1, #4]
    8ff2:	009a      	lsls	r2, r3, #2
    8ff4:	6cc3      	ldr	r3, [r0, #76]	; 0x4c
    8ff6:	189b      	adds	r3, r3, r2
    8ff8:	681a      	ldr	r2, [r3, #0]
    8ffa:	600a      	str	r2, [r1, #0]
    8ffc:	6019      	str	r1, [r3, #0]
    8ffe:	4770      	bx	lr

00009000 <__multadd>:
    9000:	b5f8      	push	{r3, r4, r5, r6, r7, lr}
    9002:	46ce      	mov	lr, r9
    9004:	4647      	mov	r7, r8
    9006:	4681      	mov	r9, r0
    9008:	0008      	movs	r0, r1
    900a:	b580      	push	{r7, lr}
    900c:	000d      	movs	r5, r1
    900e:	690c      	ldr	r4, [r1, #16]
    9010:	001f      	movs	r7, r3
    9012:	2100      	movs	r1, #0
    9014:	3014      	adds	r0, #20
    9016:	6803      	ldr	r3, [r0, #0]
    9018:	3101      	adds	r1, #1
    901a:	041e      	lsls	r6, r3, #16
    901c:	0c36      	lsrs	r6, r6, #16
    901e:	4356      	muls	r6, r2
    9020:	0c1b      	lsrs	r3, r3, #16
    9022:	4353      	muls	r3, r2
    9024:	19f6      	adds	r6, r6, r7
    9026:	0c37      	lsrs	r7, r6, #16
    9028:	19db      	adds	r3, r3, r7
    902a:	0436      	lsls	r6, r6, #16
    902c:	0c1f      	lsrs	r7, r3, #16
    902e:	0c36      	lsrs	r6, r6, #16
    9030:	041b      	lsls	r3, r3, #16
    9032:	199b      	adds	r3, r3, r6
    9034:	c008      	stmia	r0!, {r3}
    9036:	428c      	cmp	r4, r1
    9038:	dced      	bgt.n	9016 <__multadd+0x16>
    903a:	2f00      	cmp	r7, #0
    903c:	d008      	beq.n	9050 <__multadd+0x50>
    903e:	68ab      	ldr	r3, [r5, #8]
    9040:	429c      	cmp	r4, r3
    9042:	da0a      	bge.n	905a <__multadd+0x5a>
    9044:	1d23      	adds	r3, r4, #4
    9046:	009b      	lsls	r3, r3, #2
    9048:	18eb      	adds	r3, r5, r3
    904a:	3401      	adds	r4, #1
    904c:	605f      	str	r7, [r3, #4]
    904e:	612c      	str	r4, [r5, #16]
    9050:	0028      	movs	r0, r5
    9052:	bc0c      	pop	{r2, r3}
    9054:	4690      	mov	r8, r2
    9056:	4699      	mov	r9, r3
    9058:	bdf8      	pop	{r3, r4, r5, r6, r7, pc}
    905a:	686b      	ldr	r3, [r5, #4]
    905c:	4648      	mov	r0, r9
    905e:	1c59      	adds	r1, r3, #1
    9060:	f7ff ff9c 	bl	8f9c <_Balloc>
    9064:	0029      	movs	r1, r5
    9066:	692b      	ldr	r3, [r5, #16]
    9068:	4680      	mov	r8, r0
    906a:	1c9a      	adds	r2, r3, #2
    906c:	0092      	lsls	r2, r2, #2
    906e:	310c      	adds	r1, #12
    9070:	300c      	adds	r0, #12
    9072:	f7ff fef1 	bl	8e58 <memcpy>
    9076:	686b      	ldr	r3, [r5, #4]
    9078:	009a      	lsls	r2, r3, #2
    907a:	464b      	mov	r3, r9
    907c:	6cdb      	ldr	r3, [r3, #76]	; 0x4c
    907e:	189b      	adds	r3, r3, r2
    9080:	681a      	ldr	r2, [r3, #0]
    9082:	602a      	str	r2, [r5, #0]
    9084:	601d      	str	r5, [r3, #0]
    9086:	4645      	mov	r5, r8
    9088:	e7dc      	b.n	9044 <__multadd+0x44>
    908a:	46c0      	nop			; (mov r8, r8)

0000908c <__hi0bits>:
    908c:	0003      	movs	r3, r0
    908e:	0c02      	lsrs	r2, r0, #16
    9090:	2000      	movs	r0, #0
    9092:	2a00      	cmp	r2, #0
    9094:	d101      	bne.n	909a <__hi0bits+0xe>
    9096:	041b      	lsls	r3, r3, #16
    9098:	3010      	adds	r0, #16
    909a:	0e1a      	lsrs	r2, r3, #24
    909c:	d101      	bne.n	90a2 <__hi0bits+0x16>
    909e:	3008      	adds	r0, #8
    90a0:	021b      	lsls	r3, r3, #8
    90a2:	0f1a      	lsrs	r2, r3, #28
    90a4:	d101      	bne.n	90aa <__hi0bits+0x1e>
    90a6:	3004      	adds	r0, #4
    90a8:	011b      	lsls	r3, r3, #4
    90aa:	0f9a      	lsrs	r2, r3, #30
    90ac:	d101      	bne.n	90b2 <__hi0bits+0x26>
    90ae:	3002      	adds	r0, #2
    90b0:	009b      	lsls	r3, r3, #2
    90b2:	2b00      	cmp	r3, #0
    90b4:	db03      	blt.n	90be <__hi0bits+0x32>
    90b6:	3001      	adds	r0, #1
    90b8:	005b      	lsls	r3, r3, #1
    90ba:	d400      	bmi.n	90be <__hi0bits+0x32>
    90bc:	2020      	movs	r0, #32
    90be:	4770      	bx	lr

000090c0 <__lo0bits>:
    90c0:	6803      	ldr	r3, [r0, #0]
    90c2:	075a      	lsls	r2, r3, #29
    90c4:	d009      	beq.n	90da <__lo0bits+0x1a>
    90c6:	2200      	movs	r2, #0
    90c8:	07d9      	lsls	r1, r3, #31
    90ca:	d404      	bmi.n	90d6 <__lo0bits+0x16>
    90cc:	079a      	lsls	r2, r3, #30
    90ce:	d420      	bmi.n	9112 <__lo0bits+0x52>
    90d0:	2202      	movs	r2, #2
    90d2:	089b      	lsrs	r3, r3, #2
    90d4:	6003      	str	r3, [r0, #0]
    90d6:	0010      	movs	r0, r2
    90d8:	4770      	bx	lr
    90da:	0419      	lsls	r1, r3, #16
    90dc:	2200      	movs	r2, #0
    90de:	2900      	cmp	r1, #0
    90e0:	d101      	bne.n	90e6 <__lo0bits+0x26>
    90e2:	0c1b      	lsrs	r3, r3, #16
    90e4:	3210      	adds	r2, #16
    90e6:	21ff      	movs	r1, #255	; 0xff
    90e8:	4219      	tst	r1, r3
    90ea:	d101      	bne.n	90f0 <__lo0bits+0x30>
    90ec:	3208      	adds	r2, #8
    90ee:	0a1b      	lsrs	r3, r3, #8
    90f0:	0719      	lsls	r1, r3, #28
    90f2:	d101      	bne.n	90f8 <__lo0bits+0x38>
    90f4:	3204      	adds	r2, #4
    90f6:	091b      	lsrs	r3, r3, #4
    90f8:	0799      	lsls	r1, r3, #30
    90fa:	d101      	bne.n	9100 <__lo0bits+0x40>
    90fc:	3202      	adds	r2, #2
    90fe:	089b      	lsrs	r3, r3, #2
    9100:	07d9      	lsls	r1, r3, #31
    9102:	d404      	bmi.n	910e <__lo0bits+0x4e>
    9104:	085b      	lsrs	r3, r3, #1
    9106:	d101      	bne.n	910c <__lo0bits+0x4c>
    9108:	2220      	movs	r2, #32
    910a:	e7e4      	b.n	90d6 <__lo0bits+0x16>
    910c:	3201      	adds	r2, #1
    910e:	6003      	str	r3, [r0, #0]
    9110:	e7e1      	b.n	90d6 <__lo0bits+0x16>
    9112:	085b      	lsrs	r3, r3, #1
    9114:	6003      	str	r3, [r0, #0]
    9116:	2201      	movs	r2, #1
    9118:	e7dd      	b.n	90d6 <__lo0bits+0x16>
    911a:	46c0      	nop			; (mov r8, r8)

0000911c <__i2b>:
    911c:	b510      	push	{r4, lr}
    911e:	000c      	movs	r4, r1
    9120:	2101      	movs	r1, #1
    9122:	f7ff ff3b 	bl	8f9c <_Balloc>
    9126:	2301      	movs	r3, #1
    9128:	6144      	str	r4, [r0, #20]
    912a:	6103      	str	r3, [r0, #16]
    912c:	bd10      	pop	{r4, pc}
    912e:	46c0      	nop			; (mov r8, r8)

00009130 <__multiply>:
    9130:	b5f0      	push	{r4, r5, r6, r7, lr}
    9132:	4657      	mov	r7, sl
    9134:	464e      	mov	r6, r9
    9136:	4645      	mov	r5, r8
    9138:	46de      	mov	lr, fp
    913a:	b5e0      	push	{r5, r6, r7, lr}
    913c:	6914      	ldr	r4, [r2, #16]
    913e:	690e      	ldr	r6, [r1, #16]
    9140:	b085      	sub	sp, #20
    9142:	000f      	movs	r7, r1
    9144:	0015      	movs	r5, r2
    9146:	42a6      	cmp	r6, r4
    9148:	da04      	bge.n	9154 <__multiply+0x24>
    914a:	0033      	movs	r3, r6
    914c:	0017      	movs	r7, r2
    914e:	0026      	movs	r6, r4
    9150:	000d      	movs	r5, r1
    9152:	001c      	movs	r4, r3
    9154:	1933      	adds	r3, r6, r4
    9156:	4698      	mov	r8, r3
    9158:	68bb      	ldr	r3, [r7, #8]
    915a:	6879      	ldr	r1, [r7, #4]
    915c:	4598      	cmp	r8, r3
    915e:	dd00      	ble.n	9162 <__multiply+0x32>
    9160:	3101      	adds	r1, #1
    9162:	f7ff ff1b 	bl	8f9c <_Balloc>
    9166:	2214      	movs	r2, #20
    9168:	0003      	movs	r3, r0
    916a:	4694      	mov	ip, r2
    916c:	4463      	add	r3, ip
    916e:	469b      	mov	fp, r3
    9170:	4643      	mov	r3, r8
    9172:	009b      	lsls	r3, r3, #2
    9174:	445b      	add	r3, fp
    9176:	0019      	movs	r1, r3
    9178:	9302      	str	r3, [sp, #8]
    917a:	9003      	str	r0, [sp, #12]
    917c:	465b      	mov	r3, fp
    917e:	2200      	movs	r2, #0
    9180:	458b      	cmp	fp, r1
    9182:	d203      	bcs.n	918c <__multiply+0x5c>
    9184:	9902      	ldr	r1, [sp, #8]
    9186:	c304      	stmia	r3!, {r2}
    9188:	4299      	cmp	r1, r3
    918a:	d8fc      	bhi.n	9186 <__multiply+0x56>
    918c:	2314      	movs	r3, #20
    918e:	00a4      	lsls	r4, r4, #2
    9190:	469a      	mov	sl, r3
    9192:	3714      	adds	r7, #20
    9194:	0023      	movs	r3, r4
    9196:	46bc      	mov	ip, r7
    9198:	44aa      	add	sl, r5
    919a:	00b6      	lsls	r6, r6, #2
    919c:	4453      	add	r3, sl
    919e:	9700      	str	r7, [sp, #0]
    91a0:	44b4      	add	ip, r6
    91a2:	9301      	str	r3, [sp, #4]
    91a4:	459a      	cmp	sl, r3
    91a6:	d24f      	bcs.n	9248 <__multiply+0x118>
    91a8:	4653      	mov	r3, sl
    91aa:	681b      	ldr	r3, [r3, #0]
    91ac:	041e      	lsls	r6, r3, #16
    91ae:	0c36      	lsrs	r6, r6, #16
    91b0:	d020      	beq.n	91f4 <__multiply+0xc4>
    91b2:	465c      	mov	r4, fp
    91b4:	2700      	movs	r7, #0
    91b6:	9d00      	ldr	r5, [sp, #0]
    91b8:	0021      	movs	r1, r4
    91ba:	cc08      	ldmia	r4!, {r3}
    91bc:	cd04      	ldmia	r5!, {r2}
    91be:	4699      	mov	r9, r3
    91c0:	4648      	mov	r0, r9
    91c2:	0413      	lsls	r3, r2, #16
    91c4:	0c1b      	lsrs	r3, r3, #16
    91c6:	4373      	muls	r3, r6
    91c8:	0400      	lsls	r0, r0, #16
    91ca:	0c00      	lsrs	r0, r0, #16
    91cc:	181b      	adds	r3, r3, r0
    91ce:	19d8      	adds	r0, r3, r7
    91d0:	0c13      	lsrs	r3, r2, #16
    91d2:	464a      	mov	r2, r9
    91d4:	4373      	muls	r3, r6
    91d6:	0c12      	lsrs	r2, r2, #16
    91d8:	189b      	adds	r3, r3, r2
    91da:	0c02      	lsrs	r2, r0, #16
    91dc:	189b      	adds	r3, r3, r2
    91de:	0402      	lsls	r2, r0, #16
    91e0:	0c1f      	lsrs	r7, r3, #16
    91e2:	0c12      	lsrs	r2, r2, #16
    91e4:	041b      	lsls	r3, r3, #16
    91e6:	4313      	orrs	r3, r2
    91e8:	600b      	str	r3, [r1, #0]
    91ea:	45ac      	cmp	ip, r5
    91ec:	d8e4      	bhi.n	91b8 <__multiply+0x88>
    91ee:	4653      	mov	r3, sl
    91f0:	6027      	str	r7, [r4, #0]
    91f2:	681b      	ldr	r3, [r3, #0]
    91f4:	0c1e      	lsrs	r6, r3, #16
    91f6:	d020      	beq.n	923a <__multiply+0x10a>
    91f8:	465b      	mov	r3, fp
    91fa:	2100      	movs	r1, #0
    91fc:	681b      	ldr	r3, [r3, #0]
    91fe:	465c      	mov	r4, fp
    9200:	0018      	movs	r0, r3
    9202:	000f      	movs	r7, r1
    9204:	4662      	mov	r2, ip
    9206:	9d00      	ldr	r5, [sp, #0]
    9208:	8829      	ldrh	r1, [r5, #0]
    920a:	0c00      	lsrs	r0, r0, #16
    920c:	4371      	muls	r1, r6
    920e:	1809      	adds	r1, r1, r0
    9210:	19c9      	adds	r1, r1, r7
    9212:	041b      	lsls	r3, r3, #16
    9214:	0408      	lsls	r0, r1, #16
    9216:	0c1b      	lsrs	r3, r3, #16
    9218:	4303      	orrs	r3, r0
    921a:	6023      	str	r3, [r4, #0]
    921c:	cd08      	ldmia	r5!, {r3}
    921e:	6860      	ldr	r0, [r4, #4]
    9220:	0c1b      	lsrs	r3, r3, #16
    9222:	4373      	muls	r3, r6
    9224:	0407      	lsls	r7, r0, #16
    9226:	0c3f      	lsrs	r7, r7, #16
    9228:	19db      	adds	r3, r3, r7
    922a:	0c09      	lsrs	r1, r1, #16
    922c:	185b      	adds	r3, r3, r1
    922e:	0c1f      	lsrs	r7, r3, #16
    9230:	3404      	adds	r4, #4
    9232:	42aa      	cmp	r2, r5
    9234:	d8e8      	bhi.n	9208 <__multiply+0xd8>
    9236:	4694      	mov	ip, r2
    9238:	6023      	str	r3, [r4, #0]
    923a:	2304      	movs	r3, #4
    923c:	4699      	mov	r9, r3
    923e:	9b01      	ldr	r3, [sp, #4]
    9240:	44ca      	add	sl, r9
    9242:	44cb      	add	fp, r9
    9244:	4553      	cmp	r3, sl
    9246:	d8af      	bhi.n	91a8 <__multiply+0x78>
    9248:	4643      	mov	r3, r8
    924a:	2b00      	cmp	r3, #0
    924c:	dd0e      	ble.n	926c <__multiply+0x13c>
    924e:	9b02      	ldr	r3, [sp, #8]
    9250:	3b04      	subs	r3, #4
    9252:	681a      	ldr	r2, [r3, #0]
    9254:	2a00      	cmp	r2, #0
    9256:	d109      	bne.n	926c <__multiply+0x13c>
    9258:	4642      	mov	r2, r8
    925a:	e003      	b.n	9264 <__multiply+0x134>
    925c:	3b04      	subs	r3, #4
    925e:	6819      	ldr	r1, [r3, #0]
    9260:	2900      	cmp	r1, #0
    9262:	d102      	bne.n	926a <__multiply+0x13a>
    9264:	3a01      	subs	r2, #1
    9266:	2a00      	cmp	r2, #0
    9268:	d1f8      	bne.n	925c <__multiply+0x12c>
    926a:	4690      	mov	r8, r2
    926c:	9b03      	ldr	r3, [sp, #12]
    926e:	4642      	mov	r2, r8
    9270:	0018      	movs	r0, r3
    9272:	611a      	str	r2, [r3, #16]
    9274:	b005      	add	sp, #20
    9276:	bc3c      	pop	{r2, r3, r4, r5}
    9278:	4690      	mov	r8, r2
    927a:	4699      	mov	r9, r3
    927c:	46a2      	mov	sl, r4
    927e:	46ab      	mov	fp, r5
    9280:	bdf0      	pop	{r4, r5, r6, r7, pc}
    9282:	46c0      	nop			; (mov r8, r8)

00009284 <__pow5mult>:
    9284:	b5f8      	push	{r3, r4, r5, r6, r7, lr}
    9286:	4647      	mov	r7, r8
    9288:	46ce      	mov	lr, r9
    928a:	2303      	movs	r3, #3
    928c:	b580      	push	{r7, lr}
    928e:	4680      	mov	r8, r0
    9290:	000f      	movs	r7, r1
    9292:	0014      	movs	r4, r2
    9294:	4013      	ands	r3, r2
    9296:	d13a      	bne.n	930e <__pow5mult+0x8a>
    9298:	10a4      	asrs	r4, r4, #2
    929a:	003e      	movs	r6, r7
    929c:	2c00      	cmp	r4, #0
    929e:	d025      	beq.n	92ec <__pow5mult+0x68>
    92a0:	4643      	mov	r3, r8
    92a2:	6c9d      	ldr	r5, [r3, #72]	; 0x48
    92a4:	2d00      	cmp	r5, #0
    92a6:	d03b      	beq.n	9320 <__pow5mult+0x9c>
    92a8:	003e      	movs	r6, r7
    92aa:	2300      	movs	r3, #0
    92ac:	2701      	movs	r7, #1
    92ae:	4699      	mov	r9, r3
    92b0:	4227      	tst	r7, r4
    92b2:	d107      	bne.n	92c4 <__pow5mult+0x40>
    92b4:	1064      	asrs	r4, r4, #1
    92b6:	d019      	beq.n	92ec <__pow5mult+0x68>
    92b8:	6828      	ldr	r0, [r5, #0]
    92ba:	2800      	cmp	r0, #0
    92bc:	d01b      	beq.n	92f6 <__pow5mult+0x72>
    92be:	0005      	movs	r5, r0
    92c0:	4227      	tst	r7, r4
    92c2:	d0f7      	beq.n	92b4 <__pow5mult+0x30>
    92c4:	002a      	movs	r2, r5
    92c6:	0031      	movs	r1, r6
    92c8:	4640      	mov	r0, r8
    92ca:	f7ff ff31 	bl	9130 <__multiply>
    92ce:	2e00      	cmp	r6, #0
    92d0:	d01b      	beq.n	930a <__pow5mult+0x86>
    92d2:	4642      	mov	r2, r8
    92d4:	6cd2      	ldr	r2, [r2, #76]	; 0x4c
    92d6:	6873      	ldr	r3, [r6, #4]
    92d8:	4694      	mov	ip, r2
    92da:	009b      	lsls	r3, r3, #2
    92dc:	4463      	add	r3, ip
    92de:	681a      	ldr	r2, [r3, #0]
    92e0:	1064      	asrs	r4, r4, #1
    92e2:	6032      	str	r2, [r6, #0]
    92e4:	601e      	str	r6, [r3, #0]
    92e6:	0006      	movs	r6, r0
    92e8:	2c00      	cmp	r4, #0
    92ea:	d1e5      	bne.n	92b8 <__pow5mult+0x34>
    92ec:	0030      	movs	r0, r6
    92ee:	bc0c      	pop	{r2, r3}
    92f0:	4690      	mov	r8, r2
    92f2:	4699      	mov	r9, r3
    92f4:	bdf8      	pop	{r3, r4, r5, r6, r7, pc}
    92f6:	002a      	movs	r2, r5
    92f8:	0029      	movs	r1, r5
    92fa:	4640      	mov	r0, r8
    92fc:	f7ff ff18 	bl	9130 <__multiply>
    9300:	464b      	mov	r3, r9
    9302:	6028      	str	r0, [r5, #0]
    9304:	6003      	str	r3, [r0, #0]
    9306:	0005      	movs	r5, r0
    9308:	e7da      	b.n	92c0 <__pow5mult+0x3c>
    930a:	0006      	movs	r6, r0
    930c:	e7d2      	b.n	92b4 <__pow5mult+0x30>
    930e:	4a0b      	ldr	r2, [pc, #44]	; (933c <__pow5mult+0xb8>)
    9310:	3b01      	subs	r3, #1
    9312:	009b      	lsls	r3, r3, #2
    9314:	589a      	ldr	r2, [r3, r2]
    9316:	2300      	movs	r3, #0
    9318:	f7ff fe72 	bl	9000 <__multadd>
    931c:	0007      	movs	r7, r0
    931e:	e7bb      	b.n	9298 <__pow5mult+0x14>
    9320:	2101      	movs	r1, #1
    9322:	4640      	mov	r0, r8
    9324:	f7ff fe3a 	bl	8f9c <_Balloc>
    9328:	4b05      	ldr	r3, [pc, #20]	; (9340 <__pow5mult+0xbc>)
    932a:	0005      	movs	r5, r0
    932c:	6143      	str	r3, [r0, #20]
    932e:	2301      	movs	r3, #1
    9330:	6103      	str	r3, [r0, #16]
    9332:	4643      	mov	r3, r8
    9334:	6498      	str	r0, [r3, #72]	; 0x48
    9336:	2300      	movs	r3, #0
    9338:	6003      	str	r3, [r0, #0]
    933a:	e7b5      	b.n	92a8 <__pow5mult+0x24>
    933c:	0000a630 	.word	0x0000a630
    9340:	00000271 	.word	0x00000271

00009344 <__lshift>:
    9344:	b5f8      	push	{r3, r4, r5, r6, r7, lr}
    9346:	464e      	mov	r6, r9
    9348:	4645      	mov	r5, r8
    934a:	46de      	mov	lr, fp
    934c:	4657      	mov	r7, sl
    934e:	b5e0      	push	{r5, r6, r7, lr}
    9350:	000e      	movs	r6, r1
    9352:	6933      	ldr	r3, [r6, #16]
    9354:	1154      	asrs	r4, r2, #5
    9356:	4698      	mov	r8, r3
    9358:	44a0      	add	r8, r4
    935a:	4643      	mov	r3, r8
    935c:	1c5d      	adds	r5, r3, #1
    935e:	68b3      	ldr	r3, [r6, #8]
    9360:	4683      	mov	fp, r0
    9362:	4691      	mov	r9, r2
    9364:	6849      	ldr	r1, [r1, #4]
    9366:	429d      	cmp	r5, r3
    9368:	dd03      	ble.n	9372 <__lshift+0x2e>
    936a:	3101      	adds	r1, #1
    936c:	005b      	lsls	r3, r3, #1
    936e:	429d      	cmp	r5, r3
    9370:	dcfb      	bgt.n	936a <__lshift+0x26>
    9372:	4658      	mov	r0, fp
    9374:	f7ff fe12 	bl	8f9c <_Balloc>
    9378:	0003      	movs	r3, r0
    937a:	4684      	mov	ip, r0
    937c:	3314      	adds	r3, #20
    937e:	2c00      	cmp	r4, #0
    9380:	dd06      	ble.n	9390 <__lshift+0x4c>
    9382:	2100      	movs	r1, #0
    9384:	00a4      	lsls	r4, r4, #2
    9386:	001a      	movs	r2, r3
    9388:	191b      	adds	r3, r3, r4
    938a:	c202      	stmia	r2!, {r1}
    938c:	4293      	cmp	r3, r2
    938e:	d1fc      	bne.n	938a <__lshift+0x46>
    9390:	6932      	ldr	r2, [r6, #16]
    9392:	4648      	mov	r0, r9
    9394:	0097      	lsls	r7, r2, #2
    9396:	0031      	movs	r1, r6
    9398:	221f      	movs	r2, #31
    939a:	3114      	adds	r1, #20
    939c:	4010      	ands	r0, r2
    939e:	19cf      	adds	r7, r1, r7
    93a0:	4681      	mov	r9, r0
    93a2:	2800      	cmp	r0, #0
    93a4:	d025      	beq.n	93f2 <__lshift+0xae>
    93a6:	2220      	movs	r2, #32
    93a8:	1a12      	subs	r2, r2, r0
    93aa:	4692      	mov	sl, r2
    93ac:	2200      	movs	r2, #0
    93ae:	4648      	mov	r0, r9
    93b0:	680c      	ldr	r4, [r1, #0]
    93b2:	4084      	lsls	r4, r0
    93b4:	4650      	mov	r0, sl
    93b6:	4314      	orrs	r4, r2
    93b8:	601c      	str	r4, [r3, #0]
    93ba:	c904      	ldmia	r1!, {r2}
    93bc:	3304      	adds	r3, #4
    93be:	40c2      	lsrs	r2, r0
    93c0:	428f      	cmp	r7, r1
    93c2:	d8f4      	bhi.n	93ae <__lshift+0x6a>
    93c4:	601a      	str	r2, [r3, #0]
    93c6:	2a00      	cmp	r2, #0
    93c8:	d001      	beq.n	93ce <__lshift+0x8a>
    93ca:	4645      	mov	r5, r8
    93cc:	3502      	adds	r5, #2
    93ce:	4663      	mov	r3, ip
    93d0:	3d01      	subs	r5, #1
    93d2:	611d      	str	r5, [r3, #16]
    93d4:	6873      	ldr	r3, [r6, #4]
    93d6:	4660      	mov	r0, ip
    93d8:	009a      	lsls	r2, r3, #2
    93da:	465b      	mov	r3, fp
    93dc:	6cdb      	ldr	r3, [r3, #76]	; 0x4c
    93de:	189b      	adds	r3, r3, r2
    93e0:	681a      	ldr	r2, [r3, #0]
    93e2:	6032      	str	r2, [r6, #0]
    93e4:	601e      	str	r6, [r3, #0]
    93e6:	bc3c      	pop	{r2, r3, r4, r5}
    93e8:	4690      	mov	r8, r2
    93ea:	4699      	mov	r9, r3
    93ec:	46a2      	mov	sl, r4
    93ee:	46ab      	mov	fp, r5
    93f0:	bdf8      	pop	{r3, r4, r5, r6, r7, pc}
    93f2:	c904      	ldmia	r1!, {r2}
    93f4:	c304      	stmia	r3!, {r2}
    93f6:	428f      	cmp	r7, r1
    93f8:	d9e9      	bls.n	93ce <__lshift+0x8a>
    93fa:	c904      	ldmia	r1!, {r2}
    93fc:	c304      	stmia	r3!, {r2}
    93fe:	428f      	cmp	r7, r1
    9400:	d8f7      	bhi.n	93f2 <__lshift+0xae>
    9402:	e7e4      	b.n	93ce <__lshift+0x8a>

00009404 <__mcmp>:
    9404:	690a      	ldr	r2, [r1, #16]
    9406:	6903      	ldr	r3, [r0, #16]
    9408:	b530      	push	{r4, r5, lr}
    940a:	0005      	movs	r5, r0
    940c:	1a98      	subs	r0, r3, r2
    940e:	d111      	bne.n	9434 <__mcmp+0x30>
    9410:	0092      	lsls	r2, r2, #2
    9412:	3514      	adds	r5, #20
    9414:	3114      	adds	r1, #20
    9416:	18ab      	adds	r3, r5, r2
    9418:	1889      	adds	r1, r1, r2
    941a:	e001      	b.n	9420 <__mcmp+0x1c>
    941c:	429d      	cmp	r5, r3
    941e:	d209      	bcs.n	9434 <__mcmp+0x30>
    9420:	3b04      	subs	r3, #4
    9422:	3904      	subs	r1, #4
    9424:	681c      	ldr	r4, [r3, #0]
    9426:	680a      	ldr	r2, [r1, #0]
    9428:	4294      	cmp	r4, r2
    942a:	d0f7      	beq.n	941c <__mcmp+0x18>
    942c:	4294      	cmp	r4, r2
    942e:	4180      	sbcs	r0, r0
    9430:	2201      	movs	r2, #1
    9432:	4310      	orrs	r0, r2
    9434:	bd30      	pop	{r4, r5, pc}
    9436:	46c0      	nop			; (mov r8, r8)

00009438 <__mdiff>:
    9438:	b5f8      	push	{r3, r4, r5, r6, r7, lr}
    943a:	4645      	mov	r5, r8
    943c:	46de      	mov	lr, fp
    943e:	4657      	mov	r7, sl
    9440:	464e      	mov	r6, r9
    9442:	0014      	movs	r4, r2
    9444:	690b      	ldr	r3, [r1, #16]
    9446:	6912      	ldr	r2, [r2, #16]
    9448:	b5e0      	push	{r5, r6, r7, lr}
    944a:	4688      	mov	r8, r1
    944c:	1a9d      	subs	r5, r3, r2
    944e:	d11a      	bne.n	9486 <__mdiff+0x4e>
    9450:	000f      	movs	r7, r1
    9452:	2114      	movs	r1, #20
    9454:	468c      	mov	ip, r1
    9456:	0092      	lsls	r2, r2, #2
    9458:	3714      	adds	r7, #20
    945a:	44a4      	add	ip, r4
    945c:	18bb      	adds	r3, r7, r2
    945e:	4462      	add	r2, ip
    9460:	e002      	b.n	9468 <__mdiff+0x30>
    9462:	429f      	cmp	r7, r3
    9464:	d300      	bcc.n	9468 <__mdiff+0x30>
    9466:	e070      	b.n	954a <__mdiff+0x112>
    9468:	3b04      	subs	r3, #4
    946a:	3a04      	subs	r2, #4
    946c:	681e      	ldr	r6, [r3, #0]
    946e:	6811      	ldr	r1, [r2, #0]
    9470:	428e      	cmp	r6, r1
    9472:	d0f6      	beq.n	9462 <__mdiff+0x2a>
    9474:	d300      	bcc.n	9478 <__mdiff+0x40>
    9476:	e071      	b.n	955c <__mdiff+0x124>
    9478:	4643      	mov	r3, r8
    947a:	003e      	movs	r6, r7
    947c:	46a0      	mov	r8, r4
    947e:	4667      	mov	r7, ip
    9480:	001c      	movs	r4, r3
    9482:	2501      	movs	r5, #1
    9484:	e006      	b.n	9494 <__mdiff+0x5c>
    9486:	2d00      	cmp	r5, #0
    9488:	db6a      	blt.n	9560 <__mdiff+0x128>
    948a:	4647      	mov	r7, r8
    948c:	0026      	movs	r6, r4
    948e:	2500      	movs	r5, #0
    9490:	3714      	adds	r7, #20
    9492:	3614      	adds	r6, #20
    9494:	4643      	mov	r3, r8
    9496:	6859      	ldr	r1, [r3, #4]
    9498:	f7ff fd80 	bl	8f9c <_Balloc>
    949c:	4643      	mov	r3, r8
    949e:	4681      	mov	r9, r0
    94a0:	60c5      	str	r5, [r0, #12]
    94a2:	6918      	ldr	r0, [r3, #16]
    94a4:	464d      	mov	r5, r9
    94a6:	0083      	lsls	r3, r0, #2
    94a8:	469c      	mov	ip, r3
    94aa:	6923      	ldr	r3, [r4, #16]
    94ac:	44bc      	add	ip, r7
    94ae:	009b      	lsls	r3, r3, #2
    94b0:	4698      	mov	r8, r3
    94b2:	2300      	movs	r3, #0
    94b4:	44b0      	add	r8, r6
    94b6:	3514      	adds	r5, #20
    94b8:	469a      	mov	sl, r3
    94ba:	e000      	b.n	94be <__mdiff+0x86>
    94bc:	0027      	movs	r7, r4
    94be:	ce04      	ldmia	r6!, {r2}
    94c0:	003c      	movs	r4, r7
    94c2:	4693      	mov	fp, r2
    94c4:	4659      	mov	r1, fp
    94c6:	cc08      	ldmia	r4!, {r3}
    94c8:	0409      	lsls	r1, r1, #16
    94ca:	041a      	lsls	r2, r3, #16
    94cc:	0c12      	lsrs	r2, r2, #16
    94ce:	4452      	add	r2, sl
    94d0:	0c09      	lsrs	r1, r1, #16
    94d2:	1a52      	subs	r2, r2, r1
    94d4:	0c19      	lsrs	r1, r3, #16
    94d6:	465b      	mov	r3, fp
    94d8:	0c1b      	lsrs	r3, r3, #16
    94da:	1acb      	subs	r3, r1, r3
    94dc:	1411      	asrs	r1, r2, #16
    94de:	185b      	adds	r3, r3, r1
    94e0:	0412      	lsls	r2, r2, #16
    94e2:	1419      	asrs	r1, r3, #16
    94e4:	0c12      	lsrs	r2, r2, #16
    94e6:	041b      	lsls	r3, r3, #16
    94e8:	468a      	mov	sl, r1
    94ea:	4313      	orrs	r3, r2
    94ec:	1d29      	adds	r1, r5, #4
    94ee:	602b      	str	r3, [r5, #0]
    94f0:	000d      	movs	r5, r1
    94f2:	45b0      	cmp	r8, r6
    94f4:	d8e2      	bhi.n	94bc <__mdiff+0x84>
    94f6:	45a4      	cmp	ip, r4
    94f8:	d916      	bls.n	9528 <__mdiff+0xf0>
    94fa:	cc08      	ldmia	r4!, {r3}
    94fc:	041a      	lsls	r2, r3, #16
    94fe:	0c12      	lsrs	r2, r2, #16
    9500:	4452      	add	r2, sl
    9502:	1416      	asrs	r6, r2, #16
    9504:	0c1b      	lsrs	r3, r3, #16
    9506:	199b      	adds	r3, r3, r6
    9508:	0412      	lsls	r2, r2, #16
    950a:	141e      	asrs	r6, r3, #16
    950c:	0c12      	lsrs	r2, r2, #16
    950e:	041b      	lsls	r3, r3, #16
    9510:	4313      	orrs	r3, r2
    9512:	46b2      	mov	sl, r6
    9514:	c508      	stmia	r5!, {r3}
    9516:	45a4      	cmp	ip, r4
    9518:	d8ef      	bhi.n	94fa <__mdiff+0xc2>
    951a:	4662      	mov	r2, ip
    951c:	2403      	movs	r4, #3
    951e:	1bd2      	subs	r2, r2, r7
    9520:	3a05      	subs	r2, #5
    9522:	43a2      	bics	r2, r4
    9524:	3204      	adds	r2, #4
    9526:	1889      	adds	r1, r1, r2
    9528:	3904      	subs	r1, #4
    952a:	2b00      	cmp	r3, #0
    952c:	d104      	bne.n	9538 <__mdiff+0x100>
    952e:	3904      	subs	r1, #4
    9530:	680b      	ldr	r3, [r1, #0]
    9532:	3801      	subs	r0, #1
    9534:	2b00      	cmp	r3, #0
    9536:	d0fa      	beq.n	952e <__mdiff+0xf6>
    9538:	464b      	mov	r3, r9
    953a:	6118      	str	r0, [r3, #16]
    953c:	4648      	mov	r0, r9
    953e:	bc3c      	pop	{r2, r3, r4, r5}
    9540:	4690      	mov	r8, r2
    9542:	4699      	mov	r9, r3
    9544:	46a2      	mov	sl, r4
    9546:	46ab      	mov	fp, r5
    9548:	bdf8      	pop	{r3, r4, r5, r6, r7, pc}
    954a:	2100      	movs	r1, #0
    954c:	f7ff fd26 	bl	8f9c <_Balloc>
    9550:	2301      	movs	r3, #1
    9552:	6103      	str	r3, [r0, #16]
    9554:	2300      	movs	r3, #0
    9556:	4681      	mov	r9, r0
    9558:	6143      	str	r3, [r0, #20]
    955a:	e7ef      	b.n	953c <__mdiff+0x104>
    955c:	4666      	mov	r6, ip
    955e:	e799      	b.n	9494 <__mdiff+0x5c>
    9560:	0027      	movs	r7, r4
    9562:	000e      	movs	r6, r1
    9564:	46a0      	mov	r8, r4
    9566:	3714      	adds	r7, #20
    9568:	3614      	adds	r6, #20
    956a:	000c      	movs	r4, r1
    956c:	2501      	movs	r5, #1
    956e:	e791      	b.n	9494 <__mdiff+0x5c>

00009570 <__d2b>:
    9570:	b5f0      	push	{r4, r5, r6, r7, lr}
    9572:	2101      	movs	r1, #1
    9574:	001c      	movs	r4, r3
    9576:	b083      	sub	sp, #12
    9578:	9e08      	ldr	r6, [sp, #32]
    957a:	0015      	movs	r5, r2
    957c:	f7ff fd0e 	bl	8f9c <_Balloc>
    9580:	0323      	lsls	r3, r4, #12
    9582:	0064      	lsls	r4, r4, #1
    9584:	0007      	movs	r7, r0
    9586:	0b1b      	lsrs	r3, r3, #12
    9588:	0d64      	lsrs	r4, r4, #21
    958a:	d002      	beq.n	9592 <__d2b+0x22>
    958c:	2280      	movs	r2, #128	; 0x80
    958e:	0352      	lsls	r2, r2, #13
    9590:	4313      	orrs	r3, r2
    9592:	9301      	str	r3, [sp, #4]
    9594:	2d00      	cmp	r5, #0
    9596:	d019      	beq.n	95cc <__d2b+0x5c>
    9598:	4668      	mov	r0, sp
    959a:	9500      	str	r5, [sp, #0]
    959c:	f7ff fd90 	bl	90c0 <__lo0bits>
    95a0:	2800      	cmp	r0, #0
    95a2:	d130      	bne.n	9606 <__d2b+0x96>
    95a4:	9b00      	ldr	r3, [sp, #0]
    95a6:	617b      	str	r3, [r7, #20]
    95a8:	9b01      	ldr	r3, [sp, #4]
    95aa:	61bb      	str	r3, [r7, #24]
    95ac:	1e5a      	subs	r2, r3, #1
    95ae:	4193      	sbcs	r3, r2
    95b0:	1c5d      	adds	r5, r3, #1
    95b2:	613d      	str	r5, [r7, #16]
    95b4:	2c00      	cmp	r4, #0
    95b6:	d014      	beq.n	95e2 <__d2b+0x72>
    95b8:	4b19      	ldr	r3, [pc, #100]	; (9620 <__d2b+0xb0>)
    95ba:	469c      	mov	ip, r3
    95bc:	2335      	movs	r3, #53	; 0x35
    95be:	4464      	add	r4, ip
    95c0:	1824      	adds	r4, r4, r0
    95c2:	1a18      	subs	r0, r3, r0
    95c4:	9b09      	ldr	r3, [sp, #36]	; 0x24
    95c6:	6034      	str	r4, [r6, #0]
    95c8:	6018      	str	r0, [r3, #0]
    95ca:	e019      	b.n	9600 <__d2b+0x90>
    95cc:	a801      	add	r0, sp, #4
    95ce:	f7ff fd77 	bl	90c0 <__lo0bits>
    95d2:	9b01      	ldr	r3, [sp, #4]
    95d4:	3020      	adds	r0, #32
    95d6:	617b      	str	r3, [r7, #20]
    95d8:	2301      	movs	r3, #1
    95da:	2501      	movs	r5, #1
    95dc:	613b      	str	r3, [r7, #16]
    95de:	2c00      	cmp	r4, #0
    95e0:	d1ea      	bne.n	95b8 <__d2b+0x48>
    95e2:	4b10      	ldr	r3, [pc, #64]	; (9624 <__d2b+0xb4>)
    95e4:	469c      	mov	ip, r3
    95e6:	4b10      	ldr	r3, [pc, #64]	; (9628 <__d2b+0xb8>)
    95e8:	4460      	add	r0, ip
    95ea:	18eb      	adds	r3, r5, r3
    95ec:	009b      	lsls	r3, r3, #2
    95ee:	18fb      	adds	r3, r7, r3
    95f0:	6030      	str	r0, [r6, #0]
    95f2:	6958      	ldr	r0, [r3, #20]
    95f4:	f7ff fd4a 	bl	908c <__hi0bits>
    95f8:	016b      	lsls	r3, r5, #5
    95fa:	1a18      	subs	r0, r3, r0
    95fc:	9b09      	ldr	r3, [sp, #36]	; 0x24
    95fe:	6018      	str	r0, [r3, #0]
    9600:	0038      	movs	r0, r7
    9602:	b003      	add	sp, #12
    9604:	bdf0      	pop	{r4, r5, r6, r7, pc}
    9606:	9b01      	ldr	r3, [sp, #4]
    9608:	2220      	movs	r2, #32
    960a:	0019      	movs	r1, r3
    960c:	1a12      	subs	r2, r2, r0
    960e:	4091      	lsls	r1, r2
    9610:	000a      	movs	r2, r1
    9612:	40c3      	lsrs	r3, r0
    9614:	9900      	ldr	r1, [sp, #0]
    9616:	9301      	str	r3, [sp, #4]
    9618:	430a      	orrs	r2, r1
    961a:	617a      	str	r2, [r7, #20]
    961c:	e7c5      	b.n	95aa <__d2b+0x3a>
    961e:	46c0      	nop			; (mov r8, r8)
    9620:	fffffbcd 	.word	0xfffffbcd
    9624:	fffffbce 	.word	0xfffffbce
    9628:	3fffffff 	.word	0x3fffffff

0000962c <_realloc_r>:
    962c:	b5f0      	push	{r4, r5, r6, r7, lr}
    962e:	464e      	mov	r6, r9
    9630:	4645      	mov	r5, r8
    9632:	46de      	mov	lr, fp
    9634:	4657      	mov	r7, sl
    9636:	b5e0      	push	{r5, r6, r7, lr}
    9638:	b085      	sub	sp, #20
    963a:	9001      	str	r0, [sp, #4]
    963c:	000e      	movs	r6, r1
    963e:	0015      	movs	r5, r2
    9640:	2900      	cmp	r1, #0
    9642:	d100      	bne.n	9646 <_realloc_r+0x1a>
    9644:	e09e      	b.n	9784 <_realloc_r+0x158>
    9646:	0037      	movs	r7, r6
    9648:	9801      	ldr	r0, [sp, #4]
    964a:	3f08      	subs	r7, #8
    964c:	f7ff fc96 	bl	8f7c <__malloc_lock>
    9650:	687a      	ldr	r2, [r7, #4]
    9652:	2303      	movs	r3, #3
    9654:	0014      	movs	r4, r2
    9656:	439c      	bics	r4, r3
    9658:	002b      	movs	r3, r5
    965a:	330b      	adds	r3, #11
    965c:	46b9      	mov	r9, r7
    965e:	2b16      	cmp	r3, #22
    9660:	d847      	bhi.n	96f2 <_realloc_r+0xc6>
    9662:	2110      	movs	r1, #16
    9664:	2310      	movs	r3, #16
    9666:	4688      	mov	r8, r1
    9668:	4545      	cmp	r5, r8
    966a:	d846      	bhi.n	96fa <_realloc_r+0xce>
    966c:	429c      	cmp	r4, r3
    966e:	da49      	bge.n	9704 <_realloc_r+0xd8>
    9670:	49cc      	ldr	r1, [pc, #816]	; (99a4 <_realloc_r+0x378>)
    9672:	1938      	adds	r0, r7, r4
    9674:	468b      	mov	fp, r1
    9676:	6889      	ldr	r1, [r1, #8]
    9678:	9002      	str	r0, [sp, #8]
    967a:	4288      	cmp	r0, r1
    967c:	d100      	bne.n	9680 <_realloc_r+0x54>
    967e:	e0c2      	b.n	9806 <_realloc_r+0x1da>
    9680:	2101      	movs	r1, #1
    9682:	468a      	mov	sl, r1
    9684:	6840      	ldr	r0, [r0, #4]
    9686:	0001      	movs	r1, r0
    9688:	9003      	str	r0, [sp, #12]
    968a:	4650      	mov	r0, sl
    968c:	4381      	bics	r1, r0
    968e:	468c      	mov	ip, r1
    9690:	9902      	ldr	r1, [sp, #8]
    9692:	468b      	mov	fp, r1
    9694:	44dc      	add	ip, fp
    9696:	4661      	mov	r1, ip
    9698:	6849      	ldr	r1, [r1, #4]
    969a:	4201      	tst	r1, r0
    969c:	d04d      	beq.n	973a <_realloc_r+0x10e>
    969e:	4210      	tst	r0, r2
    96a0:	d100      	bne.n	96a4 <_realloc_r+0x78>
    96a2:	e0a2      	b.n	97ea <_realloc_r+0x1be>
    96a4:	0029      	movs	r1, r5
    96a6:	9801      	ldr	r0, [sp, #4]
    96a8:	f7ff f8e2 	bl	8870 <_malloc_r>
    96ac:	1e05      	subs	r5, r0, #0
    96ae:	d039      	beq.n	9724 <_realloc_r+0xf8>
    96b0:	2301      	movs	r3, #1
    96b2:	0002      	movs	r2, r0
    96b4:	6879      	ldr	r1, [r7, #4]
    96b6:	3a08      	subs	r2, #8
    96b8:	4399      	bics	r1, r3
    96ba:	187f      	adds	r7, r7, r1
    96bc:	42ba      	cmp	r2, r7
    96be:	d100      	bne.n	96c2 <_realloc_r+0x96>
    96c0:	e12e      	b.n	9920 <_realloc_r+0x2f4>
    96c2:	1f22      	subs	r2, r4, #4
    96c4:	2a24      	cmp	r2, #36	; 0x24
    96c6:	d900      	bls.n	96ca <_realloc_r+0x9e>
    96c8:	e114      	b.n	98f4 <_realloc_r+0x2c8>
    96ca:	2a13      	cmp	r2, #19
    96cc:	d900      	bls.n	96d0 <_realloc_r+0xa4>
    96ce:	e0e8      	b.n	98a2 <_realloc_r+0x276>
    96d0:	0003      	movs	r3, r0
    96d2:	0032      	movs	r2, r6
    96d4:	6811      	ldr	r1, [r2, #0]
    96d6:	6019      	str	r1, [r3, #0]
    96d8:	6851      	ldr	r1, [r2, #4]
    96da:	6059      	str	r1, [r3, #4]
    96dc:	6892      	ldr	r2, [r2, #8]
    96de:	609a      	str	r2, [r3, #8]
    96e0:	9c01      	ldr	r4, [sp, #4]
    96e2:	0031      	movs	r1, r6
    96e4:	0020      	movs	r0, r4
    96e6:	f7fe fda5 	bl	8234 <_free_r>
    96ea:	0020      	movs	r0, r4
    96ec:	f7ff fc4e 	bl	8f8c <__malloc_unlock>
    96f0:	e01b      	b.n	972a <_realloc_r+0xfe>
    96f2:	2107      	movs	r1, #7
    96f4:	438b      	bics	r3, r1
    96f6:	4698      	mov	r8, r3
    96f8:	d5b6      	bpl.n	9668 <_realloc_r+0x3c>
    96fa:	230c      	movs	r3, #12
    96fc:	9a01      	ldr	r2, [sp, #4]
    96fe:	2500      	movs	r5, #0
    9700:	6013      	str	r3, [r2, #0]
    9702:	e012      	b.n	972a <_realloc_r+0xfe>
    9704:	0035      	movs	r5, r6
    9706:	4643      	mov	r3, r8
    9708:	1ae3      	subs	r3, r4, r3
    970a:	2b0f      	cmp	r3, #15
    970c:	d825      	bhi.n	975a <_realloc_r+0x12e>
    970e:	464b      	mov	r3, r9
    9710:	2201      	movs	r2, #1
    9712:	4649      	mov	r1, r9
    9714:	685b      	ldr	r3, [r3, #4]
    9716:	4013      	ands	r3, r2
    9718:	4323      	orrs	r3, r4
    971a:	604b      	str	r3, [r1, #4]
    971c:	444c      	add	r4, r9
    971e:	6863      	ldr	r3, [r4, #4]
    9720:	431a      	orrs	r2, r3
    9722:	6062      	str	r2, [r4, #4]
    9724:	9801      	ldr	r0, [sp, #4]
    9726:	f7ff fc31 	bl	8f8c <__malloc_unlock>
    972a:	0028      	movs	r0, r5
    972c:	b005      	add	sp, #20
    972e:	bc3c      	pop	{r2, r3, r4, r5}
    9730:	4690      	mov	r8, r2
    9732:	4699      	mov	r9, r3
    9734:	46a2      	mov	sl, r4
    9736:	46ab      	mov	fp, r5
    9738:	bdf0      	pop	{r4, r5, r6, r7, pc}
    973a:	2103      	movs	r1, #3
    973c:	9803      	ldr	r0, [sp, #12]
    973e:	468c      	mov	ip, r1
    9740:	4388      	bics	r0, r1
    9742:	1821      	adds	r1, r4, r0
    9744:	468b      	mov	fp, r1
    9746:	4299      	cmp	r1, r3
    9748:	db21      	blt.n	978e <_realloc_r+0x162>
    974a:	9a02      	ldr	r2, [sp, #8]
    974c:	0035      	movs	r5, r6
    974e:	68d3      	ldr	r3, [r2, #12]
    9750:	6892      	ldr	r2, [r2, #8]
    9752:	465c      	mov	r4, fp
    9754:	60d3      	str	r3, [r2, #12]
    9756:	609a      	str	r2, [r3, #8]
    9758:	e7d5      	b.n	9706 <_realloc_r+0xda>
    975a:	464a      	mov	r2, r9
    975c:	2001      	movs	r0, #1
    975e:	4646      	mov	r6, r8
    9760:	6852      	ldr	r2, [r2, #4]
    9762:	4649      	mov	r1, r9
    9764:	4002      	ands	r2, r0
    9766:	4332      	orrs	r2, r6
    9768:	464e      	mov	r6, r9
    976a:	4441      	add	r1, r8
    976c:	4303      	orrs	r3, r0
    976e:	6072      	str	r2, [r6, #4]
    9770:	444c      	add	r4, r9
    9772:	604b      	str	r3, [r1, #4]
    9774:	6863      	ldr	r3, [r4, #4]
    9776:	3108      	adds	r1, #8
    9778:	4318      	orrs	r0, r3
    977a:	6060      	str	r0, [r4, #4]
    977c:	9801      	ldr	r0, [sp, #4]
    977e:	f7fe fd59 	bl	8234 <_free_r>
    9782:	e7cf      	b.n	9724 <_realloc_r+0xf8>
    9784:	0011      	movs	r1, r2
    9786:	f7ff f873 	bl	8870 <_malloc_r>
    978a:	0005      	movs	r5, r0
    978c:	e7cd      	b.n	972a <_realloc_r+0xfe>
    978e:	4651      	mov	r1, sl
    9790:	4211      	tst	r1, r2
    9792:	d000      	beq.n	9796 <_realloc_r+0x16a>
    9794:	e786      	b.n	96a4 <_realloc_r+0x78>
    9796:	4661      	mov	r1, ip
    9798:	683a      	ldr	r2, [r7, #0]
    979a:	1aba      	subs	r2, r7, r2
    979c:	4692      	mov	sl, r2
    979e:	6852      	ldr	r2, [r2, #4]
    97a0:	438a      	bics	r2, r1
    97a2:	1880      	adds	r0, r0, r2
    97a4:	4683      	mov	fp, r0
    97a6:	44a3      	add	fp, r4
    97a8:	459b      	cmp	fp, r3
    97aa:	db26      	blt.n	97fa <_realloc_r+0x1ce>
    97ac:	9a02      	ldr	r2, [sp, #8]
    97ae:	68d3      	ldr	r3, [r2, #12]
    97b0:	6892      	ldr	r2, [r2, #8]
    97b2:	60d3      	str	r3, [r2, #12]
    97b4:	609a      	str	r2, [r3, #8]
    97b6:	4653      	mov	r3, sl
    97b8:	4652      	mov	r2, sl
    97ba:	4655      	mov	r5, sl
    97bc:	6892      	ldr	r2, [r2, #8]
    97be:	68db      	ldr	r3, [r3, #12]
    97c0:	3508      	adds	r5, #8
    97c2:	60d3      	str	r3, [r2, #12]
    97c4:	609a      	str	r2, [r3, #8]
    97c6:	1f22      	subs	r2, r4, #4
    97c8:	2a24      	cmp	r2, #36	; 0x24
    97ca:	d900      	bls.n	97ce <_realloc_r+0x1a2>
    97cc:	e096      	b.n	98fc <_realloc_r+0x2d0>
    97ce:	2a13      	cmp	r2, #19
    97d0:	d972      	bls.n	98b8 <_realloc_r+0x28c>
    97d2:	4653      	mov	r3, sl
    97d4:	6831      	ldr	r1, [r6, #0]
    97d6:	6099      	str	r1, [r3, #8]
    97d8:	6871      	ldr	r1, [r6, #4]
    97da:	60d9      	str	r1, [r3, #12]
    97dc:	2a1b      	cmp	r2, #27
    97de:	d900      	bls.n	97e2 <_realloc_r+0x1b6>
    97e0:	e0a4      	b.n	992c <_realloc_r+0x300>
    97e2:	0032      	movs	r2, r6
    97e4:	3310      	adds	r3, #16
    97e6:	3208      	adds	r2, #8
    97e8:	e068      	b.n	98bc <_realloc_r+0x290>
    97ea:	683a      	ldr	r2, [r7, #0]
    97ec:	1aba      	subs	r2, r7, r2
    97ee:	4692      	mov	sl, r2
    97f0:	4651      	mov	r1, sl
    97f2:	2203      	movs	r2, #3
    97f4:	6849      	ldr	r1, [r1, #4]
    97f6:	4391      	bics	r1, r2
    97f8:	000a      	movs	r2, r1
    97fa:	4693      	mov	fp, r2
    97fc:	44a3      	add	fp, r4
    97fe:	459b      	cmp	fp, r3
    9800:	da00      	bge.n	9804 <_realloc_r+0x1d8>
    9802:	e74f      	b.n	96a4 <_realloc_r+0x78>
    9804:	e7d7      	b.n	97b6 <_realloc_r+0x18a>
    9806:	2003      	movs	r0, #3
    9808:	9902      	ldr	r1, [sp, #8]
    980a:	4684      	mov	ip, r0
    980c:	6849      	ldr	r1, [r1, #4]
    980e:	4381      	bics	r1, r0
    9810:	4640      	mov	r0, r8
    9812:	1909      	adds	r1, r1, r4
    9814:	3010      	adds	r0, #16
    9816:	9002      	str	r0, [sp, #8]
    9818:	4281      	cmp	r1, r0
    981a:	da58      	bge.n	98ce <_realloc_r+0x2a2>
    981c:	07d2      	lsls	r2, r2, #31
    981e:	d500      	bpl.n	9822 <_realloc_r+0x1f6>
    9820:	e740      	b.n	96a4 <_realloc_r+0x78>
    9822:	4660      	mov	r0, ip
    9824:	683a      	ldr	r2, [r7, #0]
    9826:	1aba      	subs	r2, r7, r2
    9828:	4692      	mov	sl, r2
    982a:	6852      	ldr	r2, [r2, #4]
    982c:	4382      	bics	r2, r0
    982e:	9802      	ldr	r0, [sp, #8]
    9830:	1851      	adds	r1, r2, r1
    9832:	9103      	str	r1, [sp, #12]
    9834:	4288      	cmp	r0, r1
    9836:	dce0      	bgt.n	97fa <_realloc_r+0x1ce>
    9838:	4653      	mov	r3, sl
    983a:	4652      	mov	r2, sl
    983c:	4655      	mov	r5, sl
    983e:	6892      	ldr	r2, [r2, #8]
    9840:	68db      	ldr	r3, [r3, #12]
    9842:	3508      	adds	r5, #8
    9844:	60d3      	str	r3, [r2, #12]
    9846:	609a      	str	r2, [r3, #8]
    9848:	1f22      	subs	r2, r4, #4
    984a:	2a24      	cmp	r2, #36	; 0x24
    984c:	d900      	bls.n	9850 <_realloc_r+0x224>
    984e:	e08e      	b.n	996e <_realloc_r+0x342>
    9850:	2a13      	cmp	r2, #19
    9852:	d800      	bhi.n	9856 <_realloc_r+0x22a>
    9854:	e088      	b.n	9968 <_realloc_r+0x33c>
    9856:	4653      	mov	r3, sl
    9858:	6831      	ldr	r1, [r6, #0]
    985a:	6099      	str	r1, [r3, #8]
    985c:	6871      	ldr	r1, [r6, #4]
    985e:	60d9      	str	r1, [r3, #12]
    9860:	2a1b      	cmp	r2, #27
    9862:	d900      	bls.n	9866 <_realloc_r+0x23a>
    9864:	e088      	b.n	9978 <_realloc_r+0x34c>
    9866:	0032      	movs	r2, r6
    9868:	3310      	adds	r3, #16
    986a:	3208      	adds	r2, #8
    986c:	6811      	ldr	r1, [r2, #0]
    986e:	6019      	str	r1, [r3, #0]
    9870:	6851      	ldr	r1, [r2, #4]
    9872:	6059      	str	r1, [r3, #4]
    9874:	6892      	ldr	r2, [r2, #8]
    9876:	609a      	str	r2, [r3, #8]
    9878:	4651      	mov	r1, sl
    987a:	465b      	mov	r3, fp
    987c:	4642      	mov	r2, r8
    987e:	4441      	add	r1, r8
    9880:	6099      	str	r1, [r3, #8]
    9882:	9b03      	ldr	r3, [sp, #12]
    9884:	9801      	ldr	r0, [sp, #4]
    9886:	1a9a      	subs	r2, r3, r2
    9888:	2301      	movs	r3, #1
    988a:	431a      	orrs	r2, r3
    988c:	604a      	str	r2, [r1, #4]
    988e:	4652      	mov	r2, sl
    9890:	6852      	ldr	r2, [r2, #4]
    9892:	4013      	ands	r3, r2
    9894:	4642      	mov	r2, r8
    9896:	4313      	orrs	r3, r2
    9898:	4652      	mov	r2, sl
    989a:	6053      	str	r3, [r2, #4]
    989c:	f7ff fb76 	bl	8f8c <__malloc_unlock>
    98a0:	e743      	b.n	972a <_realloc_r+0xfe>
    98a2:	6833      	ldr	r3, [r6, #0]
    98a4:	6003      	str	r3, [r0, #0]
    98a6:	6873      	ldr	r3, [r6, #4]
    98a8:	6043      	str	r3, [r0, #4]
    98aa:	2a1b      	cmp	r2, #27
    98ac:	d82d      	bhi.n	990a <_realloc_r+0x2de>
    98ae:	0003      	movs	r3, r0
    98b0:	0032      	movs	r2, r6
    98b2:	3308      	adds	r3, #8
    98b4:	3208      	adds	r2, #8
    98b6:	e70d      	b.n	96d4 <_realloc_r+0xa8>
    98b8:	002b      	movs	r3, r5
    98ba:	0032      	movs	r2, r6
    98bc:	6811      	ldr	r1, [r2, #0]
    98be:	465c      	mov	r4, fp
    98c0:	6019      	str	r1, [r3, #0]
    98c2:	6851      	ldr	r1, [r2, #4]
    98c4:	46d1      	mov	r9, sl
    98c6:	6059      	str	r1, [r3, #4]
    98c8:	6892      	ldr	r2, [r2, #8]
    98ca:	609a      	str	r2, [r3, #8]
    98cc:	e71b      	b.n	9706 <_realloc_r+0xda>
    98ce:	4643      	mov	r3, r8
    98d0:	18fa      	adds	r2, r7, r3
    98d2:	465b      	mov	r3, fp
    98d4:	609a      	str	r2, [r3, #8]
    98d6:	4643      	mov	r3, r8
    98d8:	1ac9      	subs	r1, r1, r3
    98da:	2301      	movs	r3, #1
    98dc:	4319      	orrs	r1, r3
    98de:	6051      	str	r1, [r2, #4]
    98e0:	687a      	ldr	r2, [r7, #4]
    98e2:	9801      	ldr	r0, [sp, #4]
    98e4:	4013      	ands	r3, r2
    98e6:	4642      	mov	r2, r8
    98e8:	4313      	orrs	r3, r2
    98ea:	607b      	str	r3, [r7, #4]
    98ec:	f7ff fb4e 	bl	8f8c <__malloc_unlock>
    98f0:	0035      	movs	r5, r6
    98f2:	e71a      	b.n	972a <_realloc_r+0xfe>
    98f4:	0031      	movs	r1, r6
    98f6:	f7ff faf1 	bl	8edc <memmove>
    98fa:	e6f1      	b.n	96e0 <_realloc_r+0xb4>
    98fc:	0031      	movs	r1, r6
    98fe:	0028      	movs	r0, r5
    9900:	f7ff faec 	bl	8edc <memmove>
    9904:	465c      	mov	r4, fp
    9906:	46d1      	mov	r9, sl
    9908:	e6fd      	b.n	9706 <_realloc_r+0xda>
    990a:	68b3      	ldr	r3, [r6, #8]
    990c:	6083      	str	r3, [r0, #8]
    990e:	68f3      	ldr	r3, [r6, #12]
    9910:	60c3      	str	r3, [r0, #12]
    9912:	2a24      	cmp	r2, #36	; 0x24
    9914:	d015      	beq.n	9942 <_realloc_r+0x316>
    9916:	0003      	movs	r3, r0
    9918:	0032      	movs	r2, r6
    991a:	3310      	adds	r3, #16
    991c:	3210      	adds	r2, #16
    991e:	e6d9      	b.n	96d4 <_realloc_r+0xa8>
    9920:	6853      	ldr	r3, [r2, #4]
    9922:	2203      	movs	r2, #3
    9924:	4393      	bics	r3, r2
    9926:	18e4      	adds	r4, r4, r3
    9928:	0035      	movs	r5, r6
    992a:	e6ec      	b.n	9706 <_realloc_r+0xda>
    992c:	4653      	mov	r3, sl
    992e:	68b1      	ldr	r1, [r6, #8]
    9930:	6119      	str	r1, [r3, #16]
    9932:	68f1      	ldr	r1, [r6, #12]
    9934:	6159      	str	r1, [r3, #20]
    9936:	2a24      	cmp	r2, #36	; 0x24
    9938:	d00c      	beq.n	9954 <_realloc_r+0x328>
    993a:	0032      	movs	r2, r6
    993c:	3318      	adds	r3, #24
    993e:	3210      	adds	r2, #16
    9940:	e7bc      	b.n	98bc <_realloc_r+0x290>
    9942:	6933      	ldr	r3, [r6, #16]
    9944:	0032      	movs	r2, r6
    9946:	6103      	str	r3, [r0, #16]
    9948:	0003      	movs	r3, r0
    994a:	6971      	ldr	r1, [r6, #20]
    994c:	3318      	adds	r3, #24
    994e:	3218      	adds	r2, #24
    9950:	6141      	str	r1, [r0, #20]
    9952:	e6bf      	b.n	96d4 <_realloc_r+0xa8>
    9954:	4653      	mov	r3, sl
    9956:	6932      	ldr	r2, [r6, #16]
    9958:	4651      	mov	r1, sl
    995a:	619a      	str	r2, [r3, #24]
    995c:	0032      	movs	r2, r6
    995e:	6970      	ldr	r0, [r6, #20]
    9960:	3320      	adds	r3, #32
    9962:	3218      	adds	r2, #24
    9964:	61c8      	str	r0, [r1, #28]
    9966:	e7a9      	b.n	98bc <_realloc_r+0x290>
    9968:	002b      	movs	r3, r5
    996a:	0032      	movs	r2, r6
    996c:	e77e      	b.n	986c <_realloc_r+0x240>
    996e:	0031      	movs	r1, r6
    9970:	0028      	movs	r0, r5
    9972:	f7ff fab3 	bl	8edc <memmove>
    9976:	e77f      	b.n	9878 <_realloc_r+0x24c>
    9978:	4653      	mov	r3, sl
    997a:	68b1      	ldr	r1, [r6, #8]
    997c:	6119      	str	r1, [r3, #16]
    997e:	68f1      	ldr	r1, [r6, #12]
    9980:	6159      	str	r1, [r3, #20]
    9982:	2a24      	cmp	r2, #36	; 0x24
    9984:	d003      	beq.n	998e <_realloc_r+0x362>
    9986:	0032      	movs	r2, r6
    9988:	3318      	adds	r3, #24
    998a:	3210      	adds	r2, #16
    998c:	e76e      	b.n	986c <_realloc_r+0x240>
    998e:	4653      	mov	r3, sl
    9990:	6932      	ldr	r2, [r6, #16]
    9992:	4651      	mov	r1, sl
    9994:	619a      	str	r2, [r3, #24]
    9996:	0032      	movs	r2, r6
    9998:	6970      	ldr	r0, [r6, #20]
    999a:	3320      	adds	r3, #32
    999c:	3218      	adds	r2, #24
    999e:	61c8      	str	r0, [r1, #28]
    99a0:	e764      	b.n	986c <_realloc_r+0x240>
    99a2:	46c0      	nop			; (mov r8, r8)
    99a4:	20000434 	.word	0x20000434

000099a8 <_sbrk_r>:
    99a8:	2300      	movs	r3, #0
    99aa:	b570      	push	{r4, r5, r6, lr}
    99ac:	4c06      	ldr	r4, [pc, #24]	; (99c8 <_sbrk_r+0x20>)
    99ae:	0005      	movs	r5, r0
    99b0:	0008      	movs	r0, r1
    99b2:	6023      	str	r3, [r4, #0]
    99b4:	f7f7 f96c 	bl	c90 <_sbrk>
    99b8:	1c43      	adds	r3, r0, #1
    99ba:	d000      	beq.n	99be <_sbrk_r+0x16>
    99bc:	bd70      	pop	{r4, r5, r6, pc}
    99be:	6823      	ldr	r3, [r4, #0]
    99c0:	2b00      	cmp	r3, #0
    99c2:	d0fb      	beq.n	99bc <_sbrk_r+0x14>
    99c4:	602b      	str	r3, [r5, #0]
    99c6:	e7f9      	b.n	99bc <_sbrk_r+0x14>
    99c8:	20000a94 	.word	0x20000a94

000099cc <__sread>:
    99cc:	b570      	push	{r4, r5, r6, lr}
    99ce:	000c      	movs	r4, r1
    99d0:	250e      	movs	r5, #14
    99d2:	5f49      	ldrsh	r1, [r1, r5]
    99d4:	f000 faa0 	bl	9f18 <_read_r>
    99d8:	2800      	cmp	r0, #0
    99da:	db03      	blt.n	99e4 <__sread+0x18>
    99dc:	6d23      	ldr	r3, [r4, #80]	; 0x50
    99de:	181b      	adds	r3, r3, r0
    99e0:	6523      	str	r3, [r4, #80]	; 0x50
    99e2:	bd70      	pop	{r4, r5, r6, pc}
    99e4:	89a3      	ldrh	r3, [r4, #12]
    99e6:	4a02      	ldr	r2, [pc, #8]	; (99f0 <__sread+0x24>)
    99e8:	4013      	ands	r3, r2
    99ea:	81a3      	strh	r3, [r4, #12]
    99ec:	e7f9      	b.n	99e2 <__sread+0x16>
    99ee:	46c0      	nop			; (mov r8, r8)
    99f0:	ffffefff 	.word	0xffffefff

000099f4 <__swrite>:
    99f4:	b5f8      	push	{r3, r4, r5, r6, r7, lr}
    99f6:	0016      	movs	r6, r2
    99f8:	001f      	movs	r7, r3
    99fa:	220c      	movs	r2, #12
    99fc:	5e8b      	ldrsh	r3, [r1, r2]
    99fe:	0005      	movs	r5, r0
    9a00:	000c      	movs	r4, r1
    9a02:	05da      	lsls	r2, r3, #23
    9a04:	d507      	bpl.n	9a16 <__swrite+0x22>
    9a06:	230e      	movs	r3, #14
    9a08:	5ec9      	ldrsh	r1, [r1, r3]
    9a0a:	2200      	movs	r2, #0
    9a0c:	2302      	movs	r3, #2
    9a0e:	f000 fa59 	bl	9ec4 <_lseek_r>
    9a12:	220c      	movs	r2, #12
    9a14:	5ea3      	ldrsh	r3, [r4, r2]
    9a16:	4a05      	ldr	r2, [pc, #20]	; (9a2c <__swrite+0x38>)
    9a18:	0028      	movs	r0, r5
    9a1a:	4013      	ands	r3, r2
    9a1c:	81a3      	strh	r3, [r4, #12]
    9a1e:	0032      	movs	r2, r6
    9a20:	230e      	movs	r3, #14
    9a22:	5ee1      	ldrsh	r1, [r4, r3]
    9a24:	003b      	movs	r3, r7
    9a26:	f000 f86b 	bl	9b00 <_write_r>
    9a2a:	bdf8      	pop	{r3, r4, r5, r6, r7, pc}
    9a2c:	ffffefff 	.word	0xffffefff

00009a30 <__sseek>:
    9a30:	b570      	push	{r4, r5, r6, lr}
    9a32:	000c      	movs	r4, r1
    9a34:	250e      	movs	r5, #14
    9a36:	5f49      	ldrsh	r1, [r1, r5]
    9a38:	f000 fa44 	bl	9ec4 <_lseek_r>
    9a3c:	1c43      	adds	r3, r0, #1
    9a3e:	d006      	beq.n	9a4e <__sseek+0x1e>
    9a40:	2380      	movs	r3, #128	; 0x80
    9a42:	89a2      	ldrh	r2, [r4, #12]
    9a44:	015b      	lsls	r3, r3, #5
    9a46:	4313      	orrs	r3, r2
    9a48:	81a3      	strh	r3, [r4, #12]
    9a4a:	6520      	str	r0, [r4, #80]	; 0x50
    9a4c:	bd70      	pop	{r4, r5, r6, pc}
    9a4e:	89a3      	ldrh	r3, [r4, #12]
    9a50:	4a01      	ldr	r2, [pc, #4]	; (9a58 <__sseek+0x28>)
    9a52:	4013      	ands	r3, r2
    9a54:	81a3      	strh	r3, [r4, #12]
    9a56:	e7f9      	b.n	9a4c <__sseek+0x1c>
    9a58:	ffffefff 	.word	0xffffefff

00009a5c <__sclose>:
    9a5c:	b510      	push	{r4, lr}
    9a5e:	230e      	movs	r3, #14
    9a60:	5ec9      	ldrsh	r1, [r1, r3]
    9a62:	f000 f907 	bl	9c74 <_close_r>
    9a66:	bd10      	pop	{r4, pc}

00009a68 <__sprint_r.part.0>:
    9a68:	b5f8      	push	{r3, r4, r5, r6, r7, lr}
    9a6a:	464e      	mov	r6, r9
    9a6c:	4645      	mov	r5, r8
    9a6e:	46de      	mov	lr, fp
    9a70:	4657      	mov	r7, sl
    9a72:	6e4b      	ldr	r3, [r1, #100]	; 0x64
    9a74:	b5e0      	push	{r5, r6, r7, lr}
    9a76:	4680      	mov	r8, r0
    9a78:	000e      	movs	r6, r1
    9a7a:	4691      	mov	r9, r2
    9a7c:	049b      	lsls	r3, r3, #18
    9a7e:	d531      	bpl.n	9ae4 <__sprint_r.part.0+0x7c>
    9a80:	6813      	ldr	r3, [r2, #0]
    9a82:	469a      	mov	sl, r3
    9a84:	6893      	ldr	r3, [r2, #8]
    9a86:	2b00      	cmp	r3, #0
    9a88:	d02a      	beq.n	9ae0 <__sprint_r.part.0+0x78>
    9a8a:	4652      	mov	r2, sl
    9a8c:	6852      	ldr	r2, [r2, #4]
    9a8e:	2500      	movs	r5, #0
    9a90:	4693      	mov	fp, r2
    9a92:	0897      	lsrs	r7, r2, #2
    9a94:	4652      	mov	r2, sl
    9a96:	6814      	ldr	r4, [r2, #0]
    9a98:	d104      	bne.n	9aa4 <__sprint_r.part.0+0x3c>
    9a9a:	e016      	b.n	9aca <__sprint_r.part.0+0x62>
    9a9c:	3501      	adds	r5, #1
    9a9e:	3404      	adds	r4, #4
    9aa0:	42af      	cmp	r7, r5
    9aa2:	d010      	beq.n	9ac6 <__sprint_r.part.0+0x5e>
    9aa4:	0032      	movs	r2, r6
    9aa6:	6821      	ldr	r1, [r4, #0]
    9aa8:	4640      	mov	r0, r8
    9aaa:	f000 f9a7 	bl	9dfc <_fputwc_r>
    9aae:	1c43      	adds	r3, r0, #1
    9ab0:	d1f4      	bne.n	9a9c <__sprint_r.part.0+0x34>
    9ab2:	464a      	mov	r2, r9
    9ab4:	2300      	movs	r3, #0
    9ab6:	6093      	str	r3, [r2, #8]
    9ab8:	6053      	str	r3, [r2, #4]
    9aba:	bc3c      	pop	{r2, r3, r4, r5}
    9abc:	4690      	mov	r8, r2
    9abe:	4699      	mov	r9, r3
    9ac0:	46a2      	mov	sl, r4
    9ac2:	46ab      	mov	fp, r5
    9ac4:	bdf8      	pop	{r3, r4, r5, r6, r7, pc}
    9ac6:	464b      	mov	r3, r9
    9ac8:	689b      	ldr	r3, [r3, #8]
    9aca:	465a      	mov	r2, fp
    9acc:	2103      	movs	r1, #3
    9ace:	438a      	bics	r2, r1
    9ad0:	1a9b      	subs	r3, r3, r2
    9ad2:	464a      	mov	r2, r9
    9ad4:	6093      	str	r3, [r2, #8]
    9ad6:	2208      	movs	r2, #8
    9ad8:	4694      	mov	ip, r2
    9ada:	44e2      	add	sl, ip
    9adc:	2b00      	cmp	r3, #0
    9ade:	d1d4      	bne.n	9a8a <__sprint_r.part.0+0x22>
    9ae0:	2000      	movs	r0, #0
    9ae2:	e7e6      	b.n	9ab2 <__sprint_r.part.0+0x4a>
    9ae4:	f7fe fc84 	bl	83f0 <__sfvwrite_r>
    9ae8:	e7e3      	b.n	9ab2 <__sprint_r.part.0+0x4a>
    9aea:	46c0      	nop			; (mov r8, r8)

00009aec <__sprint_r>:
    9aec:	6893      	ldr	r3, [r2, #8]
    9aee:	b510      	push	{r4, lr}
    9af0:	2b00      	cmp	r3, #0
    9af2:	d002      	beq.n	9afa <__sprint_r+0xe>
    9af4:	f7ff ffb8 	bl	9a68 <__sprint_r.part.0>
    9af8:	bd10      	pop	{r4, pc}
    9afa:	6053      	str	r3, [r2, #4]
    9afc:	2000      	movs	r0, #0
    9afe:	e7fb      	b.n	9af8 <__sprint_r+0xc>

00009b00 <_write_r>:
    9b00:	b570      	push	{r4, r5, r6, lr}
    9b02:	0005      	movs	r5, r0
    9b04:	0008      	movs	r0, r1
    9b06:	0011      	movs	r1, r2
    9b08:	2200      	movs	r2, #0
    9b0a:	4c06      	ldr	r4, [pc, #24]	; (9b24 <_write_r+0x24>)
    9b0c:	6022      	str	r2, [r4, #0]
    9b0e:	001a      	movs	r2, r3
    9b10:	f7f7 fe06 	bl	1720 <_write>
    9b14:	1c43      	adds	r3, r0, #1
    9b16:	d000      	beq.n	9b1a <_write_r+0x1a>
    9b18:	bd70      	pop	{r4, r5, r6, pc}
    9b1a:	6823      	ldr	r3, [r4, #0]
    9b1c:	2b00      	cmp	r3, #0
    9b1e:	d0fb      	beq.n	9b18 <_write_r+0x18>
    9b20:	602b      	str	r3, [r5, #0]
    9b22:	e7f9      	b.n	9b18 <_write_r+0x18>
    9b24:	20000a94 	.word	0x20000a94

00009b28 <__register_exitproc>:
    9b28:	b5f0      	push	{r4, r5, r6, r7, lr}
    9b2a:	464e      	mov	r6, r9
    9b2c:	4645      	mov	r5, r8
    9b2e:	46de      	mov	lr, fp
    9b30:	4657      	mov	r7, sl
    9b32:	b5e0      	push	{r5, r6, r7, lr}
    9b34:	4d36      	ldr	r5, [pc, #216]	; (9c10 <__register_exitproc+0xe8>)
    9b36:	b083      	sub	sp, #12
    9b38:	0006      	movs	r6, r0
    9b3a:	6828      	ldr	r0, [r5, #0]
    9b3c:	4698      	mov	r8, r3
    9b3e:	000f      	movs	r7, r1
    9b40:	4691      	mov	r9, r2
    9b42:	f7fe fe0f 	bl	8764 <__retarget_lock_acquire_recursive>
    9b46:	4b33      	ldr	r3, [pc, #204]	; (9c14 <__register_exitproc+0xec>)
    9b48:	681c      	ldr	r4, [r3, #0]
    9b4a:	23a4      	movs	r3, #164	; 0xa4
    9b4c:	005b      	lsls	r3, r3, #1
    9b4e:	58e0      	ldr	r0, [r4, r3]
    9b50:	2800      	cmp	r0, #0
    9b52:	d052      	beq.n	9bfa <__register_exitproc+0xd2>
    9b54:	6843      	ldr	r3, [r0, #4]
    9b56:	2b1f      	cmp	r3, #31
    9b58:	dc13      	bgt.n	9b82 <__register_exitproc+0x5a>
    9b5a:	1c5a      	adds	r2, r3, #1
    9b5c:	9201      	str	r2, [sp, #4]
    9b5e:	2e00      	cmp	r6, #0
    9b60:	d128      	bne.n	9bb4 <__register_exitproc+0x8c>
    9b62:	9a01      	ldr	r2, [sp, #4]
    9b64:	3302      	adds	r3, #2
    9b66:	009b      	lsls	r3, r3, #2
    9b68:	6042      	str	r2, [r0, #4]
    9b6a:	501f      	str	r7, [r3, r0]
    9b6c:	6828      	ldr	r0, [r5, #0]
    9b6e:	f7fe fdfb 	bl	8768 <__retarget_lock_release_recursive>
    9b72:	2000      	movs	r0, #0
    9b74:	b003      	add	sp, #12
    9b76:	bc3c      	pop	{r2, r3, r4, r5}
    9b78:	4690      	mov	r8, r2
    9b7a:	4699      	mov	r9, r3
    9b7c:	46a2      	mov	sl, r4
    9b7e:	46ab      	mov	fp, r5
    9b80:	bdf0      	pop	{r4, r5, r6, r7, pc}
    9b82:	4b25      	ldr	r3, [pc, #148]	; (9c18 <__register_exitproc+0xf0>)
    9b84:	2b00      	cmp	r3, #0
    9b86:	d03d      	beq.n	9c04 <__register_exitproc+0xdc>
    9b88:	20c8      	movs	r0, #200	; 0xc8
    9b8a:	0040      	lsls	r0, r0, #1
    9b8c:	f7fe fe66 	bl	885c <malloc>
    9b90:	2800      	cmp	r0, #0
    9b92:	d037      	beq.n	9c04 <__register_exitproc+0xdc>
    9b94:	22a4      	movs	r2, #164	; 0xa4
    9b96:	2300      	movs	r3, #0
    9b98:	0052      	lsls	r2, r2, #1
    9b9a:	58a1      	ldr	r1, [r4, r2]
    9b9c:	6043      	str	r3, [r0, #4]
    9b9e:	6001      	str	r1, [r0, #0]
    9ba0:	50a0      	str	r0, [r4, r2]
    9ba2:	3240      	adds	r2, #64	; 0x40
    9ba4:	5083      	str	r3, [r0, r2]
    9ba6:	3204      	adds	r2, #4
    9ba8:	5083      	str	r3, [r0, r2]
    9baa:	3301      	adds	r3, #1
    9bac:	9301      	str	r3, [sp, #4]
    9bae:	2300      	movs	r3, #0
    9bb0:	2e00      	cmp	r6, #0
    9bb2:	d0d6      	beq.n	9b62 <__register_exitproc+0x3a>
    9bb4:	009a      	lsls	r2, r3, #2
    9bb6:	4692      	mov	sl, r2
    9bb8:	4482      	add	sl, r0
    9bba:	464a      	mov	r2, r9
    9bbc:	2188      	movs	r1, #136	; 0x88
    9bbe:	4654      	mov	r4, sl
    9bc0:	5062      	str	r2, [r4, r1]
    9bc2:	22c4      	movs	r2, #196	; 0xc4
    9bc4:	0052      	lsls	r2, r2, #1
    9bc6:	4691      	mov	r9, r2
    9bc8:	4481      	add	r9, r0
    9bca:	464a      	mov	r2, r9
    9bcc:	3987      	subs	r1, #135	; 0x87
    9bce:	4099      	lsls	r1, r3
    9bd0:	6812      	ldr	r2, [r2, #0]
    9bd2:	468b      	mov	fp, r1
    9bd4:	430a      	orrs	r2, r1
    9bd6:	4694      	mov	ip, r2
    9bd8:	464a      	mov	r2, r9
    9bda:	4661      	mov	r1, ip
    9bdc:	6011      	str	r1, [r2, #0]
    9bde:	2284      	movs	r2, #132	; 0x84
    9be0:	4641      	mov	r1, r8
    9be2:	0052      	lsls	r2, r2, #1
    9be4:	50a1      	str	r1, [r4, r2]
    9be6:	2e02      	cmp	r6, #2
    9be8:	d1bb      	bne.n	9b62 <__register_exitproc+0x3a>
    9bea:	0002      	movs	r2, r0
    9bec:	465c      	mov	r4, fp
    9bee:	328d      	adds	r2, #141	; 0x8d
    9bf0:	32ff      	adds	r2, #255	; 0xff
    9bf2:	6811      	ldr	r1, [r2, #0]
    9bf4:	430c      	orrs	r4, r1
    9bf6:	6014      	str	r4, [r2, #0]
    9bf8:	e7b3      	b.n	9b62 <__register_exitproc+0x3a>
    9bfa:	0020      	movs	r0, r4
    9bfc:	304d      	adds	r0, #77	; 0x4d
    9bfe:	30ff      	adds	r0, #255	; 0xff
    9c00:	50e0      	str	r0, [r4, r3]
    9c02:	e7a7      	b.n	9b54 <__register_exitproc+0x2c>
    9c04:	6828      	ldr	r0, [r5, #0]
    9c06:	f7fe fdaf 	bl	8768 <__retarget_lock_release_recursive>
    9c0a:	2001      	movs	r0, #1
    9c0c:	4240      	negs	r0, r0
    9c0e:	e7b1      	b.n	9b74 <__register_exitproc+0x4c>
    9c10:	20000430 	.word	0x20000430
    9c14:	0000a360 	.word	0x0000a360
    9c18:	0000885d 	.word	0x0000885d

00009c1c <_calloc_r>:
    9c1c:	b510      	push	{r4, lr}
    9c1e:	4351      	muls	r1, r2
    9c20:	f7fe fe26 	bl	8870 <_malloc_r>
    9c24:	1e04      	subs	r4, r0, #0
    9c26:	d01c      	beq.n	9c62 <_calloc_r+0x46>
    9c28:	0003      	movs	r3, r0
    9c2a:	3b08      	subs	r3, #8
    9c2c:	685a      	ldr	r2, [r3, #4]
    9c2e:	2303      	movs	r3, #3
    9c30:	439a      	bics	r2, r3
    9c32:	3a04      	subs	r2, #4
    9c34:	2a24      	cmp	r2, #36	; 0x24
    9c36:	d816      	bhi.n	9c66 <_calloc_r+0x4a>
    9c38:	0003      	movs	r3, r0
    9c3a:	2a13      	cmp	r2, #19
    9c3c:	d90d      	bls.n	9c5a <_calloc_r+0x3e>
    9c3e:	2100      	movs	r1, #0
    9c40:	3308      	adds	r3, #8
    9c42:	6001      	str	r1, [r0, #0]
    9c44:	6041      	str	r1, [r0, #4]
    9c46:	2a1b      	cmp	r2, #27
    9c48:	d907      	bls.n	9c5a <_calloc_r+0x3e>
    9c4a:	6081      	str	r1, [r0, #8]
    9c4c:	60c1      	str	r1, [r0, #12]
    9c4e:	2a24      	cmp	r2, #36	; 0x24
    9c50:	d10d      	bne.n	9c6e <_calloc_r+0x52>
    9c52:	0003      	movs	r3, r0
    9c54:	6101      	str	r1, [r0, #16]
    9c56:	3318      	adds	r3, #24
    9c58:	6141      	str	r1, [r0, #20]
    9c5a:	2200      	movs	r2, #0
    9c5c:	601a      	str	r2, [r3, #0]
    9c5e:	605a      	str	r2, [r3, #4]
    9c60:	609a      	str	r2, [r3, #8]
    9c62:	0020      	movs	r0, r4
    9c64:	bd10      	pop	{r4, pc}
    9c66:	2100      	movs	r1, #0
    9c68:	f7fb fada 	bl	5220 <memset>
    9c6c:	e7f9      	b.n	9c62 <_calloc_r+0x46>
    9c6e:	0003      	movs	r3, r0
    9c70:	3310      	adds	r3, #16
    9c72:	e7f2      	b.n	9c5a <_calloc_r+0x3e>

00009c74 <_close_r>:
    9c74:	2300      	movs	r3, #0
    9c76:	b570      	push	{r4, r5, r6, lr}
    9c78:	4c06      	ldr	r4, [pc, #24]	; (9c94 <_close_r+0x20>)
    9c7a:	0005      	movs	r5, r0
    9c7c:	0008      	movs	r0, r1
    9c7e:	6023      	str	r3, [r4, #0]
    9c80:	f7f7 f818 	bl	cb4 <_close>
    9c84:	1c43      	adds	r3, r0, #1
    9c86:	d000      	beq.n	9c8a <_close_r+0x16>
    9c88:	bd70      	pop	{r4, r5, r6, pc}
    9c8a:	6823      	ldr	r3, [r4, #0]
    9c8c:	2b00      	cmp	r3, #0
    9c8e:	d0fb      	beq.n	9c88 <_close_r+0x14>
    9c90:	602b      	str	r3, [r5, #0]
    9c92:	e7f9      	b.n	9c88 <_close_r+0x14>
    9c94:	20000a94 	.word	0x20000a94

00009c98 <_fclose_r>:
    9c98:	b570      	push	{r4, r5, r6, lr}
    9c9a:	0005      	movs	r5, r0
    9c9c:	1e0c      	subs	r4, r1, #0
    9c9e:	d040      	beq.n	9d22 <_fclose_r+0x8a>
    9ca0:	2800      	cmp	r0, #0
    9ca2:	d002      	beq.n	9caa <_fclose_r+0x12>
    9ca4:	6b83      	ldr	r3, [r0, #56]	; 0x38
    9ca6:	2b00      	cmp	r3, #0
    9ca8:	d03e      	beq.n	9d28 <_fclose_r+0x90>
    9caa:	2601      	movs	r6, #1
    9cac:	6e63      	ldr	r3, [r4, #100]	; 0x64
    9cae:	4233      	tst	r3, r6
    9cb0:	d133      	bne.n	9d1a <_fclose_r+0x82>
    9cb2:	89a3      	ldrh	r3, [r4, #12]
    9cb4:	059b      	lsls	r3, r3, #22
    9cb6:	d543      	bpl.n	9d40 <_fclose_r+0xa8>
    9cb8:	0021      	movs	r1, r4
    9cba:	0028      	movs	r0, r5
    9cbc:	f7fe f90e 	bl	7edc <__sflush_r>
    9cc0:	6ae3      	ldr	r3, [r4, #44]	; 0x2c
    9cc2:	0006      	movs	r6, r0
    9cc4:	2b00      	cmp	r3, #0
    9cc6:	d004      	beq.n	9cd2 <_fclose_r+0x3a>
    9cc8:	69e1      	ldr	r1, [r4, #28]
    9cca:	0028      	movs	r0, r5
    9ccc:	4798      	blx	r3
    9cce:	2800      	cmp	r0, #0
    9cd0:	db44      	blt.n	9d5c <_fclose_r+0xc4>
    9cd2:	89a3      	ldrh	r3, [r4, #12]
    9cd4:	061b      	lsls	r3, r3, #24
    9cd6:	d42a      	bmi.n	9d2e <_fclose_r+0x96>
    9cd8:	6b21      	ldr	r1, [r4, #48]	; 0x30
    9cda:	2900      	cmp	r1, #0
    9cdc:	d008      	beq.n	9cf0 <_fclose_r+0x58>
    9cde:	0023      	movs	r3, r4
    9ce0:	3340      	adds	r3, #64	; 0x40
    9ce2:	4299      	cmp	r1, r3
    9ce4:	d002      	beq.n	9cec <_fclose_r+0x54>
    9ce6:	0028      	movs	r0, r5
    9ce8:	f7fe faa4 	bl	8234 <_free_r>
    9cec:	2300      	movs	r3, #0
    9cee:	6323      	str	r3, [r4, #48]	; 0x30
    9cf0:	6c61      	ldr	r1, [r4, #68]	; 0x44
    9cf2:	2900      	cmp	r1, #0
    9cf4:	d004      	beq.n	9d00 <_fclose_r+0x68>
    9cf6:	0028      	movs	r0, r5
    9cf8:	f7fe fa9c 	bl	8234 <_free_r>
    9cfc:	2300      	movs	r3, #0
    9cfe:	6463      	str	r3, [r4, #68]	; 0x44
    9d00:	f7fe fa1e 	bl	8140 <__sfp_lock_acquire>
    9d04:	2300      	movs	r3, #0
    9d06:	81a3      	strh	r3, [r4, #12]
    9d08:	6e63      	ldr	r3, [r4, #100]	; 0x64
    9d0a:	07db      	lsls	r3, r3, #31
    9d0c:	d514      	bpl.n	9d38 <_fclose_r+0xa0>
    9d0e:	6da0      	ldr	r0, [r4, #88]	; 0x58
    9d10:	f7fe fd26 	bl	8760 <__retarget_lock_close_recursive>
    9d14:	f7fe fa1c 	bl	8150 <__sfp_lock_release>
    9d18:	e004      	b.n	9d24 <_fclose_r+0x8c>
    9d1a:	220c      	movs	r2, #12
    9d1c:	5ea3      	ldrsh	r3, [r4, r2]
    9d1e:	2b00      	cmp	r3, #0
    9d20:	d1ca      	bne.n	9cb8 <_fclose_r+0x20>
    9d22:	2600      	movs	r6, #0
    9d24:	0030      	movs	r0, r6
    9d26:	bd70      	pop	{r4, r5, r6, pc}
    9d28:	f7fe f9da 	bl	80e0 <__sinit>
    9d2c:	e7bd      	b.n	9caa <_fclose_r+0x12>
    9d2e:	6921      	ldr	r1, [r4, #16]
    9d30:	0028      	movs	r0, r5
    9d32:	f7fe fa7f 	bl	8234 <_free_r>
    9d36:	e7cf      	b.n	9cd8 <_fclose_r+0x40>
    9d38:	6da0      	ldr	r0, [r4, #88]	; 0x58
    9d3a:	f7fe fd15 	bl	8768 <__retarget_lock_release_recursive>
    9d3e:	e7e6      	b.n	9d0e <_fclose_r+0x76>
    9d40:	6da0      	ldr	r0, [r4, #88]	; 0x58
    9d42:	f7fe fd0f 	bl	8764 <__retarget_lock_acquire_recursive>
    9d46:	220c      	movs	r2, #12
    9d48:	5ea3      	ldrsh	r3, [r4, r2]
    9d4a:	2b00      	cmp	r3, #0
    9d4c:	d1b4      	bne.n	9cb8 <_fclose_r+0x20>
    9d4e:	6e63      	ldr	r3, [r4, #100]	; 0x64
    9d50:	401e      	ands	r6, r3
    9d52:	d1e6      	bne.n	9d22 <_fclose_r+0x8a>
    9d54:	6da0      	ldr	r0, [r4, #88]	; 0x58
    9d56:	f7fe fd07 	bl	8768 <__retarget_lock_release_recursive>
    9d5a:	e7e3      	b.n	9d24 <_fclose_r+0x8c>
    9d5c:	2601      	movs	r6, #1
    9d5e:	4276      	negs	r6, r6
    9d60:	e7b7      	b.n	9cd2 <_fclose_r+0x3a>
    9d62:	46c0      	nop			; (mov r8, r8)

00009d64 <__fputwc>:
    9d64:	b5f0      	push	{r4, r5, r6, r7, lr}
    9d66:	46ce      	mov	lr, r9
    9d68:	4647      	mov	r7, r8
    9d6a:	b580      	push	{r7, lr}
    9d6c:	b085      	sub	sp, #20
    9d6e:	4680      	mov	r8, r0
    9d70:	4689      	mov	r9, r1
    9d72:	0014      	movs	r4, r2
    9d74:	f000 f896 	bl	9ea4 <__locale_mb_cur_max>
    9d78:	2801      	cmp	r0, #1
    9d7a:	d031      	beq.n	9de0 <__fputwc+0x7c>
    9d7c:	0023      	movs	r3, r4
    9d7e:	af03      	add	r7, sp, #12
    9d80:	335c      	adds	r3, #92	; 0x5c
    9d82:	464a      	mov	r2, r9
    9d84:	0039      	movs	r1, r7
    9d86:	4640      	mov	r0, r8
    9d88:	f000 f938 	bl	9ffc <_wcrtomb_r>
    9d8c:	0006      	movs	r6, r0
    9d8e:	1c43      	adds	r3, r0, #1
    9d90:	d021      	beq.n	9dd6 <__fputwc+0x72>
    9d92:	2800      	cmp	r0, #0
    9d94:	d030      	beq.n	9df8 <__fputwc+0x94>
    9d96:	7839      	ldrb	r1, [r7, #0]
    9d98:	2500      	movs	r5, #0
    9d9a:	e007      	b.n	9dac <__fputwc+0x48>
    9d9c:	6823      	ldr	r3, [r4, #0]
    9d9e:	1c5a      	adds	r2, r3, #1
    9da0:	6022      	str	r2, [r4, #0]
    9da2:	7019      	strb	r1, [r3, #0]
    9da4:	3501      	adds	r5, #1
    9da6:	42b5      	cmp	r5, r6
    9da8:	d226      	bcs.n	9df8 <__fputwc+0x94>
    9daa:	5d79      	ldrb	r1, [r7, r5]
    9dac:	68a3      	ldr	r3, [r4, #8]
    9dae:	3b01      	subs	r3, #1
    9db0:	60a3      	str	r3, [r4, #8]
    9db2:	2b00      	cmp	r3, #0
    9db4:	daf2      	bge.n	9d9c <__fputwc+0x38>
    9db6:	69a2      	ldr	r2, [r4, #24]
    9db8:	4293      	cmp	r3, r2
    9dba:	db01      	blt.n	9dc0 <__fputwc+0x5c>
    9dbc:	290a      	cmp	r1, #10
    9dbe:	d1ed      	bne.n	9d9c <__fputwc+0x38>
    9dc0:	0022      	movs	r2, r4
    9dc2:	4640      	mov	r0, r8
    9dc4:	f000 f8bc 	bl	9f40 <__swbuf_r>
    9dc8:	1c43      	adds	r3, r0, #1
    9dca:	d1eb      	bne.n	9da4 <__fputwc+0x40>
    9dcc:	b005      	add	sp, #20
    9dce:	bc0c      	pop	{r2, r3}
    9dd0:	4690      	mov	r8, r2
    9dd2:	4699      	mov	r9, r3
    9dd4:	bdf0      	pop	{r4, r5, r6, r7, pc}
    9dd6:	2240      	movs	r2, #64	; 0x40
    9dd8:	89a3      	ldrh	r3, [r4, #12]
    9dda:	4313      	orrs	r3, r2
    9ddc:	81a3      	strh	r3, [r4, #12]
    9dde:	e7f5      	b.n	9dcc <__fputwc+0x68>
    9de0:	464b      	mov	r3, r9
    9de2:	3b01      	subs	r3, #1
    9de4:	2bfe      	cmp	r3, #254	; 0xfe
    9de6:	d8c9      	bhi.n	9d7c <__fputwc+0x18>
    9de8:	466a      	mov	r2, sp
    9dea:	464b      	mov	r3, r9
    9dec:	71d3      	strb	r3, [r2, #7]
    9dee:	79d1      	ldrb	r1, [r2, #7]
    9df0:	af03      	add	r7, sp, #12
    9df2:	7039      	strb	r1, [r7, #0]
    9df4:	2601      	movs	r6, #1
    9df6:	e7cf      	b.n	9d98 <__fputwc+0x34>
    9df8:	4648      	mov	r0, r9
    9dfa:	e7e7      	b.n	9dcc <__fputwc+0x68>

00009dfc <_fputwc_r>:
    9dfc:	6e53      	ldr	r3, [r2, #100]	; 0x64
    9dfe:	b570      	push	{r4, r5, r6, lr}
    9e00:	0005      	movs	r5, r0
    9e02:	000e      	movs	r6, r1
    9e04:	0014      	movs	r4, r2
    9e06:	07db      	lsls	r3, r3, #31
    9e08:	d41e      	bmi.n	9e48 <_fputwc_r+0x4c>
    9e0a:	230c      	movs	r3, #12
    9e0c:	5ed2      	ldrsh	r2, [r2, r3]
    9e0e:	b291      	uxth	r1, r2
    9e10:	058b      	lsls	r3, r1, #22
    9e12:	d516      	bpl.n	9e42 <_fputwc_r+0x46>
    9e14:	2380      	movs	r3, #128	; 0x80
    9e16:	019b      	lsls	r3, r3, #6
    9e18:	4219      	tst	r1, r3
    9e1a:	d104      	bne.n	9e26 <_fputwc_r+0x2a>
    9e1c:	431a      	orrs	r2, r3
    9e1e:	81a2      	strh	r2, [r4, #12]
    9e20:	6e62      	ldr	r2, [r4, #100]	; 0x64
    9e22:	4313      	orrs	r3, r2
    9e24:	6663      	str	r3, [r4, #100]	; 0x64
    9e26:	0028      	movs	r0, r5
    9e28:	0022      	movs	r2, r4
    9e2a:	0031      	movs	r1, r6
    9e2c:	f7ff ff9a 	bl	9d64 <__fputwc>
    9e30:	6e63      	ldr	r3, [r4, #100]	; 0x64
    9e32:	0005      	movs	r5, r0
    9e34:	07db      	lsls	r3, r3, #31
    9e36:	d402      	bmi.n	9e3e <_fputwc_r+0x42>
    9e38:	89a3      	ldrh	r3, [r4, #12]
    9e3a:	059b      	lsls	r3, r3, #22
    9e3c:	d508      	bpl.n	9e50 <_fputwc_r+0x54>
    9e3e:	0028      	movs	r0, r5
    9e40:	bd70      	pop	{r4, r5, r6, pc}
    9e42:	6da0      	ldr	r0, [r4, #88]	; 0x58
    9e44:	f7fe fc8e 	bl	8764 <__retarget_lock_acquire_recursive>
    9e48:	230c      	movs	r3, #12
    9e4a:	5ee2      	ldrsh	r2, [r4, r3]
    9e4c:	b291      	uxth	r1, r2
    9e4e:	e7e1      	b.n	9e14 <_fputwc_r+0x18>
    9e50:	6da0      	ldr	r0, [r4, #88]	; 0x58
    9e52:	f7fe fc89 	bl	8768 <__retarget_lock_release_recursive>
    9e56:	e7f2      	b.n	9e3e <_fputwc_r+0x42>

00009e58 <_fstat_r>:
    9e58:	2300      	movs	r3, #0
    9e5a:	b570      	push	{r4, r5, r6, lr}
    9e5c:	4c07      	ldr	r4, [pc, #28]	; (9e7c <_fstat_r+0x24>)
    9e5e:	0005      	movs	r5, r0
    9e60:	0008      	movs	r0, r1
    9e62:	0011      	movs	r1, r2
    9e64:	6023      	str	r3, [r4, #0]
    9e66:	f7f6 ff28 	bl	cba <_fstat>
    9e6a:	1c43      	adds	r3, r0, #1
    9e6c:	d000      	beq.n	9e70 <_fstat_r+0x18>
    9e6e:	bd70      	pop	{r4, r5, r6, pc}
    9e70:	6823      	ldr	r3, [r4, #0]
    9e72:	2b00      	cmp	r3, #0
    9e74:	d0fb      	beq.n	9e6e <_fstat_r+0x16>
    9e76:	602b      	str	r3, [r5, #0]
    9e78:	e7f9      	b.n	9e6e <_fstat_r+0x16>
    9e7a:	46c0      	nop			; (mov r8, r8)
    9e7c:	20000a94 	.word	0x20000a94

00009e80 <_isatty_r>:
    9e80:	2300      	movs	r3, #0
    9e82:	b570      	push	{r4, r5, r6, lr}
    9e84:	4c06      	ldr	r4, [pc, #24]	; (9ea0 <_isatty_r+0x20>)
    9e86:	0005      	movs	r5, r0
    9e88:	0008      	movs	r0, r1
    9e8a:	6023      	str	r3, [r4, #0]
    9e8c:	f7f6 ff1a 	bl	cc4 <_isatty>
    9e90:	1c43      	adds	r3, r0, #1
    9e92:	d000      	beq.n	9e96 <_isatty_r+0x16>
    9e94:	bd70      	pop	{r4, r5, r6, pc}
    9e96:	6823      	ldr	r3, [r4, #0]
    9e98:	2b00      	cmp	r3, #0
    9e9a:	d0fb      	beq.n	9e94 <_isatty_r+0x14>
    9e9c:	602b      	str	r3, [r5, #0]
    9e9e:	e7f9      	b.n	9e94 <_isatty_r+0x14>
    9ea0:	20000a94 	.word	0x20000a94

00009ea4 <__locale_mb_cur_max>:
    9ea4:	4b05      	ldr	r3, [pc, #20]	; (9ebc <__locale_mb_cur_max+0x18>)
    9ea6:	681b      	ldr	r3, [r3, #0]
    9ea8:	6b5b      	ldr	r3, [r3, #52]	; 0x34
    9eaa:	2b00      	cmp	r3, #0
    9eac:	d003      	beq.n	9eb6 <__locale_mb_cur_max+0x12>
    9eae:	2294      	movs	r2, #148	; 0x94
    9eb0:	0052      	lsls	r2, r2, #1
    9eb2:	5c98      	ldrb	r0, [r3, r2]
    9eb4:	4770      	bx	lr
    9eb6:	4b02      	ldr	r3, [pc, #8]	; (9ec0 <__locale_mb_cur_max+0x1c>)
    9eb8:	e7f9      	b.n	9eae <__locale_mb_cur_max+0xa>
    9eba:	46c0      	nop			; (mov r8, r8)
    9ebc:	20000004 	.word	0x20000004
    9ec0:	20000844 	.word	0x20000844

00009ec4 <_lseek_r>:
    9ec4:	b570      	push	{r4, r5, r6, lr}
    9ec6:	0005      	movs	r5, r0
    9ec8:	0008      	movs	r0, r1
    9eca:	0011      	movs	r1, r2
    9ecc:	2200      	movs	r2, #0
    9ece:	4c06      	ldr	r4, [pc, #24]	; (9ee8 <_lseek_r+0x24>)
    9ed0:	6022      	str	r2, [r4, #0]
    9ed2:	001a      	movs	r2, r3
    9ed4:	f7f6 fef8 	bl	cc8 <_lseek>
    9ed8:	1c43      	adds	r3, r0, #1
    9eda:	d000      	beq.n	9ede <_lseek_r+0x1a>
    9edc:	bd70      	pop	{r4, r5, r6, pc}
    9ede:	6823      	ldr	r3, [r4, #0]
    9ee0:	2b00      	cmp	r3, #0
    9ee2:	d0fb      	beq.n	9edc <_lseek_r+0x18>
    9ee4:	602b      	str	r3, [r5, #0]
    9ee6:	e7f9      	b.n	9edc <_lseek_r+0x18>
    9ee8:	20000a94 	.word	0x20000a94

00009eec <__ascii_mbtowc>:
    9eec:	b082      	sub	sp, #8
    9eee:	2900      	cmp	r1, #0
    9ef0:	d00a      	beq.n	9f08 <__ascii_mbtowc+0x1c>
    9ef2:	2a00      	cmp	r2, #0
    9ef4:	d00b      	beq.n	9f0e <__ascii_mbtowc+0x22>
    9ef6:	2b00      	cmp	r3, #0
    9ef8:	d00b      	beq.n	9f12 <__ascii_mbtowc+0x26>
    9efa:	7813      	ldrb	r3, [r2, #0]
    9efc:	600b      	str	r3, [r1, #0]
    9efe:	7810      	ldrb	r0, [r2, #0]
    9f00:	1e43      	subs	r3, r0, #1
    9f02:	4198      	sbcs	r0, r3
    9f04:	b002      	add	sp, #8
    9f06:	4770      	bx	lr
    9f08:	a901      	add	r1, sp, #4
    9f0a:	2a00      	cmp	r2, #0
    9f0c:	d1f3      	bne.n	9ef6 <__ascii_mbtowc+0xa>
    9f0e:	2000      	movs	r0, #0
    9f10:	e7f8      	b.n	9f04 <__ascii_mbtowc+0x18>
    9f12:	2002      	movs	r0, #2
    9f14:	4240      	negs	r0, r0
    9f16:	e7f5      	b.n	9f04 <__ascii_mbtowc+0x18>

00009f18 <_read_r>:
    9f18:	b570      	push	{r4, r5, r6, lr}
    9f1a:	0005      	movs	r5, r0
    9f1c:	0008      	movs	r0, r1
    9f1e:	0011      	movs	r1, r2
    9f20:	2200      	movs	r2, #0
    9f22:	4c06      	ldr	r4, [pc, #24]	; (9f3c <_read_r+0x24>)
    9f24:	6022      	str	r2, [r4, #0]
    9f26:	001a      	movs	r2, r3
    9f28:	f7f7 fbe6 	bl	16f8 <_read>
    9f2c:	1c43      	adds	r3, r0, #1
    9f2e:	d000      	beq.n	9f32 <_read_r+0x1a>
    9f30:	bd70      	pop	{r4, r5, r6, pc}
    9f32:	6823      	ldr	r3, [r4, #0]
    9f34:	2b00      	cmp	r3, #0
    9f36:	d0fb      	beq.n	9f30 <_read_r+0x18>
    9f38:	602b      	str	r3, [r5, #0]
    9f3a:	e7f9      	b.n	9f30 <_read_r+0x18>
    9f3c:	20000a94 	.word	0x20000a94

00009f40 <__swbuf_r>:
    9f40:	b5f8      	push	{r3, r4, r5, r6, r7, lr}
    9f42:	0006      	movs	r6, r0
    9f44:	000d      	movs	r5, r1
    9f46:	0014      	movs	r4, r2
    9f48:	2800      	cmp	r0, #0
    9f4a:	d002      	beq.n	9f52 <__swbuf_r+0x12>
    9f4c:	6b83      	ldr	r3, [r0, #56]	; 0x38
    9f4e:	2b00      	cmp	r3, #0
    9f50:	d04e      	beq.n	9ff0 <__swbuf_r+0xb0>
    9f52:	69a3      	ldr	r3, [r4, #24]
    9f54:	60a3      	str	r3, [r4, #8]
    9f56:	230c      	movs	r3, #12
    9f58:	5ee0      	ldrsh	r0, [r4, r3]
    9f5a:	b281      	uxth	r1, r0
    9f5c:	070b      	lsls	r3, r1, #28
    9f5e:	d53c      	bpl.n	9fda <__swbuf_r+0x9a>
    9f60:	6923      	ldr	r3, [r4, #16]
    9f62:	2b00      	cmp	r3, #0
    9f64:	d039      	beq.n	9fda <__swbuf_r+0x9a>
    9f66:	22ff      	movs	r2, #255	; 0xff
    9f68:	b2ef      	uxtb	r7, r5
    9f6a:	4015      	ands	r5, r2
    9f6c:	2280      	movs	r2, #128	; 0x80
    9f6e:	0192      	lsls	r2, r2, #6
    9f70:	4211      	tst	r1, r2
    9f72:	d015      	beq.n	9fa0 <__swbuf_r+0x60>
    9f74:	6822      	ldr	r2, [r4, #0]
    9f76:	6961      	ldr	r1, [r4, #20]
    9f78:	1ad3      	subs	r3, r2, r3
    9f7a:	428b      	cmp	r3, r1
    9f7c:	da1b      	bge.n	9fb6 <__swbuf_r+0x76>
    9f7e:	3301      	adds	r3, #1
    9f80:	68a1      	ldr	r1, [r4, #8]
    9f82:	3901      	subs	r1, #1
    9f84:	60a1      	str	r1, [r4, #8]
    9f86:	1c51      	adds	r1, r2, #1
    9f88:	6021      	str	r1, [r4, #0]
    9f8a:	7017      	strb	r7, [r2, #0]
    9f8c:	6962      	ldr	r2, [r4, #20]
    9f8e:	429a      	cmp	r2, r3
    9f90:	d01a      	beq.n	9fc8 <__swbuf_r+0x88>
    9f92:	89a3      	ldrh	r3, [r4, #12]
    9f94:	07db      	lsls	r3, r3, #31
    9f96:	d501      	bpl.n	9f9c <__swbuf_r+0x5c>
    9f98:	2d0a      	cmp	r5, #10
    9f9a:	d015      	beq.n	9fc8 <__swbuf_r+0x88>
    9f9c:	0028      	movs	r0, r5
    9f9e:	bdf8      	pop	{r3, r4, r5, r6, r7, pc}
    9fa0:	4302      	orrs	r2, r0
    9fa2:	6e61      	ldr	r1, [r4, #100]	; 0x64
    9fa4:	81a2      	strh	r2, [r4, #12]
    9fa6:	4a14      	ldr	r2, [pc, #80]	; (9ff8 <__swbuf_r+0xb8>)
    9fa8:	400a      	ands	r2, r1
    9faa:	6662      	str	r2, [r4, #100]	; 0x64
    9fac:	6961      	ldr	r1, [r4, #20]
    9fae:	6822      	ldr	r2, [r4, #0]
    9fb0:	1ad3      	subs	r3, r2, r3
    9fb2:	428b      	cmp	r3, r1
    9fb4:	dbe3      	blt.n	9f7e <__swbuf_r+0x3e>
    9fb6:	0021      	movs	r1, r4
    9fb8:	0030      	movs	r0, r6
    9fba:	f7fe f837 	bl	802c <_fflush_r>
    9fbe:	2800      	cmp	r0, #0
    9fc0:	d108      	bne.n	9fd4 <__swbuf_r+0x94>
    9fc2:	6822      	ldr	r2, [r4, #0]
    9fc4:	2301      	movs	r3, #1
    9fc6:	e7db      	b.n	9f80 <__swbuf_r+0x40>
    9fc8:	0021      	movs	r1, r4
    9fca:	0030      	movs	r0, r6
    9fcc:	f7fe f82e 	bl	802c <_fflush_r>
    9fd0:	2800      	cmp	r0, #0
    9fd2:	d0e3      	beq.n	9f9c <__swbuf_r+0x5c>
    9fd4:	2501      	movs	r5, #1
    9fd6:	426d      	negs	r5, r5
    9fd8:	e7e0      	b.n	9f9c <__swbuf_r+0x5c>
    9fda:	0021      	movs	r1, r4
    9fdc:	0030      	movs	r0, r6
    9fde:	f7fc fe91 	bl	6d04 <__swsetup_r>
    9fe2:	2800      	cmp	r0, #0
    9fe4:	d1f6      	bne.n	9fd4 <__swbuf_r+0x94>
    9fe6:	230c      	movs	r3, #12
    9fe8:	5ee0      	ldrsh	r0, [r4, r3]
    9fea:	6923      	ldr	r3, [r4, #16]
    9fec:	b281      	uxth	r1, r0
    9fee:	e7ba      	b.n	9f66 <__swbuf_r+0x26>
    9ff0:	f7fe f876 	bl	80e0 <__sinit>
    9ff4:	e7ad      	b.n	9f52 <__swbuf_r+0x12>
    9ff6:	46c0      	nop			; (mov r8, r8)
    9ff8:	ffffdfff 	.word	0xffffdfff

00009ffc <_wcrtomb_r>:
    9ffc:	b570      	push	{r4, r5, r6, lr}
    9ffe:	001d      	movs	r5, r3
    a000:	4b11      	ldr	r3, [pc, #68]	; (a048 <_wcrtomb_r+0x4c>)
    a002:	b084      	sub	sp, #16
    a004:	681b      	ldr	r3, [r3, #0]
    a006:	0004      	movs	r4, r0
    a008:	6b5b      	ldr	r3, [r3, #52]	; 0x34
    a00a:	2900      	cmp	r1, #0
    a00c:	d00e      	beq.n	a02c <_wcrtomb_r+0x30>
    a00e:	2b00      	cmp	r3, #0
    a010:	d016      	beq.n	a040 <_wcrtomb_r+0x44>
    a012:	20e0      	movs	r0, #224	; 0xe0
    a014:	581e      	ldr	r6, [r3, r0]
    a016:	002b      	movs	r3, r5
    a018:	0020      	movs	r0, r4
    a01a:	47b0      	blx	r6
    a01c:	1c43      	adds	r3, r0, #1
    a01e:	d103      	bne.n	a028 <_wcrtomb_r+0x2c>
    a020:	2300      	movs	r3, #0
    a022:	602b      	str	r3, [r5, #0]
    a024:	338a      	adds	r3, #138	; 0x8a
    a026:	6023      	str	r3, [r4, #0]
    a028:	b004      	add	sp, #16
    a02a:	bd70      	pop	{r4, r5, r6, pc}
    a02c:	2b00      	cmp	r3, #0
    a02e:	d009      	beq.n	a044 <_wcrtomb_r+0x48>
    a030:	22e0      	movs	r2, #224	; 0xe0
    a032:	a901      	add	r1, sp, #4
    a034:	589e      	ldr	r6, [r3, r2]
    a036:	0020      	movs	r0, r4
    a038:	002b      	movs	r3, r5
    a03a:	2200      	movs	r2, #0
    a03c:	47b0      	blx	r6
    a03e:	e7ed      	b.n	a01c <_wcrtomb_r+0x20>
    a040:	4b02      	ldr	r3, [pc, #8]	; (a04c <_wcrtomb_r+0x50>)
    a042:	e7e6      	b.n	a012 <_wcrtomb_r+0x16>
    a044:	4b01      	ldr	r3, [pc, #4]	; (a04c <_wcrtomb_r+0x50>)
    a046:	e7f3      	b.n	a030 <_wcrtomb_r+0x34>
    a048:	20000004 	.word	0x20000004
    a04c:	20000844 	.word	0x20000844

0000a050 <__ascii_wctomb>:
    a050:	2900      	cmp	r1, #0
    a052:	d004      	beq.n	a05e <__ascii_wctomb+0xe>
    a054:	2aff      	cmp	r2, #255	; 0xff
    a056:	d804      	bhi.n	a062 <__ascii_wctomb+0x12>
    a058:	2001      	movs	r0, #1
    a05a:	700a      	strb	r2, [r1, #0]
    a05c:	4770      	bx	lr
    a05e:	2000      	movs	r0, #0
    a060:	e7fc      	b.n	a05c <__ascii_wctomb+0xc>
    a062:	238a      	movs	r3, #138	; 0x8a
    a064:	6003      	str	r3, [r0, #0]
    a066:	2001      	movs	r0, #1
    a068:	4240      	negs	r0, r0
    a06a:	e7f7      	b.n	a05c <__ascii_wctomb+0xc>
    a06c:	682f2e2e 	.word	0x682f2e2e
    a070:	732f6c61 	.word	0x732f6c61
    a074:	682f6372 	.word	0x682f6372
    a078:	695f6c61 	.word	0x695f6c61
    a07c:	6d5f6332 	.word	0x6d5f6332
    a080:	6e79735f 	.word	0x6e79735f
    a084:	00632e63 	.word	0x00632e63
    a088:	682f2e2e 	.word	0x682f2e2e
    a08c:	732f6c61 	.word	0x732f6c61
    a090:	682f6372 	.word	0x682f6372
    a094:	695f6c61 	.word	0x695f6c61
    a098:	00632e6f 	.word	0x00632e6f
    a09c:	682f2e2e 	.word	0x682f2e2e
    a0a0:	732f6c61 	.word	0x732f6c61
    a0a4:	682f6372 	.word	0x682f6372
    a0a8:	755f6c61 	.word	0x755f6c61
    a0ac:	74726173 	.word	0x74726173
    a0b0:	6e79735f 	.word	0x6e79735f
    a0b4:	00632e63 	.word	0x00632e63

0000a0b8 <_i2cms>:
    a0b8:	00000000 00200014 00000100 00000022     ...... ....."...
    a0c8:	00d70000 007a1200 682f2e2e 732f6c70     ......z.../hpl/s
    a0d8:	6f637265 70682f6d 65735f6c 6d6f6372     ercom/hpl_sercom
    a0e8:	0000632e 2a2a0a0d 2a2a2a2a 2a2a2a2a     .c....**********
    a0f8:	2a2a2a2a 2a2a2a2a 616f4220 42206863     ******** Boach B
    a108:	3831504d 38302f30 65532035 726f736e     MP180/085 Sensor
    a118:	61784520 656c706d 2a2a2a20 2a2a2a2a      Example *******
    a128:	2a2a2a2a 2a2a2a2a 2a2a2a2a 0d2a2a2a     ***************.
    a138:	00000000 736e6573 6920726f 6974696e     ....sensor initi
    a148:	69616620 2064656c 68632021 206b6365      failed ! check 
    a158:	72756f79 6e6f6320 7463656e 206e6f69     your connection 
    a168:	0000000d 706d6574 74617265 3d657275     ....temperature=
    a178:	2e322520 43206631 69736c65 0a0d7375      %2.1f Celsius..
    a188:	00000000 73657270 65727573 6c25203d     ....pressure= %l
    a198:	61702075 00000a0d 20616573 6576656c     u pa....sea leve
    a1a8:	7270206c 75737365 203d6572 20756c25     l pressure= %lu 
    a1b8:	0a0d6170 00000000 69746c41 65647574     pa......Altitude
    a1c8:	6c25203d 656d2075 0d726574 0000000a     = %lu meter.....
    a1d8:	2a2a0a0d 2a2a2a2a 2a2a2a2a 2a2a2a2a     ..**************
    a1e8:	2a2a2a2a 2a2a2a2a 2a2a2a2a 2a2a2a2a     ****************
    a1f8:	2a2a2a2a 2a2a2a2a 2a2a2a2a 2a2a2a2a     ****************
    a208:	0000000d 00776f70                       ....pow.

0000a210 <TWO52>:
    a210:	00000000 43300000 00000000 c3300000     ......0C......0.
    a220:	000030a0 00003070 00003082 00002fc4     .0..p0...0.../..
    a230:	00003082 00003066 00003082 00002fc4     .0..f0...0.../..
    a240:	00003070 00003070 00003066 00002fc4     p0..p0..f0.../..
    a250:	00002fcc 00002fcc 00002fcc 00003088     ./.../.../...0..
    a260:	00003070 00003070 00003044 00003128     p0..p0..D0..(1..
    a270:	00003044 00003066 00003044 00003128     D0..f0..D0..(1..
    a280:	00003070 00003070 00003066 00003128     p0..p0..f0..(1..
    a290:	00002fcc 00002fcc 00002fcc 00003132     ./.../.../..21..
    a2a0:	000032d0 00003220 00003220 0000321e     .2.. 2.. 2...2..
    a2b0:	000032c2 000032c2 000032b8 0000321e     .2...2...2...2..
    a2c0:	000032c2 000032b8 000032c2 0000321e     .2...2...2...2..
    a2d0:	000032c8 000032c8 000032c8 00003358     .2...2...2..X3..
    a2e0:	00003c88 00003c6a 00003c24 00003b42     .<..j<..$<..B;..
    a2f0:	00003c24 00003c5c 00003c24 00003b42     $<..\<..$<..B;..
    a300:	00003c6a 00003c6a 00003c5c 00003b42     j<..j<..\<..B;..
    a310:	00003b3a 00003b3a 00003b3a 00003ea0     :;..:;..:;...>..
    a320:	000044e8 000043a8 000043a8 000043a4     .D...C...C...C..
    a330:	000044c0 000044c0 000044b2 000043a4     .D...D...D...C..
    a340:	000044c0 000044b2 000044c0 000043a4     .D...D...D...C..
    a350:	000044c8 000044c8 000044c8 000046cc     .D...D...D...F..

0000a360 <_global_impure_ptr>:
    a360:	20000008 00005bc2 00005c96 00005c96     ... .[...\...\..
    a370:	00005bae 00005c96 00005c96 00005c96     .[...\...\...\..
    a380:	00005c96 00005c96 00005c96 00005c68     .\...\...\..h\..
    a390:	0000577a 00005c96 00005770 00005784     zW...\..pW...W..
    a3a0:	00005c96 00005bb8 00005944 00005944     .\...[..DY..DY..
    a3b0:	00005944 00005944 00005944 00005944     DY..DY..DY..DY..
    a3c0:	00005944 00005944 00005944 00005c96     DY..DY..DY...\..
    a3d0:	00005c96 00005c96 00005c96 00005c96     .\...\...\...\..
    a3e0:	00005c96 00005c96 00005c96 00005c96     .\...\...\...\..
    a3f0:	00005c96 00005c7e 00005bd2 00005c96     .\..~\...[...\..
    a400:	00005bd2 00005c96 00005c96 00005c96     .[...\...\...\..
    a410:	00005c96 00005b38 00005c96 00005c96     .\..8[...\...\..
    a420:	00005b42 00005c96 00005c96 00005c96     B[...\...\...\..
    a430:	00005c96 00005c96 00005b70 00005c96     .\...\..p[...\..
    a440:	00005c96 00005b9e 00005c96 00005c96     .\...[...\...\..
    a450:	00005c96 00005c96 00005c96 00005c96     .\...\...\...\..
    a460:	00005c96 00005c96 00005c96 00005c96     .\...\...\...\..
    a470:	00005984 000059ba 00005bd2 00005bd2     .Y...Y...[...[..
    a480:	00005bd2 00005a62 000059ba 00005c96     .[..bZ...Y...\..
    a490:	00005c96 00005a6c 00005c96 00005a7e     .\..lZ...\..~Z..
    a4a0:	00005c92 00005aac 00005ad6 00005c96     .\...Z...Z...\..
    a4b0:	00005ae0 00005c96 00005c8e 00005c96     .Z...\...\...\..
    a4c0:	00005c96 000057d2 00464e49 00666e69     .\...W..INF.inf.
    a4d0:	004e414e 006e616e 33323130 37363534     NAN.nan.01234567
    a4e0:	42413938 46454443 00000000 33323130     89ABCDEF....0123
    a4f0:	37363534 62613938 66656463 00000000     456789abcdef....
    a500:	6c756e28 0000296c 00000030              (null)..0...

0000a50c <blanks.7238>:
    a50c:	20202020 20202020 20202020 20202020                     

0000a51c <zeroes.7239>:
    a51c:	30303030 30303030 30303030 30303030     0000000000000000
    a52c:	69666e49 7974696e 00000000 004e614e     Infinity....NaN.
    a53c:	00000000                                ....

0000a540 <__mprec_bigtens>:
    a540:	37e08000 4341c379 b5056e17 4693b8b5     ...7y.AC.n.....F
    a550:	e93ff9f5 4d384f03 f9301d32 5a827748     ..?..O8M2.0.Hw.Z
    a560:	7f73bf3c 75154fdd                       <.s..O.u

0000a568 <__mprec_tens>:
    a568:	00000000 3ff00000 00000000 40240000     .......?......$@
    a578:	00000000 40590000 00000000 408f4000     ......Y@.....@.@
    a588:	00000000 40c38800 00000000 40f86a00     .......@.....j.@
    a598:	00000000 412e8480 00000000 416312d0     .......A......cA
    a5a8:	00000000 4197d784 00000000 41cdcd65     .......A....e..A
    a5b8:	20000000 4202a05f e8000000 42374876     ... _..B....vH7B
    a5c8:	a2000000 426d1a94 e5400000 42a2309c     ......mB..@..0.B
    a5d8:	1e900000 42d6bcc4 26340000 430c6bf5     .......B..4&.k.C
    a5e8:	37e08000 4341c379 85d8a000 43763457     ...7y.AC....W4vC
    a5f8:	674ec800 43abc16d 60913d00 43e158e4     ..Ngm..C.=.`.X.C
    a608:	78b58c40 4415af1d d6e2ef50 444b1ae4     @..x...DP.....KD
    a618:	064dd592 4480f0cf c7e14af6 44b52d02     ..M....D.J...-.D
    a628:	79d99db4 44ea7843                       ...yCx.D

0000a630 <p05.6055>:
    a630:	00000005 00000019 0000007d 00000043     ........}...C...
    a640:	49534f50 00000058 0000002e              POSIX.......

0000a64c <_ctype_>:
    a64c:	20202000 20202020 28282020 20282828     .         ((((( 
    a65c:	20202020 20202020 20202020 20202020                     
    a66c:	10108820 10101010 10101010 10101010      ...............
    a67c:	04040410 04040404 10040404 10101010     ................
    a68c:	41411010 41414141 01010101 01010101     ..AAAAAA........
    a69c:	01010101 01010101 01010101 10101010     ................
    a6ac:	42421010 42424242 02020202 02020202     ..BBBBBB........
    a6bc:	02020202 02020202 02020202 10101010     ................
    a6cc:	00000020 00000000 00000000 00000000      ...............
	...

0000a750 <_init>:
    a750:	b5f8      	push	{r3, r4, r5, r6, r7, lr}
    a752:	46c0      	nop			; (mov r8, r8)
    a754:	bcf8      	pop	{r3, r4, r5, r6, r7}
    a756:	bc08      	pop	{r3}
    a758:	469e      	mov	lr, r3
    a75a:	4770      	bx	lr

0000a75c <__init_array_start>:
    a75c:	00006dd9 	.word	0x00006dd9

0000a760 <__frame_dummy_init_array_entry>:
    a760:	000000dd                                ....

0000a764 <_fini>:
    a764:	b5f8      	push	{r3, r4, r5, r6, r7, lr}
    a766:	46c0      	nop			; (mov r8, r8)
    a768:	bcf8      	pop	{r3, r4, r5, r6, r7}
    a76a:	bc08      	pop	{r3}
    a76c:	469e      	mov	lr, r3
    a76e:	4770      	bx	lr

0000a770 <__fini_array_start>:
    a770:	000000b5 	.word	0x000000b5
